
BaroMeter03.elf:     file format elf32-avr

Sections:
Idx Name          Size      VMA       LMA       File off  Algn
  0 .data         0000008a  00800100  00005f24  00005fd8  2**0
                  CONTENTS, ALLOC, LOAD, DATA
  1 .text         00005f24  00000000  00000000  000000b4  2**1
                  CONTENTS, ALLOC, LOAD, READONLY, CODE
  2 .bss          0000039f  0080018a  0080018a  00006062  2**0
                  ALLOC
  3 .eeprom       00000040  00810000  00810000  00006062  2**0
                  CONTENTS, ALLOC, LOAD, READONLY, DATA
  4 .stab         00001884  00000000  00000000  000060a4  2**2
                  CONTENTS, READONLY, DEBUGGING
  5 .stabstr      000005f2  00000000  00000000  00007928  2**0
                  CONTENTS, READONLY, DEBUGGING
  6 .debug_aranges 00000140  00000000  00000000  00007f20  2**3
                  CONTENTS, READONLY, DEBUGGING
  7 .debug_info   0000085a  00000000  00000000  00008060  2**0
                  CONTENTS, READONLY, DEBUGGING
  8 .debug_abbrev 000000c8  00000000  00000000  000088ba  2**0
                  CONTENTS, READONLY, DEBUGGING
  9 .debug_line   000006c7  00000000  00000000  00008982  2**0
                  CONTENTS, READONLY, DEBUGGING

Disassembly of section .text:

00000000 <__vectors>:
       0:	0c 94 fb 00 	jmp	0x1f6	; 0x1f6 <__ctors_end>
       4:	0c 94 18 01 	jmp	0x230	; 0x230 <__bad_interrupt>
       8:	0c 94 18 01 	jmp	0x230	; 0x230 <__bad_interrupt>
       c:	0c 94 18 01 	jmp	0x230	; 0x230 <__bad_interrupt>
      10:	0c 94 18 01 	jmp	0x230	; 0x230 <__bad_interrupt>
      14:	0c 94 0a 19 	jmp	0x3214	; 0x3214 <__vector_5>
      18:	0c 94 18 01 	jmp	0x230	; 0x230 <__bad_interrupt>
      1c:	0c 94 18 01 	jmp	0x230	; 0x230 <__bad_interrupt>
      20:	0c 94 18 01 	jmp	0x230	; 0x230 <__bad_interrupt>
      24:	0c 94 15 19 	jmp	0x322a	; 0x322a <__vector_9>
      28:	0c 94 18 01 	jmp	0x230	; 0x230 <__bad_interrupt>
      2c:	0c 94 3a 19 	jmp	0x3274	; 0x3274 <__vector_11>
      30:	0c 94 18 01 	jmp	0x230	; 0x230 <__bad_interrupt>
      34:	0c 94 18 01 	jmp	0x230	; 0x230 <__bad_interrupt>
      38:	0c 94 18 01 	jmp	0x230	; 0x230 <__bad_interrupt>
      3c:	0c 94 18 01 	jmp	0x230	; 0x230 <__bad_interrupt>
      40:	0c 94 18 01 	jmp	0x230	; 0x230 <__bad_interrupt>
      44:	0c 94 18 01 	jmp	0x230	; 0x230 <__bad_interrupt>
      48:	0c 94 18 01 	jmp	0x230	; 0x230 <__bad_interrupt>
      4c:	0c 94 18 01 	jmp	0x230	; 0x230 <__bad_interrupt>
      50:	0c 94 18 01 	jmp	0x230	; 0x230 <__bad_interrupt>
      54:	0c 94 18 01 	jmp	0x230	; 0x230 <__bad_interrupt>
      58:	0c 94 18 01 	jmp	0x230	; 0x230 <__bad_interrupt>
      5c:	0c 94 18 01 	jmp	0x230	; 0x230 <__bad_interrupt>
      60:	0c 94 18 01 	jmp	0x230	; 0x230 <__bad_interrupt>
      64:	0c 94 18 01 	jmp	0x230	; 0x230 <__bad_interrupt>

00000068 <__c.2276>:
      68:	25 30 32 64 2d 25 30 32 64 2d 25 30 32 64 00        %02d-%02d-%02d.

00000077 <__c.2278>:
      77:	25 30 32 64 3a 25 30 32 64 3a 25 30 32 64 00        %02d:%02d:%02d.

00000086 <__c.2287>:
      86:	25 64 2e 25 64 00                                   %d.%d.

0000008c <__c.2289>:
      8c:	25 34 64 2e 25 64 00                                %4d.%d.

00000093 <__c.2310>:
      93:	25 30 34 64 2d 25 30 32 64 2d 25 30 32 64 20 25     %04d-%02d-%02d %
      a3:	73 00                                               s.

000000a5 <__c.2312>:
      a5:	25 30 32 64 3a 25 30 32 64 3a 25 30 32 64 25 00     %02d:%02d:%02d%.

000000b5 <__c.2319>:
      b5:	25 30 32 64 00                                      %02d.

000000ba <__c.2328>:
      ba:	25 30 32 64 00                                      %02d.

000000bf <__c.2351>:
      bf:	25 30 32 64 20 25 73 00                             %02d %s.

000000c7 <__c.2360>:
      c7:	25 30 32 64 00                                      %02d.

000000cc <__c.2369>:
      cc:	25 30 32 64 00                                      %02d.

000000d1 <__c.2381>:
      d1:	25 30 32 64 00                                      %02d.

000000d6 <__c.2387>:
      d6:	5b 43 6f 6e 66 69 67 5d 00                          [Config].

000000df <__c.2389>:
      df:	46 69 6c 65 20 53 61 76 65 20 45 72 72 6f 72 2e     File Save Error.
	...

000000f0 <__c.2409>:
      f0:	53 68 75 74 64 6f 77 6e 2e 2e 2e 25 64 00           Shutdown...%d.

000000fe <__c.2415>:
      fe:	ef be 83 ef be 9e ef be 9d ef be 81 20 3d 3e 20     ............ => 
     10e:	25 64 2e 25 64 56 00                                %d.%dV.

00000115 <__c.2417>:
     115:	ef bd b1 ef bd b6 ef be 99 ef bd bb 20 3d 3e 20     ............ => 
     125:	25 64 00                                            %d.

00000128 <__c.2423>:
     128:	41 56 52 20 42 61 72 6f 6d 65 74 65 72 00           AVR Barometer.

00000136 <__c.2425>:
     136:	76 30 2e 33 20 20 32 30 31 33 2f 30 33 2f 32 34     v0.3  2013/03/24
	...

00000147 <__c.2427>:
     147:	5b 4d 50 4c 31 31 35 41 32 5d 00                    [MPL115A2].

00000152 <__c.2429>:
     152:	49 6e 69 74 20 45 72 72 6f 72 21 21 00              Init Error!!.

0000015f <__c.2431>:
     15f:	5b 4d 50 4c 31 31 35 41 32 5d 00                    [MPL115A2].

0000016a <__c.2433>:
     16a:	49 6e 69 74 20 44 61 74 61 20 45 72 72 6f 72 21     Init Data Error!
	...

0000017b <__c.2438>:
     17b:	25 30 32 75 25 30 32 75 25 30 32 75 2e 4c 4f 47     %02u%02u%02u.LOG
	...

0000018c <__c.2440>:
     18c:	5b 4f 70 65 6e 20 45 52 52 4f 52 5d 00              [Open ERROR].

00000199 <__c.2442>:
     199:	5b 46 69 6c 65 20 4f 70 65 6e 65 64 21 5d 00        [File Opened!].

000001a8 <__c.2445>:
     1a8:	5b 46 49 4c 45 5d 00                                [FILE].

000001af <__c.2447>:
     1af:	53 79 6e 63 20 45 72 72 6f 72 21 21 00              Sync Error!!.

000001bc <__c.2453>:
     1bc:	5b 4c 6f 77 20 50 6f 77 65 72 5d 00                 [Low Power].

000001c8 <__c.2455>:
     1c8:	67 6f 74 6f 20 53 68 75 74 44 6f 77 6e 2e 00        goto ShutDown..

000001d7 <__c.2457>:
     1d7:	5b 46 49 4c 45 5d 00                                [FILE].

000001de <__c.2459>:
     1de:	53 79 6e 63 20 45 72 72 6f 72 21 21 00              Sync Error!!.

000001eb <__c.2462>:
     1eb:	53 68 75 74 20 44 6f 77 6e 00 00                    Shut Down..

000001f6 <__ctors_end>:
     1f6:	11 24       	eor	r1, r1
     1f8:	1f be       	out	0x3f, r1	; 63
     1fa:	cf ef       	ldi	r28, 0xFF	; 255
     1fc:	d8 e0       	ldi	r29, 0x08	; 8
     1fe:	de bf       	out	0x3e, r29	; 62
     200:	cd bf       	out	0x3d, r28	; 61

00000202 <__do_copy_data>:
     202:	11 e0       	ldi	r17, 0x01	; 1
     204:	a0 e0       	ldi	r26, 0x00	; 0
     206:	b1 e0       	ldi	r27, 0x01	; 1
     208:	e4 e2       	ldi	r30, 0x24	; 36
     20a:	ff e5       	ldi	r31, 0x5F	; 95
     20c:	02 c0       	rjmp	.+4      	; 0x212 <__do_copy_data+0x10>
     20e:	05 90       	lpm	r0, Z+
     210:	0d 92       	st	X+, r0
     212:	aa 38       	cpi	r26, 0x8A	; 138
     214:	b1 07       	cpc	r27, r17
     216:	d9 f7       	brne	.-10     	; 0x20e <__do_copy_data+0xc>

00000218 <__do_clear_bss>:
     218:	15 e0       	ldi	r17, 0x05	; 5
     21a:	aa e8       	ldi	r26, 0x8A	; 138
     21c:	b1 e0       	ldi	r27, 0x01	; 1
     21e:	01 c0       	rjmp	.+2      	; 0x222 <.do_clear_bss_start>

00000220 <.do_clear_bss_loop>:
     220:	1d 92       	st	X+, r1

00000222 <.do_clear_bss_start>:
     222:	a9 32       	cpi	r26, 0x29	; 41
     224:	b1 07       	cpc	r27, r17
     226:	e1 f7       	brne	.-8      	; 0x220 <.do_clear_bss_loop>
     228:	0e 94 92 2a 	call	0x5524	; 0x5524 <main>
     22c:	0c 94 90 2f 	jmp	0x5f20	; 0x5f20 <_exit>

00000230 <__bad_interrupt>:
     230:	0c 94 00 00 	jmp	0	; 0x0 <__vectors>

00000234 <delay_50uTimes>:
     234:	05 c0       	rjmp	.+10     	; 0x240 <delay_50uTimes+0xc>
     236:	90 e1       	ldi	r25, 0x10	; 16
     238:	9a 95       	dec	r25
     23a:	f1 f7       	brne	.-4      	; 0x238 <delay_50uTimes+0x4>
     23c:	00 c0       	rjmp	.+0      	; 0x23e <delay_50uTimes+0xa>
     23e:	81 50       	subi	r24, 0x01	; 1
     240:	88 23       	and	r24, r24
     242:	c9 f7       	brne	.-14     	; 0x236 <delay_50uTimes+0x2>
     244:	08 95       	ret

00000246 <delay_1mTimes>:
     246:	cf 93       	push	r28
     248:	c8 2f       	mov	r28, r24
     24a:	04 c0       	rjmp	.+8      	; 0x254 <delay_1mTimes+0xe>
     24c:	84 e1       	ldi	r24, 0x14	; 20
     24e:	0e 94 1a 01 	call	0x234	; 0x234 <delay_50uTimes>
     252:	c1 50       	subi	r28, 0x01	; 1
     254:	cc 23       	and	r28, r28
     256:	d1 f7       	brne	.-12     	; 0x24c <delay_1mTimes+0x6>
     258:	cf 91       	pop	r28
     25a:	08 95       	ret

0000025c <wait_ms>:
     25c:	07 c0       	rjmp	.+14     	; 0x26c <wait_ms+0x10>
     25e:	e9 ef       	ldi	r30, 0xF9	; 249
     260:	f0 e0       	ldi	r31, 0x00	; 0
     262:	31 97       	sbiw	r30, 0x01	; 1
     264:	f1 f7       	brne	.-4      	; 0x262 <wait_ms+0x6>
     266:	00 c0       	rjmp	.+0      	; 0x268 <wait_ms+0xc>
     268:	00 00       	nop
     26a:	01 97       	sbiw	r24, 0x01	; 1
     26c:	00 97       	sbiw	r24, 0x00	; 0
     26e:	b9 f7       	brne	.-18     	; 0x25e <wait_ms+0x2>
     270:	08 95       	ret

00000272 <wait_sec>:
     272:	cf 93       	push	r28
     274:	df 93       	push	r29
     276:	ec 01       	movw	r28, r24
     278:	05 c0       	rjmp	.+10     	; 0x284 <wait_sec+0x12>
     27a:	88 ee       	ldi	r24, 0xE8	; 232
     27c:	93 e0       	ldi	r25, 0x03	; 3
     27e:	0e 94 2e 01 	call	0x25c	; 0x25c <wait_ms>
     282:	21 97       	sbiw	r28, 0x01	; 1
     284:	20 97       	sbiw	r28, 0x00	; 0
     286:	c9 f7       	brne	.-14     	; 0x27a <wait_sec+0x8>
     288:	df 91       	pop	r29
     28a:	cf 91       	pop	r28
     28c:	08 95       	ret

0000028e <dec2bcd>:
     28e:	6a e0       	ldi	r22, 0x0A	; 10
     290:	0e 94 08 2f 	call	0x5e10	; 0x5e10 <__udivmodqi4>
     294:	82 95       	swap	r24
     296:	80 7f       	andi	r24, 0xF0	; 240
     298:	89 0f       	add	r24, r25
     29a:	08 95       	ret

0000029c <bcd2dec>:
     29c:	98 2f       	mov	r25, r24
     29e:	92 95       	swap	r25
     2a0:	9f 70       	andi	r25, 0x0F	; 15
     2a2:	99 0f       	add	r25, r25
     2a4:	29 2f       	mov	r18, r25
     2a6:	22 0f       	add	r18, r18
     2a8:	22 0f       	add	r18, r18
     2aa:	29 0f       	add	r18, r25
     2ac:	8f 70       	andi	r24, 0x0F	; 15
     2ae:	82 0f       	add	r24, r18
     2b0:	08 95       	ret

000002b2 <DS3231S_write_byte>:
     2b2:	1f 93       	push	r17
     2b4:	cf 93       	push	r28
     2b6:	df 93       	push	r29
     2b8:	00 d0       	rcall	.+0      	; 0x2ba <DS3231S_write_byte+0x8>
     2ba:	cd b7       	in	r28, 0x3d	; 61
     2bc:	de b7       	in	r29, 0x3e	; 62
     2be:	89 83       	std	Y+1, r24	; 0x01
     2c0:	6a 83       	std	Y+2, r22	; 0x02
     2c2:	13 e0       	ldi	r17, 0x03	; 3
     2c4:	88 e6       	ldi	r24, 0x68	; 104
     2c6:	62 e0       	ldi	r22, 0x02	; 2
     2c8:	70 e0       	ldi	r23, 0x00	; 0
     2ca:	40 e0       	ldi	r20, 0x00	; 0
     2cc:	9e 01       	movw	r18, r28
     2ce:	2f 5f       	subi	r18, 0xFF	; 255
     2d0:	3f 4f       	sbci	r19, 0xFF	; 255
     2d2:	0e 94 6c 28 	call	0x50d8	; 0x50d8 <twi_i2cWrite>
     2d6:	88 23       	and	r24, r24
     2d8:	11 f0       	breq	.+4      	; 0x2de <DS3231S_write_byte+0x2c>
     2da:	11 50       	subi	r17, 0x01	; 1
     2dc:	99 f7       	brne	.-26     	; 0x2c4 <DS3231S_write_byte+0x12>
     2de:	0f 90       	pop	r0
     2e0:	0f 90       	pop	r0
     2e2:	df 91       	pop	r29
     2e4:	cf 91       	pop	r28
     2e6:	1f 91       	pop	r17
     2e8:	08 95       	ret

000002ea <DS3231S_read_byte>:
     2ea:	1f 93       	push	r17
     2ec:	cf 93       	push	r28
     2ee:	df 93       	push	r29
     2f0:	0f 92       	push	r0
     2f2:	cd b7       	in	r28, 0x3d	; 61
     2f4:	de b7       	in	r29, 0x3e	; 62
     2f6:	89 83       	std	Y+1, r24	; 0x01
     2f8:	13 e0       	ldi	r17, 0x03	; 3
     2fa:	88 e6       	ldi	r24, 0x68	; 104
     2fc:	61 e0       	ldi	r22, 0x01	; 1
     2fe:	70 e0       	ldi	r23, 0x00	; 0
     300:	41 e0       	ldi	r20, 0x01	; 1
     302:	9e 01       	movw	r18, r28
     304:	2f 5f       	subi	r18, 0xFF	; 255
     306:	3f 4f       	sbci	r19, 0xFF	; 255
     308:	0e 94 6c 28 	call	0x50d8	; 0x50d8 <twi_i2cWrite>
     30c:	88 23       	and	r24, r24
     30e:	61 f4       	brne	.+24     	; 0x328 <DS3231S_read_byte+0x3e>
     310:	88 e6       	ldi	r24, 0x68	; 104
     312:	61 e0       	ldi	r22, 0x01	; 1
     314:	70 e0       	ldi	r23, 0x00	; 0
     316:	40 e0       	ldi	r20, 0x00	; 0
     318:	9e 01       	movw	r18, r28
     31a:	2f 5f       	subi	r18, 0xFF	; 255
     31c:	3f 4f       	sbci	r19, 0xFF	; 255
     31e:	0e 94 10 28 	call	0x5020	; 0x5020 <twi_i2cRead>
     322:	88 23       	and	r24, r24
     324:	39 f0       	breq	.+14     	; 0x334 <DS3231S_read_byte+0x4a>
     326:	8c 59       	subi	r24, 0x9C	; 156
     328:	11 50       	subi	r17, 0x01	; 1
     32a:	39 f7       	brne	.-50     	; 0x2fa <DS3231S_read_byte+0x10>
     32c:	88 23       	and	r24, r24
     32e:	11 f0       	breq	.+4      	; 0x334 <DS3231S_read_byte+0x4a>
     330:	89 81       	ldd	r24, Y+1	; 0x01
     332:	01 c0       	rjmp	.+2      	; 0x336 <DS3231S_read_byte+0x4c>
     334:	80 e0       	ldi	r24, 0x00	; 0
     336:	0f 90       	pop	r0
     338:	df 91       	pop	r29
     33a:	cf 91       	pop	r28
     33c:	1f 91       	pop	r17
     33e:	08 95       	ret

00000340 <DS3231S_now>:
     340:	ef 92       	push	r14
     342:	ff 92       	push	r15
     344:	0f 93       	push	r16
     346:	1f 93       	push	r17
     348:	cf 93       	push	r28
     34a:	df 93       	push	r29
     34c:	cd b7       	in	r28, 0x3d	; 61
     34e:	de b7       	in	r29, 0x3e	; 62
     350:	27 97       	sbiw	r28, 0x07	; 7
     352:	0f b6       	in	r0, 0x3f	; 63
     354:	f8 94       	cli
     356:	de bf       	out	0x3e, r29	; 62
     358:	0f be       	out	0x3f, r0	; 63
     35a:	cd bf       	out	0x3d, r28	; 61
     35c:	8c 01       	movw	r16, r24
     35e:	23 e0       	ldi	r18, 0x03	; 3
     360:	f2 2e       	mov	r15, r18
     362:	19 82       	std	Y+1, r1	; 0x01
     364:	88 e6       	ldi	r24, 0x68	; 104
     366:	61 e0       	ldi	r22, 0x01	; 1
     368:	70 e0       	ldi	r23, 0x00	; 0
     36a:	41 e0       	ldi	r20, 0x01	; 1
     36c:	9e 01       	movw	r18, r28
     36e:	2f 5f       	subi	r18, 0xFF	; 255
     370:	3f 4f       	sbci	r19, 0xFF	; 255
     372:	0e 94 6c 28 	call	0x50d8	; 0x50d8 <twi_i2cWrite>
     376:	e8 2e       	mov	r14, r24
     378:	88 23       	and	r24, r24
     37a:	09 f0       	breq	.+2      	; 0x37e <DS3231S_now+0x3e>
     37c:	58 c0       	rjmp	.+176    	; 0x42e <DS3231S_now+0xee>
     37e:	88 e6       	ldi	r24, 0x68	; 104
     380:	67 e0       	ldi	r22, 0x07	; 7
     382:	70 e0       	ldi	r23, 0x00	; 0
     384:	40 e0       	ldi	r20, 0x00	; 0
     386:	9e 01       	movw	r18, r28
     388:	2f 5f       	subi	r18, 0xFF	; 255
     38a:	3f 4f       	sbci	r19, 0xFF	; 255
     38c:	0e 94 10 28 	call	0x5020	; 0x5020 <twi_i2cRead>
     390:	e8 2e       	mov	r14, r24
     392:	88 23       	and	r24, r24
     394:	19 f0       	breq	.+6      	; 0x39c <DS3231S_now+0x5c>
     396:	84 e6       	ldi	r24, 0x64	; 100
     398:	e8 0e       	add	r14, r24
     39a:	49 c0       	rjmp	.+146    	; 0x42e <DS3231S_now+0xee>
     39c:	89 81       	ldd	r24, Y+1	; 0x01
     39e:	8f 77       	andi	r24, 0x7F	; 127
     3a0:	0e 94 4e 01 	call	0x29c	; 0x29c <bcd2dec>
     3a4:	f8 01       	movw	r30, r16
     3a6:	80 83       	st	Z, r24
     3a8:	8a 81       	ldd	r24, Y+2	; 0x02
     3aa:	8f 77       	andi	r24, 0x7F	; 127
     3ac:	0e 94 4e 01 	call	0x29c	; 0x29c <bcd2dec>
     3b0:	f8 01       	movw	r30, r16
     3b2:	81 83       	std	Z+1, r24	; 0x01
     3b4:	8b 81       	ldd	r24, Y+3	; 0x03
     3b6:	f8 2e       	mov	r15, r24
     3b8:	86 ff       	sbrs	r24, 6
     3ba:	0e c0       	rjmp	.+28     	; 0x3d8 <DS3231S_now+0x98>
     3bc:	8f 71       	andi	r24, 0x1F	; 31
     3be:	0e 94 4e 01 	call	0x29c	; 0x29c <bcd2dec>
     3c2:	f8 01       	movw	r30, r16
     3c4:	82 83       	std	Z+2, r24	; 0x02
     3c6:	81 e0       	ldi	r24, 0x01	; 1
     3c8:	80 87       	std	Z+8, r24	; 0x08
     3ca:	f5 fe       	sbrs	r15, 5
     3cc:	02 c0       	rjmp	.+4      	; 0x3d2 <DS3231S_now+0x92>
     3ce:	11 86       	std	Z+9, r1	; 0x09
     3d0:	09 c0       	rjmp	.+18     	; 0x3e4 <DS3231S_now+0xa4>
     3d2:	f8 01       	movw	r30, r16
     3d4:	81 87       	std	Z+9, r24	; 0x09
     3d6:	06 c0       	rjmp	.+12     	; 0x3e4 <DS3231S_now+0xa4>
     3d8:	8f 73       	andi	r24, 0x3F	; 63
     3da:	0e 94 4e 01 	call	0x29c	; 0x29c <bcd2dec>
     3de:	f8 01       	movw	r30, r16
     3e0:	82 83       	std	Z+2, r24	; 0x02
     3e2:	10 86       	std	Z+8, r1	; 0x08
     3e4:	8c 81       	ldd	r24, Y+4	; 0x04
     3e6:	87 70       	andi	r24, 0x07	; 7
     3e8:	0e 94 4e 01 	call	0x29c	; 0x29c <bcd2dec>
     3ec:	f8 01       	movw	r30, r16
     3ee:	87 83       	std	Z+7, r24	; 0x07
     3f0:	8d 81       	ldd	r24, Y+5	; 0x05
     3f2:	8f 73       	andi	r24, 0x3F	; 63
     3f4:	0e 94 4e 01 	call	0x29c	; 0x29c <bcd2dec>
     3f8:	f8 01       	movw	r30, r16
     3fa:	83 83       	std	Z+3, r24	; 0x03
     3fc:	fe 80       	ldd	r15, Y+6	; 0x06
     3fe:	8f 2d       	mov	r24, r15
     400:	8f 71       	andi	r24, 0x1F	; 31
     402:	0e 94 4e 01 	call	0x29c	; 0x29c <bcd2dec>
     406:	f8 01       	movw	r30, r16
     408:	84 83       	std	Z+4, r24	; 0x04
     40a:	8f 81       	ldd	r24, Y+7	; 0x07
     40c:	0e 94 4e 01 	call	0x29c	; 0x29c <bcd2dec>
     410:	28 2f       	mov	r18, r24
     412:	30 e0       	ldi	r19, 0x00	; 0
     414:	a9 01       	movw	r20, r18
     416:	40 53       	subi	r20, 0x30	; 48
     418:	58 4f       	sbci	r21, 0xF8	; 248
     41a:	f8 01       	movw	r30, r16
     41c:	56 83       	std	Z+6, r21	; 0x06
     41e:	45 83       	std	Z+5, r20	; 0x05
     420:	f7 fe       	sbrs	r15, 7
     422:	08 c0       	rjmp	.+16     	; 0x434 <DS3231S_now+0xf4>
     424:	2c 5c       	subi	r18, 0xCC	; 204
     426:	37 4f       	sbci	r19, 0xF7	; 247
     428:	36 83       	std	Z+6, r19	; 0x06
     42a:	25 83       	std	Z+5, r18	; 0x05
     42c:	03 c0       	rjmp	.+6      	; 0x434 <DS3231S_now+0xf4>
     42e:	fa 94       	dec	r15
     430:	09 f0       	breq	.+2      	; 0x434 <DS3231S_now+0xf4>
     432:	97 cf       	rjmp	.-210    	; 0x362 <DS3231S_now+0x22>
     434:	8e 2d       	mov	r24, r14
     436:	27 96       	adiw	r28, 0x07	; 7
     438:	0f b6       	in	r0, 0x3f	; 63
     43a:	f8 94       	cli
     43c:	de bf       	out	0x3e, r29	; 62
     43e:	0f be       	out	0x3f, r0	; 63
     440:	cd bf       	out	0x3d, r28	; 61
     442:	df 91       	pop	r29
     444:	cf 91       	pop	r28
     446:	1f 91       	pop	r17
     448:	0f 91       	pop	r16
     44a:	ff 90       	pop	r15
     44c:	ef 90       	pop	r14
     44e:	08 95       	ret

00000450 <DS3231S_adjust>:
     450:	0f 93       	push	r16
     452:	1f 93       	push	r17
     454:	cf 93       	push	r28
     456:	df 93       	push	r29
     458:	cd b7       	in	r28, 0x3d	; 61
     45a:	de b7       	in	r29, 0x3e	; 62
     45c:	28 97       	sbiw	r28, 0x08	; 8
     45e:	0f b6       	in	r0, 0x3f	; 63
     460:	f8 94       	cli
     462:	de bf       	out	0x3e, r29	; 62
     464:	0f be       	out	0x3f, r0	; 63
     466:	cd bf       	out	0x3d, r28	; 61
     468:	8c 01       	movw	r16, r24
     46a:	19 82       	std	Y+1, r1	; 0x01
     46c:	fc 01       	movw	r30, r24
     46e:	80 81       	ld	r24, Z
     470:	0e 94 47 01 	call	0x28e	; 0x28e <dec2bcd>
     474:	8a 83       	std	Y+2, r24	; 0x02
     476:	f8 01       	movw	r30, r16
     478:	81 81       	ldd	r24, Z+1	; 0x01
     47a:	0e 94 47 01 	call	0x28e	; 0x28e <dec2bcd>
     47e:	8b 83       	std	Y+3, r24	; 0x03
     480:	f8 01       	movw	r30, r16
     482:	82 81       	ldd	r24, Z+2	; 0x02
     484:	0e 94 47 01 	call	0x28e	; 0x28e <dec2bcd>
     488:	8c 83       	std	Y+4, r24	; 0x04
     48a:	f8 01       	movw	r30, r16
     48c:	90 85       	ldd	r25, Z+8	; 0x08
     48e:	99 23       	and	r25, r25
     490:	41 f0       	breq	.+16     	; 0x4a2 <DS3231S_adjust+0x52>
     492:	98 2f       	mov	r25, r24
     494:	90 64       	ori	r25, 0x40	; 64
     496:	9c 83       	std	Y+4, r25	; 0x04
     498:	91 85       	ldd	r25, Z+9	; 0x09
     49a:	99 23       	and	r25, r25
     49c:	11 f4       	brne	.+4      	; 0x4a2 <DS3231S_adjust+0x52>
     49e:	80 66       	ori	r24, 0x60	; 96
     4a0:	8c 83       	std	Y+4, r24	; 0x04
     4a2:	f8 01       	movw	r30, r16
     4a4:	87 81       	ldd	r24, Z+7	; 0x07
     4a6:	0e 94 47 01 	call	0x28e	; 0x28e <dec2bcd>
     4aa:	8d 83       	std	Y+5, r24	; 0x05
     4ac:	f8 01       	movw	r30, r16
     4ae:	83 81       	ldd	r24, Z+3	; 0x03
     4b0:	0e 94 47 01 	call	0x28e	; 0x28e <dec2bcd>
     4b4:	8e 83       	std	Y+6, r24	; 0x06
     4b6:	f8 01       	movw	r30, r16
     4b8:	84 81       	ldd	r24, Z+4	; 0x04
     4ba:	0e 94 47 01 	call	0x28e	; 0x28e <dec2bcd>
     4be:	8f 83       	std	Y+7, r24	; 0x07
     4c0:	f8 01       	movw	r30, r16
     4c2:	85 81       	ldd	r24, Z+5	; 0x05
     4c4:	80 5d       	subi	r24, 0xD0	; 208
     4c6:	0e 94 47 01 	call	0x28e	; 0x28e <dec2bcd>
     4ca:	88 87       	std	Y+8, r24	; 0x08
     4cc:	03 e0       	ldi	r16, 0x03	; 3
     4ce:	88 e6       	ldi	r24, 0x68	; 104
     4d0:	68 e0       	ldi	r22, 0x08	; 8
     4d2:	70 e0       	ldi	r23, 0x00	; 0
     4d4:	40 e0       	ldi	r20, 0x00	; 0
     4d6:	9e 01       	movw	r18, r28
     4d8:	2f 5f       	subi	r18, 0xFF	; 255
     4da:	3f 4f       	sbci	r19, 0xFF	; 255
     4dc:	0e 94 6c 28 	call	0x50d8	; 0x50d8 <twi_i2cWrite>
     4e0:	88 23       	and	r24, r24
     4e2:	19 f0       	breq	.+6      	; 0x4ea <DS3231S_adjust+0x9a>
     4e4:	8c 59       	subi	r24, 0x9C	; 156
     4e6:	01 50       	subi	r16, 0x01	; 1
     4e8:	91 f7       	brne	.-28     	; 0x4ce <DS3231S_adjust+0x7e>
     4ea:	28 96       	adiw	r28, 0x08	; 8
     4ec:	0f b6       	in	r0, 0x3f	; 63
     4ee:	f8 94       	cli
     4f0:	de bf       	out	0x3e, r29	; 62
     4f2:	0f be       	out	0x3f, r0	; 63
     4f4:	cd bf       	out	0x3d, r28	; 61
     4f6:	df 91       	pop	r29
     4f8:	cf 91       	pop	r28
     4fa:	1f 91       	pop	r17
     4fc:	0f 91       	pop	r16
     4fe:	08 95       	ret

00000500 <DS3231S_SQW_enable>:
     500:	ff 92       	push	r15
     502:	0f 93       	push	r16
     504:	1f 93       	push	r17
     506:	cf 93       	push	r28
     508:	df 93       	push	r29
     50a:	00 d0       	rcall	.+0      	; 0x50c <DS3231S_SQW_enable+0xc>
     50c:	cd b7       	in	r28, 0x3d	; 61
     50e:	de b7       	in	r29, 0x3e	; 62
     510:	08 2f       	mov	r16, r24
     512:	13 e0       	ldi	r17, 0x03	; 3
     514:	3e e0       	ldi	r19, 0x0E	; 14
     516:	f3 2e       	mov	r15, r19
     518:	f9 82       	std	Y+1, r15	; 0x01
     51a:	88 e6       	ldi	r24, 0x68	; 104
     51c:	61 e0       	ldi	r22, 0x01	; 1
     51e:	70 e0       	ldi	r23, 0x00	; 0
     520:	41 e0       	ldi	r20, 0x01	; 1
     522:	9e 01       	movw	r18, r28
     524:	2f 5f       	subi	r18, 0xFF	; 255
     526:	3f 4f       	sbci	r19, 0xFF	; 255
     528:	0e 94 6c 28 	call	0x50d8	; 0x50d8 <twi_i2cWrite>
     52c:	88 23       	and	r24, r24
     52e:	61 f4       	brne	.+24     	; 0x548 <DS3231S_SQW_enable+0x48>
     530:	88 e6       	ldi	r24, 0x68	; 104
     532:	61 e0       	ldi	r22, 0x01	; 1
     534:	70 e0       	ldi	r23, 0x00	; 0
     536:	40 e0       	ldi	r20, 0x00	; 0
     538:	9e 01       	movw	r18, r28
     53a:	2f 5f       	subi	r18, 0xFF	; 255
     53c:	3f 4f       	sbci	r19, 0xFF	; 255
     53e:	0e 94 10 28 	call	0x5020	; 0x5020 <twi_i2cRead>
     542:	88 23       	and	r24, r24
     544:	29 f0       	breq	.+10     	; 0x550 <DS3231S_SQW_enable+0x50>
     546:	8c 59       	subi	r24, 0x9C	; 156
     548:	11 50       	subi	r17, 0x01	; 1
     54a:	31 f7       	brne	.-52     	; 0x518 <DS3231S_SQW_enable+0x18>
     54c:	88 23       	and	r24, r24
     54e:	c9 f4       	brne	.+50     	; 0x582 <DS3231S_SQW_enable+0x82>
     550:	89 81       	ldd	r24, Y+1	; 0x01
     552:	00 23       	and	r16, r16
     554:	19 f0       	breq	.+6      	; 0x55c <DS3231S_SQW_enable+0x5c>
     556:	80 64       	ori	r24, 0x40	; 64
     558:	8b 7f       	andi	r24, 0xFB	; 251
     55a:	01 c0       	rjmp	.+2      	; 0x55e <DS3231S_SQW_enable+0x5e>
     55c:	8f 7b       	andi	r24, 0xBF	; 191
     55e:	8a 83       	std	Y+2, r24	; 0x02
     560:	8e e0       	ldi	r24, 0x0E	; 14
     562:	89 83       	std	Y+1, r24	; 0x01
     564:	13 e0       	ldi	r17, 0x03	; 3
     566:	88 e6       	ldi	r24, 0x68	; 104
     568:	62 e0       	ldi	r22, 0x02	; 2
     56a:	70 e0       	ldi	r23, 0x00	; 0
     56c:	40 e0       	ldi	r20, 0x00	; 0
     56e:	9e 01       	movw	r18, r28
     570:	2f 5f       	subi	r18, 0xFF	; 255
     572:	3f 4f       	sbci	r19, 0xFF	; 255
     574:	0e 94 6c 28 	call	0x50d8	; 0x50d8 <twi_i2cWrite>
     578:	88 23       	and	r24, r24
     57a:	19 f0       	breq	.+6      	; 0x582 <DS3231S_SQW_enable+0x82>
     57c:	8c 59       	subi	r24, 0x9C	; 156
     57e:	11 50       	subi	r17, 0x01	; 1
     580:	91 f7       	brne	.-28     	; 0x566 <DS3231S_SQW_enable+0x66>
     582:	0f 90       	pop	r0
     584:	0f 90       	pop	r0
     586:	df 91       	pop	r29
     588:	cf 91       	pop	r28
     58a:	1f 91       	pop	r17
     58c:	0f 91       	pop	r16
     58e:	ff 90       	pop	r15
     590:	08 95       	ret

00000592 <DS3231S_SQW_set_freq>:
     592:	ff 92       	push	r15
     594:	0f 93       	push	r16
     596:	1f 93       	push	r17
     598:	cf 93       	push	r28
     59a:	df 93       	push	r29
     59c:	00 d0       	rcall	.+0      	; 0x59e <DS3231S_SQW_set_freq+0xc>
     59e:	cd b7       	in	r28, 0x3d	; 61
     5a0:	de b7       	in	r29, 0x3e	; 62
     5a2:	08 2f       	mov	r16, r24
     5a4:	13 e0       	ldi	r17, 0x03	; 3
     5a6:	4e e0       	ldi	r20, 0x0E	; 14
     5a8:	f4 2e       	mov	r15, r20
     5aa:	f9 82       	std	Y+1, r15	; 0x01
     5ac:	88 e6       	ldi	r24, 0x68	; 104
     5ae:	61 e0       	ldi	r22, 0x01	; 1
     5b0:	70 e0       	ldi	r23, 0x00	; 0
     5b2:	41 e0       	ldi	r20, 0x01	; 1
     5b4:	9e 01       	movw	r18, r28
     5b6:	2f 5f       	subi	r18, 0xFF	; 255
     5b8:	3f 4f       	sbci	r19, 0xFF	; 255
     5ba:	0e 94 6c 28 	call	0x50d8	; 0x50d8 <twi_i2cWrite>
     5be:	88 23       	and	r24, r24
     5c0:	61 f4       	brne	.+24     	; 0x5da <DS3231S_SQW_set_freq+0x48>
     5c2:	88 e6       	ldi	r24, 0x68	; 104
     5c4:	61 e0       	ldi	r22, 0x01	; 1
     5c6:	70 e0       	ldi	r23, 0x00	; 0
     5c8:	40 e0       	ldi	r20, 0x00	; 0
     5ca:	9e 01       	movw	r18, r28
     5cc:	2f 5f       	subi	r18, 0xFF	; 255
     5ce:	3f 4f       	sbci	r19, 0xFF	; 255
     5d0:	0e 94 10 28 	call	0x5020	; 0x5020 <twi_i2cRead>
     5d4:	88 23       	and	r24, r24
     5d6:	29 f0       	breq	.+10     	; 0x5e2 <DS3231S_SQW_set_freq+0x50>
     5d8:	8c 59       	subi	r24, 0x9C	; 156
     5da:	11 50       	subi	r17, 0x01	; 1
     5dc:	31 f7       	brne	.-52     	; 0x5aa <DS3231S_SQW_set_freq+0x18>
     5de:	88 23       	and	r24, r24
     5e0:	b9 f4       	brne	.+46     	; 0x610 <DS3231S_SQW_set_freq+0x7e>
     5e2:	02 95       	swap	r16
     5e4:	00 7f       	andi	r16, 0xF0	; 240
     5e6:	89 81       	ldd	r24, Y+1	; 0x01
     5e8:	87 7e       	andi	r24, 0xE7	; 231
     5ea:	08 2b       	or	r16, r24
     5ec:	0a 83       	std	Y+2, r16	; 0x02
     5ee:	8e e0       	ldi	r24, 0x0E	; 14
     5f0:	89 83       	std	Y+1, r24	; 0x01
     5f2:	13 e0       	ldi	r17, 0x03	; 3
     5f4:	88 e6       	ldi	r24, 0x68	; 104
     5f6:	62 e0       	ldi	r22, 0x02	; 2
     5f8:	70 e0       	ldi	r23, 0x00	; 0
     5fa:	40 e0       	ldi	r20, 0x00	; 0
     5fc:	9e 01       	movw	r18, r28
     5fe:	2f 5f       	subi	r18, 0xFF	; 255
     600:	3f 4f       	sbci	r19, 0xFF	; 255
     602:	0e 94 6c 28 	call	0x50d8	; 0x50d8 <twi_i2cWrite>
     606:	88 23       	and	r24, r24
     608:	19 f0       	breq	.+6      	; 0x610 <DS3231S_SQW_set_freq+0x7e>
     60a:	8c 59       	subi	r24, 0x9C	; 156
     60c:	11 50       	subi	r17, 0x01	; 1
     60e:	91 f7       	brne	.-28     	; 0x5f4 <DS3231S_SQW_set_freq+0x62>
     610:	0f 90       	pop	r0
     612:	0f 90       	pop	r0
     614:	df 91       	pop	r29
     616:	cf 91       	pop	r28
     618:	1f 91       	pop	r17
     61a:	0f 91       	pop	r16
     61c:	ff 90       	pop	r15
     61e:	08 95       	ret

00000620 <DS3231S_osc32kHz_enable>:
     620:	ff 92       	push	r15
     622:	0f 93       	push	r16
     624:	1f 93       	push	r17
     626:	cf 93       	push	r28
     628:	df 93       	push	r29
     62a:	00 d0       	rcall	.+0      	; 0x62c <DS3231S_osc32kHz_enable+0xc>
     62c:	cd b7       	in	r28, 0x3d	; 61
     62e:	de b7       	in	r29, 0x3e	; 62
     630:	08 2f       	mov	r16, r24
     632:	13 e0       	ldi	r17, 0x03	; 3
     634:	5f e0       	ldi	r21, 0x0F	; 15
     636:	f5 2e       	mov	r15, r21
     638:	f9 82       	std	Y+1, r15	; 0x01
     63a:	88 e6       	ldi	r24, 0x68	; 104
     63c:	61 e0       	ldi	r22, 0x01	; 1
     63e:	70 e0       	ldi	r23, 0x00	; 0
     640:	41 e0       	ldi	r20, 0x01	; 1
     642:	9e 01       	movw	r18, r28
     644:	2f 5f       	subi	r18, 0xFF	; 255
     646:	3f 4f       	sbci	r19, 0xFF	; 255
     648:	0e 94 6c 28 	call	0x50d8	; 0x50d8 <twi_i2cWrite>
     64c:	88 23       	and	r24, r24
     64e:	61 f4       	brne	.+24     	; 0x668 <DS3231S_osc32kHz_enable+0x48>
     650:	88 e6       	ldi	r24, 0x68	; 104
     652:	61 e0       	ldi	r22, 0x01	; 1
     654:	70 e0       	ldi	r23, 0x00	; 0
     656:	40 e0       	ldi	r20, 0x00	; 0
     658:	9e 01       	movw	r18, r28
     65a:	2f 5f       	subi	r18, 0xFF	; 255
     65c:	3f 4f       	sbci	r19, 0xFF	; 255
     65e:	0e 94 10 28 	call	0x5020	; 0x5020 <twi_i2cRead>
     662:	88 23       	and	r24, r24
     664:	29 f0       	breq	.+10     	; 0x670 <DS3231S_osc32kHz_enable+0x50>
     666:	8c 59       	subi	r24, 0x9C	; 156
     668:	11 50       	subi	r17, 0x01	; 1
     66a:	31 f7       	brne	.-52     	; 0x638 <DS3231S_osc32kHz_enable+0x18>
     66c:	88 23       	and	r24, r24
     66e:	c1 f4       	brne	.+48     	; 0x6a0 <DS3231S_osc32kHz_enable+0x80>
     670:	89 81       	ldd	r24, Y+1	; 0x01
     672:	00 23       	and	r16, r16
     674:	11 f0       	breq	.+4      	; 0x67a <DS3231S_osc32kHz_enable+0x5a>
     676:	88 60       	ori	r24, 0x08	; 8
     678:	01 c0       	rjmp	.+2      	; 0x67c <DS3231S_osc32kHz_enable+0x5c>
     67a:	87 7f       	andi	r24, 0xF7	; 247
     67c:	8a 83       	std	Y+2, r24	; 0x02
     67e:	8f e0       	ldi	r24, 0x0F	; 15
     680:	89 83       	std	Y+1, r24	; 0x01
     682:	13 e0       	ldi	r17, 0x03	; 3
     684:	88 e6       	ldi	r24, 0x68	; 104
     686:	62 e0       	ldi	r22, 0x02	; 2
     688:	70 e0       	ldi	r23, 0x00	; 0
     68a:	40 e0       	ldi	r20, 0x00	; 0
     68c:	9e 01       	movw	r18, r28
     68e:	2f 5f       	subi	r18, 0xFF	; 255
     690:	3f 4f       	sbci	r19, 0xFF	; 255
     692:	0e 94 6c 28 	call	0x50d8	; 0x50d8 <twi_i2cWrite>
     696:	88 23       	and	r24, r24
     698:	19 f0       	breq	.+6      	; 0x6a0 <DS3231S_osc32kHz_enable+0x80>
     69a:	8c 59       	subi	r24, 0x9C	; 156
     69c:	11 50       	subi	r17, 0x01	; 1
     69e:	91 f7       	brne	.-28     	; 0x684 <DS3231S_osc32kHz_enable+0x64>
     6a0:	0f 90       	pop	r0
     6a2:	0f 90       	pop	r0
     6a4:	df 91       	pop	r29
     6a6:	cf 91       	pop	r28
     6a8:	1f 91       	pop	r17
     6aa:	0f 91       	pop	r16
     6ac:	ff 90       	pop	r15
     6ae:	08 95       	ret

000006b0 <DS3231S_reset_alarm>:
     6b0:	87 e0       	ldi	r24, 0x07	; 7
     6b2:	60 e0       	ldi	r22, 0x00	; 0
     6b4:	0e 94 59 01 	call	0x2b2	; 0x2b2 <DS3231S_write_byte>
     6b8:	88 e0       	ldi	r24, 0x08	; 8
     6ba:	60 e0       	ldi	r22, 0x00	; 0
     6bc:	0e 94 59 01 	call	0x2b2	; 0x2b2 <DS3231S_write_byte>
     6c0:	89 e0       	ldi	r24, 0x09	; 9
     6c2:	60 e0       	ldi	r22, 0x00	; 0
     6c4:	0e 94 59 01 	call	0x2b2	; 0x2b2 <DS3231S_write_byte>
     6c8:	8a e0       	ldi	r24, 0x0A	; 10
     6ca:	60 e0       	ldi	r22, 0x00	; 0
     6cc:	0e 94 59 01 	call	0x2b2	; 0x2b2 <DS3231S_write_byte>
     6d0:	08 95       	ret

000006d2 <DS3231S_set_alarm_s>:
     6d2:	cf 93       	push	r28
     6d4:	df 93       	push	r29
     6d6:	c8 2f       	mov	r28, r24
     6d8:	d6 2f       	mov	r29, r22
     6da:	84 2f       	mov	r24, r20
     6dc:	c8 31       	cpi	r28, 0x18	; 24
     6de:	18 f5       	brcc	.+70     	; 0x726 <DS3231S_set_alarm_s+0x54>
     6e0:	6c 33       	cpi	r22, 0x3C	; 60
     6e2:	08 f5       	brcc	.+66     	; 0x726 <DS3231S_set_alarm_s+0x54>
     6e4:	4c 33       	cpi	r20, 0x3C	; 60
     6e6:	f8 f4       	brcc	.+62     	; 0x726 <DS3231S_set_alarm_s+0x54>
     6e8:	0e 94 47 01 	call	0x28e	; 0x28e <dec2bcd>
     6ec:	68 2f       	mov	r22, r24
     6ee:	87 e0       	ldi	r24, 0x07	; 7
     6f0:	0e 94 59 01 	call	0x2b2	; 0x2b2 <DS3231S_write_byte>
     6f4:	8d 2f       	mov	r24, r29
     6f6:	0e 94 47 01 	call	0x28e	; 0x28e <dec2bcd>
     6fa:	68 2f       	mov	r22, r24
     6fc:	88 e0       	ldi	r24, 0x08	; 8
     6fe:	0e 94 59 01 	call	0x2b2	; 0x2b2 <DS3231S_write_byte>
     702:	8c 2f       	mov	r24, r28
     704:	0e 94 47 01 	call	0x28e	; 0x28e <dec2bcd>
     708:	68 2f       	mov	r22, r24
     70a:	89 e0       	ldi	r24, 0x09	; 9
     70c:	0e 94 59 01 	call	0x2b2	; 0x2b2 <DS3231S_write_byte>
     710:	8a e0       	ldi	r24, 0x0A	; 10
     712:	61 e8       	ldi	r22, 0x81	; 129
     714:	0e 94 59 01 	call	0x2b2	; 0x2b2 <DS3231S_write_byte>
     718:	8f e0       	ldi	r24, 0x0F	; 15
     71a:	0e 94 75 01 	call	0x2ea	; 0x2ea <DS3231S_read_byte>
     71e:	8e 7f       	andi	r24, 0xFE	; 254
     720:	6f e0       	ldi	r22, 0x0F	; 15
     722:	0e 94 59 01 	call	0x2b2	; 0x2b2 <DS3231S_write_byte>
     726:	df 91       	pop	r29
     728:	cf 91       	pop	r28
     72a:	08 95       	ret

0000072c <DS3231S_set_alarm>:
     72c:	fc 01       	movw	r30, r24
     72e:	00 97       	sbiw	r24, 0x00	; 0
     730:	29 f0       	breq	.+10     	; 0x73c <DS3231S_set_alarm+0x10>
     732:	82 81       	ldd	r24, Z+2	; 0x02
     734:	61 81       	ldd	r22, Z+1	; 0x01
     736:	40 81       	ld	r20, Z
     738:	0e 94 69 03 	call	0x6d2	; 0x6d2 <DS3231S_set_alarm_s>
     73c:	08 95       	ret

0000073e <DS3231S_get_alarm_s>:
     73e:	ef 92       	push	r14
     740:	ff 92       	push	r15
     742:	0f 93       	push	r16
     744:	1f 93       	push	r17
     746:	cf 93       	push	r28
     748:	df 93       	push	r29
     74a:	7c 01       	movw	r14, r24
     74c:	8b 01       	movw	r16, r22
     74e:	ea 01       	movw	r28, r20
     750:	87 e0       	ldi	r24, 0x07	; 7
     752:	0e 94 75 01 	call	0x2ea	; 0x2ea <DS3231S_read_byte>
     756:	8f 77       	andi	r24, 0x7F	; 127
     758:	0e 94 4e 01 	call	0x29c	; 0x29c <bcd2dec>
     75c:	88 83       	st	Y, r24
     75e:	88 e0       	ldi	r24, 0x08	; 8
     760:	0e 94 75 01 	call	0x2ea	; 0x2ea <DS3231S_read_byte>
     764:	8f 77       	andi	r24, 0x7F	; 127
     766:	0e 94 4e 01 	call	0x29c	; 0x29c <bcd2dec>
     76a:	f8 01       	movw	r30, r16
     76c:	80 83       	st	Z, r24
     76e:	89 e0       	ldi	r24, 0x09	; 9
     770:	0e 94 75 01 	call	0x2ea	; 0x2ea <DS3231S_read_byte>
     774:	8f 77       	andi	r24, 0x7F	; 127
     776:	0e 94 4e 01 	call	0x29c	; 0x29c <bcd2dec>
     77a:	f7 01       	movw	r30, r14
     77c:	80 83       	st	Z, r24
     77e:	df 91       	pop	r29
     780:	cf 91       	pop	r28
     782:	1f 91       	pop	r17
     784:	0f 91       	pop	r16
     786:	ff 90       	pop	r15
     788:	ef 90       	pop	r14
     78a:	08 95       	ret

0000078c <DS3231S_get_alarm>:
     78c:	0f 93       	push	r16
     78e:	1f 93       	push	r17
     790:	cf 93       	push	r28
     792:	df 93       	push	r29
     794:	00 d0       	rcall	.+0      	; 0x796 <DS3231S_get_alarm+0xa>
     796:	0f 92       	push	r0
     798:	cd b7       	in	r28, 0x3d	; 61
     79a:	de b7       	in	r29, 0x3e	; 62
     79c:	8c 01       	movw	r16, r24
     79e:	ce 01       	movw	r24, r28
     7a0:	03 96       	adiw	r24, 0x03	; 3
     7a2:	be 01       	movw	r22, r28
     7a4:	6e 5f       	subi	r22, 0xFE	; 254
     7a6:	7f 4f       	sbci	r23, 0xFF	; 255
     7a8:	ae 01       	movw	r20, r28
     7aa:	4f 5f       	subi	r20, 0xFF	; 255
     7ac:	5f 4f       	sbci	r21, 0xFF	; 255
     7ae:	0e 94 9f 03 	call	0x73e	; 0x73e <DS3231S_get_alarm_s>
     7b2:	8b 81       	ldd	r24, Y+3	; 0x03
     7b4:	f8 01       	movw	r30, r16
     7b6:	82 83       	std	Z+2, r24	; 0x02
     7b8:	8a 81       	ldd	r24, Y+2	; 0x02
     7ba:	81 83       	std	Z+1, r24	; 0x01
     7bc:	89 81       	ldd	r24, Y+1	; 0x01
     7be:	80 83       	st	Z, r24
     7c0:	0f 90       	pop	r0
     7c2:	0f 90       	pop	r0
     7c4:	0f 90       	pop	r0
     7c6:	df 91       	pop	r29
     7c8:	cf 91       	pop	r28
     7ca:	1f 91       	pop	r17
     7cc:	0f 91       	pop	r16
     7ce:	08 95       	ret

000007d0 <DS3231S_check_alarm>:
     7d0:	cf 93       	push	r28
     7d2:	df 93       	push	r29
     7d4:	8f e0       	ldi	r24, 0x0F	; 15
     7d6:	0e 94 75 01 	call	0x2ea	; 0x2ea <DS3231S_read_byte>
     7da:	28 2f       	mov	r18, r24
     7dc:	30 e0       	ldi	r19, 0x00	; 0
     7de:	e9 01       	movw	r28, r18
     7e0:	c1 70       	andi	r28, 0x01	; 1
     7e2:	d0 70       	andi	r29, 0x00	; 0
     7e4:	80 ff       	sbrs	r24, 0
     7e6:	05 c0       	rjmp	.+10     	; 0x7f2 <DS3231S_check_alarm+0x22>
     7e8:	68 2f       	mov	r22, r24
     7ea:	6e 7f       	andi	r22, 0xFE	; 254
     7ec:	8f e0       	ldi	r24, 0x0F	; 15
     7ee:	0e 94 59 01 	call	0x2b2	; 0x2b2 <DS3231S_write_byte>
     7f2:	8c 2f       	mov	r24, r28
     7f4:	df 91       	pop	r29
     7f6:	cf 91       	pop	r28
     7f8:	08 95       	ret

000007fa <mem_cpy>:
     7fa:	cf 93       	push	r28
     7fc:	df 93       	push	r29
     7fe:	9c 01       	movw	r18, r24
     800:	fb 01       	movw	r30, r22
     802:	dc 01       	movw	r26, r24
     804:	ca 01       	movw	r24, r20
     806:	05 c0       	rjmp	.+10     	; 0x812 <mem_cpy+0x18>
     808:	c1 91       	ld	r28, Z+
     80a:	d1 91       	ld	r29, Z+
     80c:	cd 93       	st	X+, r28
     80e:	dd 93       	st	X+, r29
     810:	02 97       	sbiw	r24, 0x02	; 2
     812:	82 30       	cpi	r24, 0x02	; 2
     814:	91 05       	cpc	r25, r1
     816:	c0 f7       	brcc	.-16     	; 0x808 <mem_cpy+0xe>
     818:	ca 01       	movw	r24, r20
     81a:	8e 7f       	andi	r24, 0xFE	; 254
     81c:	f9 01       	movw	r30, r18
     81e:	e8 0f       	add	r30, r24
     820:	f9 1f       	adc	r31, r25
     822:	86 0f       	add	r24, r22
     824:	97 1f       	adc	r25, r23
     826:	40 ff       	sbrs	r20, 0
     828:	03 c0       	rjmp	.+6      	; 0x830 <mem_cpy+0x36>
     82a:	dc 01       	movw	r26, r24
     82c:	8c 91       	ld	r24, X
     82e:	80 83       	st	Z, r24
     830:	df 91       	pop	r29
     832:	cf 91       	pop	r28
     834:	08 95       	ret

00000836 <move_window>:
     836:	6f 92       	push	r6
     838:	7f 92       	push	r7
     83a:	8f 92       	push	r8
     83c:	9f 92       	push	r9
     83e:	af 92       	push	r10
     840:	bf 92       	push	r11
     842:	cf 92       	push	r12
     844:	df 92       	push	r13
     846:	ef 92       	push	r14
     848:	ff 92       	push	r15
     84a:	0f 93       	push	r16
     84c:	1f 93       	push	r17
     84e:	cf 93       	push	r28
     850:	df 93       	push	r29
     852:	ec 01       	movw	r28, r24
     854:	4a 01       	movw	r8, r20
     856:	5b 01       	movw	r10, r22
     858:	ca a4       	lds	r28, 0xaa
     85a:	db a4       	lds	r29, 0xab
     85c:	ec a4       	lds	r30, 0xac
     85e:	fd a4       	lds	r31, 0xad
     860:	c4 16       	cp	r12, r20
     862:	d5 06       	cpc	r13, r21
     864:	e6 06       	cpc	r14, r22
     866:	f7 06       	cpc	r15, r23
     868:	09 f4       	brne	.+2      	; 0x86c <move_window+0x36>
     86a:	4c c0       	rjmp	.+152    	; 0x904 <__stack+0x5>
     86c:	8c 81       	ldd	r24, Y+4	; 0x04
     86e:	88 23       	and	r24, r24
     870:	a1 f1       	breq	.+104    	; 0x8da <move_window+0xa4>
     872:	8e e2       	ldi	r24, 0x2E	; 46
     874:	68 2e       	mov	r6, r24
     876:	71 2c       	mov	r7, r1
     878:	6c 0e       	add	r6, r28
     87a:	7d 1e       	adc	r7, r29
     87c:	89 81       	ldd	r24, Y+1	; 0x01
     87e:	b3 01       	movw	r22, r6
     880:	a7 01       	movw	r20, r14
     882:	96 01       	movw	r18, r12
     884:	01 e0       	ldi	r16, 0x01	; 1
     886:	0e 94 54 22 	call	0x44a8	; 0x44a8 <disk_write>
     88a:	88 23       	and	r24, r24
     88c:	e9 f5       	brne	.+122    	; 0x908 <__stack+0x9>
     88e:	1c 82       	std	Y+4, r1	; 0x04
     890:	8a 8d       	ldd	r24, Y+26	; 0x1a
     892:	9b 8d       	ldd	r25, Y+27	; 0x1b
     894:	ac 8d       	ldd	r26, Y+28	; 0x1c
     896:	bd 8d       	ldd	r27, Y+29	; 0x1d
     898:	4e 8d       	ldd	r20, Y+30	; 0x1e
     89a:	5f 8d       	ldd	r21, Y+31	; 0x1f
     89c:	68 a1       	lds	r22, 0x48
     89e:	79 a1       	lds	r23, 0x49
     8a0:	84 0f       	add	r24, r20
     8a2:	95 1f       	adc	r25, r21
     8a4:	a6 1f       	adc	r26, r22
     8a6:	b7 1f       	adc	r27, r23
     8a8:	c8 16       	cp	r12, r24
     8aa:	d9 06       	cpc	r13, r25
     8ac:	ea 06       	cpc	r14, r26
     8ae:	fb 06       	cpc	r15, r27
     8b0:	a0 f4       	brcc	.+40     	; 0x8da <move_window+0xa4>
     8b2:	1b 81       	ldd	r17, Y+3	; 0x03
     8b4:	10 c0       	rjmp	.+32     	; 0x8d6 <move_window+0xa0>
     8b6:	8a 8d       	ldd	r24, Y+26	; 0x1a
     8b8:	9b 8d       	ldd	r25, Y+27	; 0x1b
     8ba:	ac 8d       	ldd	r26, Y+28	; 0x1c
     8bc:	bd 8d       	ldd	r27, Y+29	; 0x1d
     8be:	c8 0e       	add	r12, r24
     8c0:	d9 1e       	adc	r13, r25
     8c2:	ea 1e       	adc	r14, r26
     8c4:	fb 1e       	adc	r15, r27
     8c6:	89 81       	ldd	r24, Y+1	; 0x01
     8c8:	b3 01       	movw	r22, r6
     8ca:	a7 01       	movw	r20, r14
     8cc:	96 01       	movw	r18, r12
     8ce:	01 e0       	ldi	r16, 0x01	; 1
     8d0:	0e 94 54 22 	call	0x44a8	; 0x44a8 <disk_write>
     8d4:	11 50       	subi	r17, 0x01	; 1
     8d6:	12 30       	cpi	r17, 0x02	; 2
     8d8:	70 f7       	brcc	.-36     	; 0x8b6 <move_window+0x80>
     8da:	81 14       	cp	r8, r1
     8dc:	91 04       	cpc	r9, r1
     8de:	a1 04       	cpc	r10, r1
     8e0:	b1 04       	cpc	r11, r1
     8e2:	81 f0       	breq	.+32     	; 0x904 <__stack+0x5>
     8e4:	be 01       	movw	r22, r28
     8e6:	62 5d       	subi	r22, 0xD2	; 210
     8e8:	7f 4f       	sbci	r23, 0xFF	; 255
     8ea:	89 81       	ldd	r24, Y+1	; 0x01
     8ec:	a5 01       	movw	r20, r10
     8ee:	94 01       	movw	r18, r8
     8f0:	01 e0       	ldi	r16, 0x01	; 1
     8f2:	0e 94 02 22 	call	0x4404	; 0x4404 <disk_read>
     8f6:	88 23       	and	r24, r24
     8f8:	39 f4       	brne	.+14     	; 0x908 <__stack+0x9>
     8fa:	8a a6       	lds	r24, 0xba
     8fc:	9b a6       	lds	r25, 0xbb
     8fe:	ac a6       	lds	r26, 0xbc
     900:	bd a6       	lds	r27, 0xbd
     902:	03 c0       	rjmp	.+6      	; 0x90a <__stack+0xb>
     904:	80 e0       	ldi	r24, 0x00	; 0
     906:	01 c0       	rjmp	.+2      	; 0x90a <__stack+0xb>
     908:	81 e0       	ldi	r24, 0x01	; 1
     90a:	df 91       	pop	r29
     90c:	cf 91       	pop	r28
     90e:	1f 91       	pop	r17
     910:	0f 91       	pop	r16
     912:	ff 90       	pop	r15
     914:	ef 90       	pop	r14
     916:	df 90       	pop	r13
     918:	cf 90       	pop	r12
     91a:	bf 90       	pop	r11
     91c:	af 90       	pop	r10
     91e:	9f 90       	pop	r9
     920:	8f 90       	pop	r8
     922:	7f 90       	pop	r7
     924:	6f 90       	pop	r6
     926:	08 95       	ret

00000928 <validate>:
     928:	fc 01       	movw	r30, r24
     92a:	00 97       	sbiw	r24, 0x00	; 0
     92c:	89 f0       	breq	.+34     	; 0x950 <validate+0x28>
     92e:	80 81       	ld	r24, Z
     930:	88 23       	and	r24, r24
     932:	71 f0       	breq	.+28     	; 0x950 <validate+0x28>
     934:	86 81       	ldd	r24, Z+6	; 0x06
     936:	97 81       	ldd	r25, Z+7	; 0x07
     938:	86 17       	cp	r24, r22
     93a:	97 07       	cpc	r25, r23
     93c:	59 f4       	brne	.+22     	; 0x954 <validate+0x2c>
     93e:	81 81       	ldd	r24, Z+1	; 0x01
     940:	0e 94 fb 21 	call	0x43f6	; 0x43f6 <disk_status>
     944:	80 ff       	sbrs	r24, 0
     946:	02 c0       	rjmp	.+4      	; 0x94c <validate+0x24>
     948:	83 e0       	ldi	r24, 0x03	; 3
     94a:	08 95       	ret
     94c:	80 e0       	ldi	r24, 0x00	; 0
     94e:	08 95       	ret
     950:	89 e0       	ldi	r24, 0x09	; 9
     952:	08 95       	ret
     954:	89 e0       	ldi	r24, 0x09	; 9
     956:	08 95       	ret

00000958 <check_fs>:
     958:	0f 93       	push	r16
     95a:	cf 93       	push	r28
     95c:	df 93       	push	r29
     95e:	ec 01       	movw	r28, r24
     960:	9a 01       	movw	r18, r20
     962:	ab 01       	movw	r20, r22
     964:	bc 01       	movw	r22, r24
     966:	62 5d       	subi	r22, 0xD2	; 210
     968:	7f 4f       	sbci	r23, 0xFF	; 255
     96a:	89 81       	ldd	r24, Y+1	; 0x01
     96c:	01 e0       	ldi	r16, 0x01	; 1
     96e:	0e 94 02 22 	call	0x4404	; 0x4404 <disk_read>
     972:	88 23       	and	r24, r24
     974:	51 f5       	brne	.+84     	; 0x9ca <check_fs+0x72>
     976:	fe 01       	movw	r30, r28
     978:	e4 5d       	subi	r30, 0xD4	; 212
     97a:	fd 4f       	sbci	r31, 0xFD	; 253
     97c:	80 81       	ld	r24, Z
     97e:	91 81       	ldd	r25, Z+1	; 0x01
     980:	2a ea       	ldi	r18, 0xAA	; 170
     982:	85 35       	cpi	r24, 0x55	; 85
     984:	92 07       	cpc	r25, r18
     986:	19 f5       	brne	.+70     	; 0x9ce <check_fs+0x76>
     988:	fe 01       	movw	r30, r28
     98a:	ec 59       	subi	r30, 0x9C	; 156
     98c:	ff 4f       	sbci	r31, 0xFF	; 255
     98e:	80 81       	ld	r24, Z
     990:	91 81       	ldd	r25, Z+1	; 0x01
     992:	a2 81       	ldd	r26, Z+2	; 0x02
     994:	b3 81       	ldd	r27, Z+3	; 0x03
     996:	b0 70       	andi	r27, 0x00	; 0
     998:	86 34       	cpi	r24, 0x46	; 70
     99a:	21 e4       	ldi	r18, 0x41	; 65
     99c:	92 07       	cpc	r25, r18
     99e:	24 e5       	ldi	r18, 0x54	; 84
     9a0:	a2 07       	cpc	r26, r18
     9a2:	20 e0       	ldi	r18, 0x00	; 0
     9a4:	b2 07       	cpc	r27, r18
     9a6:	a9 f0       	breq	.+42     	; 0x9d2 <check_fs+0x7a>
     9a8:	c0 58       	subi	r28, 0x80	; 128
     9aa:	df 4f       	sbci	r29, 0xFF	; 255
     9ac:	48 81       	ld	r20, Y
     9ae:	59 81       	ldd	r21, Y+1	; 0x01
     9b0:	6a 81       	ldd	r22, Y+2	; 0x02
     9b2:	7b 81       	ldd	r23, Y+3	; 0x03
     9b4:	70 70       	andi	r23, 0x00	; 0
     9b6:	81 e0       	ldi	r24, 0x01	; 1
     9b8:	46 34       	cpi	r20, 0x46	; 70
     9ba:	91 e4       	ldi	r25, 0x41	; 65
     9bc:	59 07       	cpc	r21, r25
     9be:	94 e5       	ldi	r25, 0x54	; 84
     9c0:	69 07       	cpc	r22, r25
     9c2:	90 e0       	ldi	r25, 0x00	; 0
     9c4:	79 07       	cpc	r23, r25
     9c6:	31 f4       	brne	.+12     	; 0x9d4 <check_fs+0x7c>
     9c8:	04 c0       	rjmp	.+8      	; 0x9d2 <check_fs+0x7a>
     9ca:	83 e0       	ldi	r24, 0x03	; 3
     9cc:	03 c0       	rjmp	.+6      	; 0x9d4 <check_fs+0x7c>
     9ce:	82 e0       	ldi	r24, 0x02	; 2
     9d0:	01 c0       	rjmp	.+2      	; 0x9d4 <check_fs+0x7c>
     9d2:	80 e0       	ldi	r24, 0x00	; 0
     9d4:	df 91       	pop	r29
     9d6:	cf 91       	pop	r28
     9d8:	0f 91       	pop	r16
     9da:	08 95       	ret

000009dc <chk_mounted>:
     9dc:	2f 92       	push	r2
     9de:	3f 92       	push	r3
     9e0:	4f 92       	push	r4
     9e2:	5f 92       	push	r5
     9e4:	6f 92       	push	r6
     9e6:	7f 92       	push	r7
     9e8:	8f 92       	push	r8
     9ea:	9f 92       	push	r9
     9ec:	af 92       	push	r10
     9ee:	bf 92       	push	r11
     9f0:	cf 92       	push	r12
     9f2:	df 92       	push	r13
     9f4:	ef 92       	push	r14
     9f6:	ff 92       	push	r15
     9f8:	0f 93       	push	r16
     9fa:	1f 93       	push	r17
     9fc:	cf 93       	push	r28
     9fe:	df 93       	push	r29
     a00:	cd b7       	in	r28, 0x3d	; 61
     a02:	de b7       	in	r29, 0x3e	; 62
     a04:	2e 97       	sbiw	r28, 0x0e	; 14
     a06:	0f b6       	in	r0, 0x3f	; 63
     a08:	f8 94       	cli
     a0a:	de bf       	out	0x3e, r29	; 62
     a0c:	0f be       	out	0x3f, r0	; 63
     a0e:	cd bf       	out	0x3d, r28	; 61
     a10:	dc 01       	movw	r26, r24
     a12:	04 2f       	mov	r16, r20
     a14:	ed 91       	ld	r30, X+
     a16:	fc 91       	ld	r31, X
     a18:	11 97       	sbiw	r26, 0x01	; 1
     a1a:	80 81       	ld	r24, Z
     a1c:	90 e0       	ldi	r25, 0x00	; 0
     a1e:	c0 97       	sbiw	r24, 0x30	; 48
     a20:	8a 30       	cpi	r24, 0x0A	; 10
     a22:	91 05       	cpc	r25, r1
     a24:	50 f4       	brcc	.+20     	; 0xa3a <chk_mounted+0x5e>
     a26:	21 81       	ldd	r18, Z+1	; 0x01
     a28:	2a 33       	cpi	r18, 0x3A	; 58
     a2a:	39 f4       	brne	.+14     	; 0xa3a <chk_mounted+0x5e>
     a2c:	32 96       	adiw	r30, 0x02	; 2
     a2e:	11 96       	adiw	r26, 0x01	; 1
     a30:	fc 93       	st	X, r31
     a32:	ee 93       	st	-X, r30
     a34:	00 97       	sbiw	r24, 0x00	; 0
     a36:	09 f0       	breq	.+2      	; 0xa3a <chk_mounted+0x5e>
     a38:	3c c2       	rjmp	.+1144   	; 0xeb2 <chk_mounted+0x4d6>
     a3a:	20 91 8a 01 	lds	r18, 0x018A
     a3e:	30 91 8b 01 	lds	r19, 0x018B
     a42:	3e 87       	std	Y+14, r19	; 0x0e
     a44:	2d 87       	std	Y+13, r18	; 0x0d
     a46:	db 01       	movw	r26, r22
     a48:	11 96       	adiw	r26, 0x01	; 1
     a4a:	3c 93       	st	X, r19
     a4c:	2e 93       	st	-X, r18
     a4e:	21 15       	cp	r18, r1
     a50:	31 05       	cpc	r19, r1
     a52:	09 f4       	brne	.+2      	; 0xa56 <chk_mounted+0x7a>
     a54:	30 c2       	rjmp	.+1120   	; 0xeb6 <chk_mounted+0x4da>
     a56:	f9 01       	movw	r30, r18
     a58:	80 81       	ld	r24, Z
     a5a:	88 23       	and	r24, r24
     a5c:	59 f0       	breq	.+22     	; 0xa74 <chk_mounted+0x98>
     a5e:	81 81       	ldd	r24, Z+1	; 0x01
     a60:	0e 94 fb 21 	call	0x43f6	; 0x43f6 <disk_status>
     a64:	80 fd       	sbrc	r24, 0
     a66:	06 c0       	rjmp	.+12     	; 0xa74 <chk_mounted+0x98>
     a68:	00 23       	and	r16, r16
     a6a:	09 f4       	brne	.+2      	; 0xa6e <chk_mounted+0x92>
     a6c:	26 c2       	rjmp	.+1100   	; 0xeba <chk_mounted+0x4de>
     a6e:	82 fd       	sbrc	r24, 2
     a70:	28 c2       	rjmp	.+1104   	; 0xec2 <chk_mounted+0x4e6>
     a72:	23 c2       	rjmp	.+1094   	; 0xeba <chk_mounted+0x4de>
     a74:	ad 85       	ldd	r26, Y+13	; 0x0d
     a76:	be 85       	ldd	r27, Y+14	; 0x0e
     a78:	1c 92       	st	X, r1
     a7a:	11 96       	adiw	r26, 0x01	; 1
     a7c:	1c 92       	st	X, r1
     a7e:	80 e0       	ldi	r24, 0x00	; 0
     a80:	0e 94 31 21 	call	0x4262	; 0x4262 <disk_initialize>
     a84:	80 fd       	sbrc	r24, 0
     a86:	1b c2       	rjmp	.+1078   	; 0xebe <chk_mounted+0x4e2>
     a88:	00 23       	and	r16, r16
     a8a:	11 f0       	breq	.+4      	; 0xa90 <chk_mounted+0xb4>
     a8c:	82 fd       	sbrc	r24, 2
     a8e:	19 c2       	rjmp	.+1074   	; 0xec2 <chk_mounted+0x4e6>
     a90:	8d 85       	ldd	r24, Y+13	; 0x0d
     a92:	9e 85       	ldd	r25, Y+14	; 0x0e
     a94:	40 e0       	ldi	r20, 0x00	; 0
     a96:	50 e0       	ldi	r21, 0x00	; 0
     a98:	ba 01       	movw	r22, r20
     a9a:	0e 94 ac 04 	call	0x958	; 0x958 <check_fs>
     a9e:	81 30       	cpi	r24, 0x01	; 1
     aa0:	f9 f4       	brne	.+62     	; 0xae0 <chk_mounted+0x104>
     aa2:	ed 85       	ldd	r30, Y+13	; 0x0d
     aa4:	fe 85       	ldd	r31, Y+14	; 0x0e
     aa6:	e0 51       	subi	r30, 0x10	; 16
     aa8:	fe 4f       	sbci	r31, 0xFE	; 254
     aaa:	80 81       	ld	r24, Z
     aac:	88 23       	and	r24, r24
     aae:	09 f4       	brne	.+2      	; 0xab2 <chk_mounted+0xd6>
     ab0:	0c c2       	rjmp	.+1048   	; 0xeca <chk_mounted+0x4ee>
     ab2:	2d 85       	ldd	r18, Y+13	; 0x0d
     ab4:	3e 85       	ldd	r19, Y+14	; 0x0e
     ab6:	2c 50       	subi	r18, 0x0C	; 12
     ab8:	3e 4f       	sbci	r19, 0xFE	; 254
     aba:	d9 01       	movw	r26, r18
     abc:	8d 91       	ld	r24, X+
     abe:	9d 91       	ld	r25, X+
     ac0:	0d 90       	ld	r0, X+
     ac2:	bc 91       	ld	r27, X
     ac4:	a0 2d       	mov	r26, r0
     ac6:	89 83       	std	Y+1, r24	; 0x01
     ac8:	9a 83       	std	Y+2, r25	; 0x02
     aca:	ab 83       	std	Y+3, r26	; 0x03
     acc:	bc 83       	std	Y+4, r27	; 0x04
     ace:	8d 85       	ldd	r24, Y+13	; 0x0d
     ad0:	9e 85       	ldd	r25, Y+14	; 0x0e
     ad2:	49 81       	ldd	r20, Y+1	; 0x01
     ad4:	5a 81       	ldd	r21, Y+2	; 0x02
     ad6:	6b 81       	ldd	r22, Y+3	; 0x03
     ad8:	7c 81       	ldd	r23, Y+4	; 0x04
     ada:	0e 94 ac 04 	call	0x958	; 0x958 <check_fs>
     ade:	04 c0       	rjmp	.+8      	; 0xae8 <chk_mounted+0x10c>
     ae0:	19 82       	std	Y+1, r1	; 0x01
     ae2:	1a 82       	std	Y+2, r1	; 0x02
     ae4:	1b 82       	std	Y+3, r1	; 0x03
     ae6:	1c 82       	std	Y+4, r1	; 0x04
     ae8:	83 30       	cpi	r24, 0x03	; 3
     aea:	09 f4       	brne	.+2      	; 0xaee <chk_mounted+0x112>
     aec:	ec c1       	rjmp	.+984    	; 0xec6 <chk_mounted+0x4ea>
     aee:	88 23       	and	r24, r24
     af0:	09 f0       	breq	.+2      	; 0xaf4 <chk_mounted+0x118>
     af2:	eb c1       	rjmp	.+982    	; 0xeca <chk_mounted+0x4ee>
     af4:	ed 85       	ldd	r30, Y+13	; 0x0d
     af6:	fe 85       	ldd	r31, Y+14	; 0x0e
     af8:	81 ad       	sts	0x61, r24
     afa:	92 ad       	sts	0x62, r25
     afc:	f2 e0       	ldi	r31, 0x02	; 2
     afe:	80 30       	cpi	r24, 0x00	; 0
     b00:	9f 07       	cpc	r25, r31
     b02:	09 f0       	breq	.+2      	; 0xb06 <chk_mounted+0x12a>
     b04:	e2 c1       	rjmp	.+964    	; 0xeca <chk_mounted+0x4ee>
     b06:	ed 85       	ldd	r30, Y+13	; 0x0d
     b08:	fe 85       	ldd	r31, Y+14	; 0x0e
     b0a:	ec 5b       	subi	r30, 0xBC	; 188
     b0c:	ff 4f       	sbci	r31, 0xFF	; 255
     b0e:	80 81       	ld	r24, Z
     b10:	91 81       	ldd	r25, Z+1	; 0x01
     b12:	9c 01       	movw	r18, r24
     b14:	40 e0       	ldi	r20, 0x00	; 0
     b16:	50 e0       	ldi	r21, 0x00	; 0
     b18:	2d 83       	std	Y+5, r18	; 0x05
     b1a:	3e 83       	std	Y+6, r19	; 0x06
     b1c:	4f 83       	std	Y+7, r20	; 0x07
     b1e:	58 87       	std	Y+8, r21	; 0x08
     b20:	21 15       	cp	r18, r1
     b22:	31 05       	cpc	r19, r1
     b24:	41 05       	cpc	r20, r1
     b26:	51 05       	cpc	r21, r1
     b28:	71 f4       	brne	.+28     	; 0xb46 <chk_mounted+0x16a>
     b2a:	2d 85       	ldd	r18, Y+13	; 0x0d
     b2c:	3e 85       	ldd	r19, Y+14	; 0x0e
     b2e:	2e 5a       	subi	r18, 0xAE	; 174
     b30:	3f 4f       	sbci	r19, 0xFF	; 255
     b32:	d9 01       	movw	r26, r18
     b34:	8d 91       	ld	r24, X+
     b36:	9d 91       	ld	r25, X+
     b38:	0d 90       	ld	r0, X+
     b3a:	bc 91       	ld	r27, X
     b3c:	a0 2d       	mov	r26, r0
     b3e:	8d 83       	std	Y+5, r24	; 0x05
     b40:	9e 83       	std	Y+6, r25	; 0x06
     b42:	af 83       	std	Y+7, r26	; 0x07
     b44:	b8 87       	std	Y+8, r27	; 0x08
     b46:	2d 81       	ldd	r18, Y+5	; 0x05
     b48:	3e 81       	ldd	r19, Y+6	; 0x06
     b4a:	4f 81       	ldd	r20, Y+7	; 0x07
     b4c:	58 85       	ldd	r21, Y+8	; 0x08
     b4e:	ad 85       	ldd	r26, Y+13	; 0x0d
     b50:	be 85       	ldd	r27, Y+14	; 0x0e
     b52:	5a 96       	adiw	r26, 0x1a	; 26
     b54:	2d 93       	st	X+, r18
     b56:	3d 93       	st	X+, r19
     b58:	4d 93       	st	X+, r20
     b5a:	5c 93       	st	X, r21
     b5c:	5d 97       	sbiw	r26, 0x1d	; 29
     b5e:	de 96       	adiw	r26, 0x3e	; 62
     b60:	4c 91       	ld	r20, X
     b62:	de 97       	sbiw	r26, 0x3e	; 62
     b64:	13 96       	adiw	r26, 0x03	; 3
     b66:	4c 93       	st	X, r20
     b68:	13 97       	sbiw	r26, 0x03	; 3
     b6a:	84 2f       	mov	r24, r20
     b6c:	81 50       	subi	r24, 0x01	; 1
     b6e:	82 30       	cpi	r24, 0x02	; 2
     b70:	08 f0       	brcs	.+2      	; 0xb74 <chk_mounted+0x198>
     b72:	ab c1       	rjmp	.+854    	; 0xeca <chk_mounted+0x4ee>
     b74:	db 96       	adiw	r26, 0x3b	; 59
     b76:	0c 91       	ld	r16, X
     b78:	db 97       	sbiw	r26, 0x3b	; 59
     b7a:	12 96       	adiw	r26, 0x02	; 2
     b7c:	0c 93       	st	X, r16
     b7e:	12 97       	sbiw	r26, 0x02	; 2
     b80:	00 23       	and	r16, r16
     b82:	09 f4       	brne	.+2      	; 0xb86 <chk_mounted+0x1aa>
     b84:	a2 c1       	rjmp	.+836    	; 0xeca <chk_mounted+0x4ee>
     b86:	20 2f       	mov	r18, r16
     b88:	30 e0       	ldi	r19, 0x00	; 0
     b8a:	c9 01       	movw	r24, r18
     b8c:	01 97       	sbiw	r24, 0x01	; 1
     b8e:	82 23       	and	r24, r18
     b90:	93 23       	and	r25, r19
     b92:	00 97       	sbiw	r24, 0x00	; 0
     b94:	09 f0       	breq	.+2      	; 0xb98 <chk_mounted+0x1bc>
     b96:	99 c1       	rjmp	.+818    	; 0xeca <chk_mounted+0x4ee>
     b98:	fd 01       	movw	r30, r26
     b9a:	ff 96       	adiw	r30, 0x3f	; 63
     b9c:	20 80       	ld	r2, Z
     b9e:	31 80       	ldd	r3, Z+1	; 0x01
     ba0:	19 96       	adiw	r26, 0x09	; 9
     ba2:	3c 92       	st	X, r3
     ba4:	2e 92       	st	-X, r2
     ba6:	18 97       	sbiw	r26, 0x08	; 8
     ba8:	c1 01       	movw	r24, r2
     baa:	8f 70       	andi	r24, 0x0F	; 15
     bac:	90 70       	andi	r25, 0x00	; 0
     bae:	00 97       	sbiw	r24, 0x00	; 0
     bb0:	09 f0       	breq	.+2      	; 0xbb4 <chk_mounted+0x1d8>
     bb2:	8b c1       	rjmp	.+790    	; 0xeca <chk_mounted+0x4ee>
     bb4:	fd 01       	movw	r30, r26
     bb6:	ef 5b       	subi	r30, 0xBF	; 191
     bb8:	ff 4f       	sbci	r31, 0xFF	; 255
     bba:	80 80       	ld	r8, Z
     bbc:	91 80       	ldd	r9, Z+1	; 0x01
     bbe:	aa 24       	eor	r10, r10
     bc0:	bb 24       	eor	r11, r11
     bc2:	81 14       	cp	r8, r1
     bc4:	91 04       	cpc	r9, r1
     bc6:	a1 04       	cpc	r10, r1
     bc8:	b1 04       	cpc	r11, r1
     bca:	39 f4       	brne	.+14     	; 0xbda <chk_mounted+0x1fe>
     bcc:	fd 01       	movw	r30, r26
     bce:	e2 5b       	subi	r30, 0xB2	; 178
     bd0:	ff 4f       	sbci	r31, 0xFF	; 255
     bd2:	80 80       	ld	r8, Z
     bd4:	91 80       	ldd	r9, Z+1	; 0x01
     bd6:	a2 80       	ldd	r10, Z+2	; 0x02
     bd8:	b3 80       	ldd	r11, Z+3	; 0x03
     bda:	ed 85       	ldd	r30, Y+13	; 0x0d
     bdc:	fe 85       	ldd	r31, Y+14	; 0x0e
     bde:	c4 ac       	sts	0xa4, r28
     be0:	d5 ac       	sts	0xa5, r29
     be2:	c1 14       	cp	r12, r1
     be4:	d1 04       	cpc	r13, r1
     be6:	09 f4       	brne	.+2      	; 0xbea <chk_mounted+0x20e>
     be8:	70 c1       	rjmp	.+736    	; 0xeca <chk_mounted+0x4ee>
     bea:	24 2f       	mov	r18, r20
     bec:	30 e0       	ldi	r19, 0x00	; 0
     bee:	40 e0       	ldi	r20, 0x00	; 0
     bf0:	50 e0       	ldi	r21, 0x00	; 0
     bf2:	6d 81       	ldd	r22, Y+5	; 0x05
     bf4:	7e 81       	ldd	r23, Y+6	; 0x06
     bf6:	8f 81       	ldd	r24, Y+7	; 0x07
     bf8:	98 85       	ldd	r25, Y+8	; 0x08
     bfa:	0e 94 e9 2e 	call	0x5dd2	; 0x5dd2 <__mulsi3>
     bfe:	69 87       	std	Y+9, r22	; 0x09
     c00:	7a 87       	std	Y+10, r23	; 0x0a
     c02:	8b 87       	std	Y+11, r24	; 0x0b
     c04:	9c 87       	std	Y+12, r25	; 0x0c
     c06:	26 01       	movw	r4, r12
     c08:	66 24       	eor	r6, r6
     c0a:	77 24       	eor	r7, r7
     c0c:	61 01       	movw	r12, r2
     c0e:	e4 e0       	ldi	r30, 0x04	; 4
     c10:	d6 94       	lsr	r13
     c12:	c7 94       	ror	r12
     c14:	ea 95       	dec	r30
     c16:	e1 f7       	brne	.-8      	; 0xc10 <chk_mounted+0x234>
     c18:	ee 24       	eor	r14, r14
     c1a:	ff 24       	eor	r15, r15
     c1c:	c4 0c       	add	r12, r4
     c1e:	d5 1c       	adc	r13, r5
     c20:	e6 1c       	adc	r14, r6
     c22:	f7 1c       	adc	r15, r7
     c24:	c6 0e       	add	r12, r22
     c26:	d7 1e       	adc	r13, r23
     c28:	e8 1e       	adc	r14, r24
     c2a:	f9 1e       	adc	r15, r25
     c2c:	8c 14       	cp	r8, r12
     c2e:	9d 04       	cpc	r9, r13
     c30:	ae 04       	cpc	r10, r14
     c32:	bf 04       	cpc	r11, r15
     c34:	08 f4       	brcc	.+2      	; 0xc38 <chk_mounted+0x25c>
     c36:	49 c1       	rjmp	.+658    	; 0xeca <chk_mounted+0x4ee>
     c38:	c5 01       	movw	r24, r10
     c3a:	b4 01       	movw	r22, r8
     c3c:	6c 19       	sub	r22, r12
     c3e:	7d 09       	sbc	r23, r13
     c40:	8e 09       	sbc	r24, r14
     c42:	9f 09       	sbc	r25, r15
     c44:	20 2f       	mov	r18, r16
     c46:	30 e0       	ldi	r19, 0x00	; 0
     c48:	40 e0       	ldi	r20, 0x00	; 0
     c4a:	50 e0       	ldi	r21, 0x00	; 0
     c4c:	0e 94 3b 2f 	call	0x5e76	; 0x5e76 <__udivmodsi4>
     c50:	89 01       	movw	r16, r18
     c52:	9a 01       	movw	r18, r20
     c54:	01 15       	cp	r16, r1
     c56:	11 05       	cpc	r17, r1
     c58:	21 05       	cpc	r18, r1
     c5a:	31 05       	cpc	r19, r1
     c5c:	09 f4       	brne	.+2      	; 0xc60 <chk_mounted+0x284>
     c5e:	35 c1       	rjmp	.+618    	; 0xeca <chk_mounted+0x4ee>
     c60:	06 3f       	cpi	r16, 0xF6	; 246
     c62:	ff e0       	ldi	r31, 0x0F	; 15
     c64:	1f 07       	cpc	r17, r31
     c66:	f0 e0       	ldi	r31, 0x00	; 0
     c68:	2f 07       	cpc	r18, r31
     c6a:	f0 e0       	ldi	r31, 0x00	; 0
     c6c:	3f 07       	cpc	r19, r31
     c6e:	58 f0       	brcs	.+22     	; 0xc86 <chk_mounted+0x2aa>
     c70:	06 3f       	cpi	r16, 0xF6	; 246
     c72:	4f ef       	ldi	r20, 0xFF	; 255
     c74:	14 07       	cpc	r17, r20
     c76:	40 e0       	ldi	r20, 0x00	; 0
     c78:	24 07       	cpc	r18, r20
     c7a:	40 e0       	ldi	r20, 0x00	; 0
     c7c:	34 07       	cpc	r19, r20
     c7e:	30 f4       	brcc	.+12     	; 0xc8c <chk_mounted+0x2b0>
     c80:	62 e0       	ldi	r22, 0x02	; 2
     c82:	86 2e       	mov	r8, r22
     c84:	05 c0       	rjmp	.+10     	; 0xc90 <chk_mounted+0x2b4>
     c86:	88 24       	eor	r8, r8
     c88:	83 94       	inc	r8
     c8a:	02 c0       	rjmp	.+4      	; 0xc90 <chk_mounted+0x2b4>
     c8c:	53 e0       	ldi	r21, 0x03	; 3
     c8e:	85 2e       	mov	r8, r21
     c90:	0e 5f       	subi	r16, 0xFE	; 254
     c92:	1f 4f       	sbci	r17, 0xFF	; 255
     c94:	2f 4f       	sbci	r18, 0xFF	; 255
     c96:	3f 4f       	sbci	r19, 0xFF	; 255
     c98:	ad 85       	ldd	r26, Y+13	; 0x0d
     c9a:	be 85       	ldd	r27, Y+14	; 0x0e
     c9c:	56 96       	adiw	r26, 0x16	; 22
     c9e:	0d 93       	st	X+, r16
     ca0:	1d 93       	st	X+, r17
     ca2:	2d 93       	st	X+, r18
     ca4:	3c 93       	st	X, r19
     ca6:	59 97       	sbiw	r26, 0x19	; 25
     ca8:	89 81       	ldd	r24, Y+1	; 0x01
     caa:	9a 81       	ldd	r25, Y+2	; 0x02
     cac:	ab 81       	ldd	r26, Y+3	; 0x03
     cae:	bc 81       	ldd	r27, Y+4	; 0x04
     cb0:	8c 0d       	add	r24, r12
     cb2:	9d 1d       	adc	r25, r13
     cb4:	ae 1d       	adc	r26, r14
     cb6:	bf 1d       	adc	r27, r15
     cb8:	ed 85       	ldd	r30, Y+13	; 0x0d
     cba:	fe 85       	ldd	r31, Y+14	; 0x0e
     cbc:	86 a3       	lds	r24, 0x56
     cbe:	97 a3       	lds	r25, 0x57
     cc0:	a0 a7       	lds	r26, 0x70
     cc2:	b1 a7       	lds	r27, 0x71
     cc4:	49 81       	ldd	r20, Y+1	; 0x01
     cc6:	5a 81       	ldd	r21, Y+2	; 0x02
     cc8:	6b 81       	ldd	r22, Y+3	; 0x03
     cca:	7c 81       	ldd	r23, Y+4	; 0x04
     ccc:	44 0d       	add	r20, r4
     cce:	55 1d       	adc	r21, r5
     cd0:	66 1d       	adc	r22, r6
     cd2:	77 1d       	adc	r23, r7
     cd4:	46 8f       	std	Z+30, r20	; 0x1e
     cd6:	57 8f       	std	Z+31, r21	; 0x1f
     cd8:	60 a3       	lds	r22, 0x50
     cda:	71 a3       	lds	r23, 0x51
     cdc:	b3 e0       	ldi	r27, 0x03	; 3
     cde:	8b 16       	cp	r8, r27
     ce0:	d1 f4       	brne	.+52     	; 0xd16 <chk_mounted+0x33a>
     ce2:	21 14       	cp	r2, r1
     ce4:	31 04       	cpc	r3, r1
     ce6:	09 f0       	breq	.+2      	; 0xcea <chk_mounted+0x30e>
     ce8:	f0 c0       	rjmp	.+480    	; 0xeca <chk_mounted+0x4ee>
     cea:	e6 5a       	subi	r30, 0xA6	; 166
     cec:	ff 4f       	sbci	r31, 0xFF	; 255
     cee:	80 81       	ld	r24, Z
     cf0:	91 81       	ldd	r25, Z+1	; 0x01
     cf2:	a2 81       	ldd	r26, Z+2	; 0x02
     cf4:	b3 81       	ldd	r27, Z+3	; 0x03
     cf6:	ed 85       	ldd	r30, Y+13	; 0x0d
     cf8:	fe 85       	ldd	r31, Y+14	; 0x0e
     cfa:	82 a3       	lds	r24, 0x52
     cfc:	93 a3       	lds	r25, 0x53
     cfe:	a4 a3       	lds	r26, 0x54
     d00:	b5 a3       	lds	r27, 0x55
     d02:	d9 01       	movw	r26, r18
     d04:	c8 01       	movw	r24, r16
     d06:	42 e0       	ldi	r20, 0x02	; 2
     d08:	88 0f       	add	r24, r24
     d0a:	99 1f       	adc	r25, r25
     d0c:	aa 1f       	adc	r26, r26
     d0e:	bb 1f       	adc	r27, r27
     d10:	4a 95       	dec	r20
     d12:	d1 f7       	brne	.-12     	; 0xd08 <chk_mounted+0x32c>
     d14:	2b c0       	rjmp	.+86     	; 0xd6c <chk_mounted+0x390>
     d16:	21 14       	cp	r2, r1
     d18:	31 04       	cpc	r3, r1
     d1a:	09 f4       	brne	.+2      	; 0xd1e <chk_mounted+0x342>
     d1c:	d6 c0       	rjmp	.+428    	; 0xeca <chk_mounted+0x4ee>
     d1e:	89 85       	ldd	r24, Y+9	; 0x09
     d20:	9a 85       	ldd	r25, Y+10	; 0x0a
     d22:	ab 85       	ldd	r26, Y+11	; 0x0b
     d24:	bc 85       	ldd	r27, Y+12	; 0x0c
     d26:	84 0f       	add	r24, r20
     d28:	95 1f       	adc	r25, r21
     d2a:	a6 1f       	adc	r26, r22
     d2c:	b7 1f       	adc	r27, r23
     d2e:	ed 85       	ldd	r30, Y+13	; 0x0d
     d30:	fe 85       	ldd	r31, Y+14	; 0x0e
     d32:	82 a3       	lds	r24, 0x52
     d34:	93 a3       	lds	r25, 0x53
     d36:	a4 a3       	lds	r26, 0x54
     d38:	b5 a3       	lds	r27, 0x55
     d3a:	d9 01       	movw	r26, r18
     d3c:	c8 01       	movw	r24, r16
     d3e:	88 0f       	add	r24, r24
     d40:	99 1f       	adc	r25, r25
     d42:	aa 1f       	adc	r26, r26
     d44:	bb 1f       	adc	r27, r27
     d46:	f2 e0       	ldi	r31, 0x02	; 2
     d48:	8f 16       	cp	r8, r31
     d4a:	81 f0       	breq	.+32     	; 0xd6c <chk_mounted+0x390>
     d4c:	80 0f       	add	r24, r16
     d4e:	91 1f       	adc	r25, r17
     d50:	a2 1f       	adc	r26, r18
     d52:	b3 1f       	adc	r27, r19
     d54:	b6 95       	lsr	r27
     d56:	a7 95       	ror	r26
     d58:	97 95       	ror	r25
     d5a:	87 95       	ror	r24
     d5c:	01 70       	andi	r16, 0x01	; 1
     d5e:	10 70       	andi	r17, 0x00	; 0
     d60:	20 70       	andi	r18, 0x00	; 0
     d62:	30 70       	andi	r19, 0x00	; 0
     d64:	80 0f       	add	r24, r16
     d66:	91 1f       	adc	r25, r17
     d68:	a2 1f       	adc	r26, r18
     d6a:	b3 1f       	adc	r27, r19
     d6c:	81 50       	subi	r24, 0x01	; 1
     d6e:	9e 4f       	sbci	r25, 0xFE	; 254
     d70:	af 4f       	sbci	r26, 0xFF	; 255
     d72:	bf 4f       	sbci	r27, 0xFF	; 255
     d74:	29 e0       	ldi	r18, 0x09	; 9
     d76:	b6 95       	lsr	r27
     d78:	a7 95       	ror	r26
     d7a:	97 95       	ror	r25
     d7c:	87 95       	ror	r24
     d7e:	2a 95       	dec	r18
     d80:	d1 f7       	brne	.-12     	; 0xd76 <chk_mounted+0x39a>
     d82:	2d 81       	ldd	r18, Y+5	; 0x05
     d84:	3e 81       	ldd	r19, Y+6	; 0x06
     d86:	4f 81       	ldd	r20, Y+7	; 0x07
     d88:	58 85       	ldd	r21, Y+8	; 0x08
     d8a:	28 17       	cp	r18, r24
     d8c:	39 07       	cpc	r19, r25
     d8e:	4a 07       	cpc	r20, r26
     d90:	5b 07       	cpc	r21, r27
     d92:	08 f4       	brcc	.+2      	; 0xd96 <chk_mounted+0x3ba>
     d94:	9a c0       	rjmp	.+308    	; 0xeca <chk_mounted+0x4ee>
     d96:	8f ef       	ldi	r24, 0xFF	; 255
     d98:	9f ef       	ldi	r25, 0xFF	; 255
     d9a:	dc 01       	movw	r26, r24
     d9c:	ed 85       	ldd	r30, Y+13	; 0x0d
     d9e:	fe 85       	ldd	r31, Y+14	; 0x0e
     da0:	86 87       	std	Z+14, r24	; 0x0e
     da2:	97 87       	std	Z+15, r25	; 0x0f
     da4:	a0 8b       	std	Z+16, r26	; 0x10
     da6:	b1 8b       	std	Z+17, r27	; 0x11
     da8:	12 86       	std	Z+10, r1	; 0x0a
     daa:	13 86       	std	Z+11, r1	; 0x0b
     dac:	14 86       	std	Z+12, r1	; 0x0c
     dae:	15 86       	std	Z+13, r1	; 0x0d
     db0:	b3 e0       	ldi	r27, 0x03	; 3
     db2:	8b 16       	cp	r8, r27
     db4:	09 f0       	breq	.+2      	; 0xdb8 <chk_mounted+0x3dc>
     db6:	66 c0       	rjmp	.+204    	; 0xe84 <chk_mounted+0x4a8>
     db8:	15 82       	std	Z+5, r1	; 0x05
     dba:	e2 5a       	subi	r30, 0xA2	; 162
     dbc:	ff 4f       	sbci	r31, 0xFF	; 255
     dbe:	00 81       	ld	r16, Z
     dc0:	11 81       	ldd	r17, Z+1	; 0x01
     dc2:	20 e0       	ldi	r18, 0x00	; 0
     dc4:	30 e0       	ldi	r19, 0x00	; 0
     dc6:	89 81       	ldd	r24, Y+1	; 0x01
     dc8:	9a 81       	ldd	r25, Y+2	; 0x02
     dca:	ab 81       	ldd	r26, Y+3	; 0x03
     dcc:	bc 81       	ldd	r27, Y+4	; 0x04
     dce:	08 0f       	add	r16, r24
     dd0:	19 1f       	adc	r17, r25
     dd2:	2a 1f       	adc	r18, r26
     dd4:	3b 1f       	adc	r19, r27
     dd6:	ad 85       	ldd	r26, Y+13	; 0x0d
     dd8:	be 85       	ldd	r27, Y+14	; 0x0e
     dda:	52 96       	adiw	r26, 0x12	; 18
     ddc:	0d 93       	st	X+, r16
     dde:	1d 93       	st	X+, r17
     de0:	2d 93       	st	X+, r18
     de2:	3c 93       	st	X, r19
     de4:	55 97       	sbiw	r26, 0x15	; 21
     de6:	bd 01       	movw	r22, r26
     de8:	62 5d       	subi	r22, 0xD2	; 210
     dea:	7f 4f       	sbci	r23, 0xFF	; 255
     dec:	11 96       	adiw	r26, 0x01	; 1
     dee:	8c 91       	ld	r24, X
     df0:	a9 01       	movw	r20, r18
     df2:	98 01       	movw	r18, r16
     df4:	01 e0       	ldi	r16, 0x01	; 1
     df6:	0e 94 02 22 	call	0x4404	; 0x4404 <disk_read>
     dfa:	88 23       	and	r24, r24
     dfc:	09 f0       	breq	.+2      	; 0xe00 <chk_mounted+0x424>
     dfe:	42 c0       	rjmp	.+132    	; 0xe84 <chk_mounted+0x4a8>
     e00:	ed 85       	ldd	r30, Y+13	; 0x0d
     e02:	fe 85       	ldd	r31, Y+14	; 0x0e
     e04:	e4 5d       	subi	r30, 0xD4	; 212
     e06:	fd 4f       	sbci	r31, 0xFD	; 253
     e08:	80 81       	ld	r24, Z
     e0a:	91 81       	ldd	r25, Z+1	; 0x01
     e0c:	ba ea       	ldi	r27, 0xAA	; 170
     e0e:	85 35       	cpi	r24, 0x55	; 85
     e10:	9b 07       	cpc	r25, r27
     e12:	c1 f5       	brne	.+112    	; 0xe84 <chk_mounted+0x4a8>
     e14:	ed 85       	ldd	r30, Y+13	; 0x0d
     e16:	fe 85       	ldd	r31, Y+14	; 0x0e
     e18:	86 a5       	lds	r24, 0x66
     e1a:	97 a5       	lds	r25, 0x67
     e1c:	a0 a9       	sts	0x40, r26
     e1e:	b1 a9       	sts	0x41, r27
     e20:	82 35       	cpi	r24, 0x52	; 82
     e22:	f2 e5       	ldi	r31, 0x52	; 82
     e24:	9f 07       	cpc	r25, r31
     e26:	f1 e6       	ldi	r31, 0x61	; 97
     e28:	af 07       	cpc	r26, r31
     e2a:	f1 e4       	ldi	r31, 0x41	; 65
     e2c:	bf 07       	cpc	r27, r31
     e2e:	51 f5       	brne	.+84     	; 0xe84 <chk_mounted+0x4a8>
     e30:	ed 85       	ldd	r30, Y+13	; 0x0d
     e32:	fe 85       	ldd	r31, Y+14	; 0x0e
     e34:	ee 5e       	subi	r30, 0xEE	; 238
     e36:	fd 4f       	sbci	r31, 0xFD	; 253
     e38:	80 81       	ld	r24, Z
     e3a:	91 81       	ldd	r25, Z+1	; 0x01
     e3c:	a2 81       	ldd	r26, Z+2	; 0x02
     e3e:	b3 81       	ldd	r27, Z+3	; 0x03
     e40:	82 37       	cpi	r24, 0x72	; 114
     e42:	22 e7       	ldi	r18, 0x72	; 114
     e44:	92 07       	cpc	r25, r18
     e46:	21 e4       	ldi	r18, 0x41	; 65
     e48:	a2 07       	cpc	r26, r18
     e4a:	21 e6       	ldi	r18, 0x61	; 97
     e4c:	b2 07       	cpc	r27, r18
     e4e:	d1 f4       	brne	.+52     	; 0xe84 <chk_mounted+0x4a8>
     e50:	ed 85       	ldd	r30, Y+13	; 0x0d
     e52:	fe 85       	ldd	r31, Y+14	; 0x0e
     e54:	e6 5e       	subi	r30, 0xE6	; 230
     e56:	fd 4f       	sbci	r31, 0xFD	; 253
     e58:	80 81       	ld	r24, Z
     e5a:	91 81       	ldd	r25, Z+1	; 0x01
     e5c:	a2 81       	ldd	r26, Z+2	; 0x02
     e5e:	b3 81       	ldd	r27, Z+3	; 0x03
     e60:	ed 85       	ldd	r30, Y+13	; 0x0d
     e62:	fe 85       	ldd	r31, Y+14	; 0x0e
     e64:	82 87       	std	Z+10, r24	; 0x0a
     e66:	93 87       	std	Z+11, r25	; 0x0b
     e68:	a4 87       	std	Z+12, r26	; 0x0c
     e6a:	b5 87       	std	Z+13, r27	; 0x0d
     e6c:	ea 5e       	subi	r30, 0xEA	; 234
     e6e:	fd 4f       	sbci	r31, 0xFD	; 253
     e70:	80 81       	ld	r24, Z
     e72:	91 81       	ldd	r25, Z+1	; 0x01
     e74:	a2 81       	ldd	r26, Z+2	; 0x02
     e76:	b3 81       	ldd	r27, Z+3	; 0x03
     e78:	ed 85       	ldd	r30, Y+13	; 0x0d
     e7a:	fe 85       	ldd	r31, Y+14	; 0x0e
     e7c:	86 87       	std	Z+14, r24	; 0x0e
     e7e:	97 87       	std	Z+15, r25	; 0x0f
     e80:	a0 8b       	std	Z+16, r26	; 0x10
     e82:	b1 8b       	std	Z+17, r27	; 0x11
     e84:	ad 85       	ldd	r26, Y+13	; 0x0d
     e86:	be 85       	ldd	r27, Y+14	; 0x0e
     e88:	8c 92       	st	X, r8
     e8a:	80 91 8c 01 	lds	r24, 0x018C
     e8e:	90 91 8d 01 	lds	r25, 0x018D
     e92:	01 96       	adiw	r24, 0x01	; 1
     e94:	90 93 8d 01 	sts	0x018D, r25
     e98:	80 93 8c 01 	sts	0x018C, r24
     e9c:	17 96       	adiw	r26, 0x07	; 7
     e9e:	9c 93       	st	X, r25
     ea0:	8e 93       	st	-X, r24
     ea2:	16 97       	sbiw	r26, 0x06	; 6
     ea4:	fd 01       	movw	r30, r26
     ea6:	12 a6       	lds	r17, 0xb2
     ea8:	13 a6       	lds	r17, 0xb3
     eaa:	14 a6       	lds	r17, 0xb4
     eac:	15 a6       	lds	r17, 0xb5
     eae:	14 82       	std	Z+4, r1	; 0x04
     eb0:	04 c0       	rjmp	.+8      	; 0xeba <chk_mounted+0x4de>
     eb2:	8b e0       	ldi	r24, 0x0B	; 11
     eb4:	0b c0       	rjmp	.+22     	; 0xecc <chk_mounted+0x4f0>
     eb6:	8c e0       	ldi	r24, 0x0C	; 12
     eb8:	09 c0       	rjmp	.+18     	; 0xecc <chk_mounted+0x4f0>
     eba:	80 e0       	ldi	r24, 0x00	; 0
     ebc:	07 c0       	rjmp	.+14     	; 0xecc <chk_mounted+0x4f0>
     ebe:	83 e0       	ldi	r24, 0x03	; 3
     ec0:	05 c0       	rjmp	.+10     	; 0xecc <chk_mounted+0x4f0>
     ec2:	8a e0       	ldi	r24, 0x0A	; 10
     ec4:	03 c0       	rjmp	.+6      	; 0xecc <chk_mounted+0x4f0>
     ec6:	81 e0       	ldi	r24, 0x01	; 1
     ec8:	01 c0       	rjmp	.+2      	; 0xecc <chk_mounted+0x4f0>
     eca:	8d e0       	ldi	r24, 0x0D	; 13
     ecc:	2e 96       	adiw	r28, 0x0e	; 14
     ece:	0f b6       	in	r0, 0x3f	; 63
     ed0:	f8 94       	cli
     ed2:	de bf       	out	0x3e, r29	; 62
     ed4:	0f be       	out	0x3f, r0	; 63
     ed6:	cd bf       	out	0x3d, r28	; 61
     ed8:	df 91       	pop	r29
     eda:	cf 91       	pop	r28
     edc:	1f 91       	pop	r17
     ede:	0f 91       	pop	r16
     ee0:	ff 90       	pop	r15
     ee2:	ef 90       	pop	r14
     ee4:	df 90       	pop	r13
     ee6:	cf 90       	pop	r12
     ee8:	bf 90       	pop	r11
     eea:	af 90       	pop	r10
     eec:	9f 90       	pop	r9
     eee:	8f 90       	pop	r8
     ef0:	7f 90       	pop	r7
     ef2:	6f 90       	pop	r6
     ef4:	5f 90       	pop	r5
     ef6:	4f 90       	pop	r4
     ef8:	3f 90       	pop	r3
     efa:	2f 90       	pop	r2
     efc:	08 95       	ret

00000efe <clust2sect>:
     efe:	0f 93       	push	r16
     f00:	1f 93       	push	r17
     f02:	cf 93       	push	r28
     f04:	df 93       	push	r29
     f06:	ec 01       	movw	r28, r24
     f08:	db 01       	movw	r26, r22
     f0a:	ca 01       	movw	r24, r20
     f0c:	02 97       	sbiw	r24, 0x02	; 2
     f0e:	a1 09       	sbc	r26, r1
     f10:	b1 09       	sbc	r27, r1
     f12:	4e 89       	ldd	r20, Y+22	; 0x16
     f14:	5f 89       	ldd	r21, Y+23	; 0x17
     f16:	68 8d       	ldd	r22, Y+24	; 0x18
     f18:	79 8d       	ldd	r23, Y+25	; 0x19
     f1a:	42 50       	subi	r20, 0x02	; 2
     f1c:	50 40       	sbci	r21, 0x00	; 0
     f1e:	60 40       	sbci	r22, 0x00	; 0
     f20:	70 40       	sbci	r23, 0x00	; 0
     f22:	84 17       	cp	r24, r20
     f24:	95 07       	cpc	r25, r21
     f26:	a6 07       	cpc	r26, r22
     f28:	b7 07       	cpc	r27, r23
     f2a:	98 f4       	brcc	.+38     	; 0xf52 <clust2sect+0x54>
     f2c:	2a 81       	ldd	r18, Y+2	; 0x02
     f2e:	30 e0       	ldi	r19, 0x00	; 0
     f30:	40 e0       	ldi	r20, 0x00	; 0
     f32:	50 e0       	ldi	r21, 0x00	; 0
     f34:	bc 01       	movw	r22, r24
     f36:	cd 01       	movw	r24, r26
     f38:	0e 94 e9 2e 	call	0x5dd2	; 0x5dd2 <__mulsi3>
     f3c:	8b 01       	movw	r16, r22
     f3e:	9c 01       	movw	r18, r24
     f40:	8e a1       	lds	r24, 0x4e
     f42:	9f a1       	lds	r25, 0x4f
     f44:	a8 a5       	lds	r26, 0x68
     f46:	b9 a5       	lds	r27, 0x69
     f48:	08 0f       	add	r16, r24
     f4a:	19 1f       	adc	r17, r25
     f4c:	2a 1f       	adc	r18, r26
     f4e:	3b 1f       	adc	r19, r27
     f50:	03 c0       	rjmp	.+6      	; 0xf58 <clust2sect+0x5a>
     f52:	00 e0       	ldi	r16, 0x00	; 0
     f54:	10 e0       	ldi	r17, 0x00	; 0
     f56:	98 01       	movw	r18, r16
     f58:	b8 01       	movw	r22, r16
     f5a:	c9 01       	movw	r24, r18
     f5c:	df 91       	pop	r29
     f5e:	cf 91       	pop	r28
     f60:	1f 91       	pop	r17
     f62:	0f 91       	pop	r16
     f64:	08 95       	ret

00000f66 <get_fat>:
     f66:	bf 92       	push	r11
     f68:	cf 92       	push	r12
     f6a:	df 92       	push	r13
     f6c:	ef 92       	push	r14
     f6e:	ff 92       	push	r15
     f70:	0f 93       	push	r16
     f72:	1f 93       	push	r17
     f74:	cf 93       	push	r28
     f76:	df 93       	push	r29
     f78:	ec 01       	movw	r28, r24
     f7a:	6a 01       	movw	r12, r20
     f7c:	7b 01       	movw	r14, r22
     f7e:	42 30       	cpi	r20, 0x02	; 2
     f80:	51 05       	cpc	r21, r1
     f82:	61 05       	cpc	r22, r1
     f84:	71 05       	cpc	r23, r1
     f86:	08 f4       	brcc	.+2      	; 0xf8a <get_fat+0x24>
     f88:	a8 c0       	rjmp	.+336    	; 0x10da <get_fat+0x174>
     f8a:	8e 89       	ldd	r24, Y+22	; 0x16
     f8c:	9f 89       	ldd	r25, Y+23	; 0x17
     f8e:	a8 8d       	ldd	r26, Y+24	; 0x18
     f90:	b9 8d       	ldd	r27, Y+25	; 0x19
     f92:	48 17       	cp	r20, r24
     f94:	59 07       	cpc	r21, r25
     f96:	6a 07       	cpc	r22, r26
     f98:	7b 07       	cpc	r23, r27
     f9a:	08 f0       	brcs	.+2      	; 0xf9e <get_fat+0x38>
     f9c:	9e c0       	rjmp	.+316    	; 0x10da <get_fat+0x174>
     f9e:	88 81       	ld	r24, Y
     fa0:	82 30       	cpi	r24, 0x02	; 2
     fa2:	09 f4       	brne	.+2      	; 0xfa6 <get_fat+0x40>
     fa4:	58 c0       	rjmp	.+176    	; 0x1056 <get_fat+0xf0>
     fa6:	83 30       	cpi	r24, 0x03	; 3
     fa8:	09 f4       	brne	.+2      	; 0xfac <get_fat+0x46>
     faa:	71 c0       	rjmp	.+226    	; 0x108e <get_fat+0x128>
     fac:	81 30       	cpi	r24, 0x01	; 1
     fae:	09 f0       	breq	.+2      	; 0xfb2 <get_fat+0x4c>
     fb0:	90 c0       	rjmp	.+288    	; 0x10d2 <get_fat+0x16c>
     fb2:	8a 01       	movw	r16, r20
     fb4:	16 95       	lsr	r17
     fb6:	07 95       	ror	r16
     fb8:	04 0f       	add	r16, r20
     fba:	15 1f       	adc	r17, r21
     fbc:	a8 01       	movw	r20, r16
     fbe:	45 2f       	mov	r20, r21
     fc0:	55 27       	eor	r21, r21
     fc2:	46 95       	lsr	r20
     fc4:	60 e0       	ldi	r22, 0x00	; 0
     fc6:	70 e0       	ldi	r23, 0x00	; 0
     fc8:	8e 8d       	ldd	r24, Y+30	; 0x1e
     fca:	9f 8d       	ldd	r25, Y+31	; 0x1f
     fcc:	a8 a1       	lds	r26, 0x48
     fce:	b9 a1       	lds	r27, 0x49
     fd0:	48 0f       	add	r20, r24
     fd2:	59 1f       	adc	r21, r25
     fd4:	6a 1f       	adc	r22, r26
     fd6:	7b 1f       	adc	r23, r27
     fd8:	ce 01       	movw	r24, r28
     fda:	0e 94 1b 04 	call	0x836	; 0x836 <move_window>
     fde:	88 23       	and	r24, r24
     fe0:	09 f0       	breq	.+2      	; 0xfe4 <get_fat+0x7e>
     fe2:	77 c0       	rjmp	.+238    	; 0x10d2 <get_fat+0x16c>
     fe4:	f8 01       	movw	r30, r16
     fe6:	f1 70       	andi	r31, 0x01	; 1
     fe8:	ec 0f       	add	r30, r28
     fea:	fd 1f       	adc	r31, r29
     fec:	b6 a4       	lds	r27, 0xa6
     fee:	0f 5f       	subi	r16, 0xFF	; 255
     ff0:	1f 4f       	sbci	r17, 0xFF	; 255
     ff2:	a8 01       	movw	r20, r16
     ff4:	45 2f       	mov	r20, r21
     ff6:	55 27       	eor	r21, r21
     ff8:	46 95       	lsr	r20
     ffa:	60 e0       	ldi	r22, 0x00	; 0
     ffc:	70 e0       	ldi	r23, 0x00	; 0
     ffe:	8e 8d       	ldd	r24, Y+30	; 0x1e
    1000:	9f 8d       	ldd	r25, Y+31	; 0x1f
    1002:	a8 a1       	lds	r26, 0x48
    1004:	b9 a1       	lds	r27, 0x49
    1006:	48 0f       	add	r20, r24
    1008:	59 1f       	adc	r21, r25
    100a:	6a 1f       	adc	r22, r26
    100c:	7b 1f       	adc	r23, r27
    100e:	ce 01       	movw	r24, r28
    1010:	0e 94 1b 04 	call	0x836	; 0x836 <move_window>
    1014:	88 23       	and	r24, r24
    1016:	09 f0       	breq	.+2      	; 0x101a <get_fat+0xb4>
    1018:	5c c0       	rjmp	.+184    	; 0x10d2 <get_fat+0x16c>
    101a:	6b 2d       	mov	r22, r11
    101c:	70 e0       	ldi	r23, 0x00	; 0
    101e:	f8 01       	movw	r30, r16
    1020:	f1 70       	andi	r31, 0x01	; 1
    1022:	ec 0f       	add	r30, r28
    1024:	fd 1f       	adc	r31, r29
    1026:	96 a5       	lds	r25, 0x66
    1028:	80 e0       	ldi	r24, 0x00	; 0
    102a:	68 2b       	or	r22, r24
    102c:	79 2b       	or	r23, r25
    102e:	81 e0       	ldi	r24, 0x01	; 1
    1030:	c8 22       	and	r12, r24
    1032:	dd 24       	eor	r13, r13
    1034:	c1 14       	cp	r12, r1
    1036:	d1 04       	cpc	r13, r1
    1038:	39 f0       	breq	.+14     	; 0x1048 <get_fat+0xe2>
    103a:	84 e0       	ldi	r24, 0x04	; 4
    103c:	76 95       	lsr	r23
    103e:	67 95       	ror	r22
    1040:	8a 95       	dec	r24
    1042:	e1 f7       	brne	.-8      	; 0x103c <get_fat+0xd6>
    1044:	8b 01       	movw	r16, r22
    1046:	20 c0       	rjmp	.+64     	; 0x1088 <get_fat+0x122>
    1048:	8b 01       	movw	r16, r22
    104a:	20 e0       	ldi	r18, 0x00	; 0
    104c:	30 e0       	ldi	r19, 0x00	; 0
    104e:	1f 70       	andi	r17, 0x0F	; 15
    1050:	20 70       	andi	r18, 0x00	; 0
    1052:	30 70       	andi	r19, 0x00	; 0
    1054:	46 c0       	rjmp	.+140    	; 0x10e2 <get_fat+0x17c>
    1056:	45 2f       	mov	r20, r21
    1058:	56 2f       	mov	r21, r22
    105a:	67 2f       	mov	r22, r23
    105c:	77 27       	eor	r23, r23
    105e:	8e 8d       	ldd	r24, Y+30	; 0x1e
    1060:	9f 8d       	ldd	r25, Y+31	; 0x1f
    1062:	a8 a1       	lds	r26, 0x48
    1064:	b9 a1       	lds	r27, 0x49
    1066:	48 0f       	add	r20, r24
    1068:	59 1f       	adc	r21, r25
    106a:	6a 1f       	adc	r22, r26
    106c:	7b 1f       	adc	r23, r27
    106e:	ce 01       	movw	r24, r28
    1070:	0e 94 1b 04 	call	0x836	; 0x836 <move_window>
    1074:	88 23       	and	r24, r24
    1076:	69 f5       	brne	.+90     	; 0x10d2 <get_fat+0x16c>
    1078:	f6 01       	movw	r30, r12
    107a:	ee 0f       	add	r30, r30
    107c:	ff 1f       	adc	r31, r31
    107e:	f1 70       	andi	r31, 0x01	; 1
    1080:	ec 0f       	add	r30, r28
    1082:	fd 1f       	adc	r31, r29
    1084:	06 a5       	lds	r16, 0x66
    1086:	17 a5       	lds	r17, 0x67
    1088:	20 e0       	ldi	r18, 0x00	; 0
    108a:	30 e0       	ldi	r19, 0x00	; 0
    108c:	2a c0       	rjmp	.+84     	; 0x10e2 <get_fat+0x17c>
    108e:	b7 e0       	ldi	r27, 0x07	; 7
    1090:	76 95       	lsr	r23
    1092:	67 95       	ror	r22
    1094:	57 95       	ror	r21
    1096:	47 95       	ror	r20
    1098:	ba 95       	dec	r27
    109a:	d1 f7       	brne	.-12     	; 0x1090 <get_fat+0x12a>
    109c:	8e 8d       	ldd	r24, Y+30	; 0x1e
    109e:	9f 8d       	ldd	r25, Y+31	; 0x1f
    10a0:	a8 a1       	lds	r26, 0x48
    10a2:	b9 a1       	lds	r27, 0x49
    10a4:	48 0f       	add	r20, r24
    10a6:	59 1f       	adc	r21, r25
    10a8:	6a 1f       	adc	r22, r26
    10aa:	7b 1f       	adc	r23, r27
    10ac:	ce 01       	movw	r24, r28
    10ae:	0e 94 1b 04 	call	0x836	; 0x836 <move_window>
    10b2:	88 23       	and	r24, r24
    10b4:	71 f4       	brne	.+28     	; 0x10d2 <get_fat+0x16c>
    10b6:	f6 01       	movw	r30, r12
    10b8:	ee 0f       	add	r30, r30
    10ba:	ff 1f       	adc	r31, r31
    10bc:	ee 0f       	add	r30, r30
    10be:	ff 1f       	adc	r31, r31
    10c0:	f1 70       	andi	r31, 0x01	; 1
    10c2:	ec 0f       	add	r30, r28
    10c4:	fd 1f       	adc	r31, r29
    10c6:	06 a5       	lds	r16, 0x66
    10c8:	17 a5       	lds	r17, 0x67
    10ca:	20 a9       	sts	0x40, r18
    10cc:	31 a9       	sts	0x41, r19
    10ce:	3f 70       	andi	r19, 0x0F	; 15
    10d0:	08 c0       	rjmp	.+16     	; 0x10e2 <get_fat+0x17c>
    10d2:	0f ef       	ldi	r16, 0xFF	; 255
    10d4:	1f ef       	ldi	r17, 0xFF	; 255
    10d6:	98 01       	movw	r18, r16
    10d8:	04 c0       	rjmp	.+8      	; 0x10e2 <get_fat+0x17c>
    10da:	01 e0       	ldi	r16, 0x01	; 1
    10dc:	10 e0       	ldi	r17, 0x00	; 0
    10de:	20 e0       	ldi	r18, 0x00	; 0
    10e0:	30 e0       	ldi	r19, 0x00	; 0
    10e2:	b8 01       	movw	r22, r16
    10e4:	c9 01       	movw	r24, r18
    10e6:	df 91       	pop	r29
    10e8:	cf 91       	pop	r28
    10ea:	1f 91       	pop	r17
    10ec:	0f 91       	pop	r16
    10ee:	ff 90       	pop	r15
    10f0:	ef 90       	pop	r14
    10f2:	df 90       	pop	r13
    10f4:	cf 90       	pop	r12
    10f6:	bf 90       	pop	r11
    10f8:	08 95       	ret

000010fa <dir_sdi.constprop.5>:
    10fa:	0f 93       	push	r16
    10fc:	1f 93       	push	r17
    10fe:	cf 93       	push	r28
    1100:	df 93       	push	r29
    1102:	8c 01       	movw	r16, r24
    1104:	dc 01       	movw	r26, r24
    1106:	15 96       	adiw	r26, 0x05	; 5
    1108:	1c 92       	st	X, r1
    110a:	1e 92       	st	-X, r1
    110c:	14 97       	sbiw	r26, 0x04	; 4
    110e:	16 96       	adiw	r26, 0x06	; 6
    1110:	4d 91       	ld	r20, X+
    1112:	5d 91       	ld	r21, X+
    1114:	6d 91       	ld	r22, X+
    1116:	7c 91       	ld	r23, X
    1118:	19 97       	sbiw	r26, 0x09	; 9
    111a:	41 30       	cpi	r20, 0x01	; 1
    111c:	51 05       	cpc	r21, r1
    111e:	61 05       	cpc	r22, r1
    1120:	71 05       	cpc	r23, r1
    1122:	09 f4       	brne	.+2      	; 0x1126 <dir_sdi.constprop.5+0x2c>
    1124:	69 c0       	rjmp	.+210    	; 0x11f8 <dir_sdi.constprop.5+0xfe>
    1126:	cd 91       	ld	r28, X+
    1128:	dc 91       	ld	r29, X
    112a:	8e 89       	ldd	r24, Y+22	; 0x16
    112c:	9f 89       	ldd	r25, Y+23	; 0x17
    112e:	a8 8d       	ldd	r26, Y+24	; 0x18
    1130:	b9 8d       	ldd	r27, Y+25	; 0x19
    1132:	48 17       	cp	r20, r24
    1134:	59 07       	cpc	r21, r25
    1136:	6a 07       	cpc	r22, r26
    1138:	7b 07       	cpc	r23, r27
    113a:	08 f0       	brcs	.+2      	; 0x113e <dir_sdi.constprop.5+0x44>
    113c:	5d c0       	rjmp	.+186    	; 0x11f8 <dir_sdi.constprop.5+0xfe>
    113e:	41 15       	cp	r20, r1
    1140:	51 05       	cpc	r21, r1
    1142:	61 05       	cpc	r22, r1
    1144:	71 05       	cpc	r23, r1
    1146:	d9 f4       	brne	.+54     	; 0x117e <dir_sdi.constprop.5+0x84>
    1148:	88 81       	ld	r24, Y
    114a:	83 30       	cpi	r24, 0x03	; 3
    114c:	49 f4       	brne	.+18     	; 0x1160 <dir_sdi.constprop.5+0x66>
    114e:	4a a1       	lds	r20, 0x4a
    1150:	5b a1       	lds	r21, 0x4b
    1152:	6c a1       	lds	r22, 0x4c
    1154:	7d a1       	lds	r23, 0x4d
    1156:	41 15       	cp	r20, r1
    1158:	51 05       	cpc	r21, r1
    115a:	61 05       	cpc	r22, r1
    115c:	71 05       	cpc	r23, r1
    115e:	79 f4       	brne	.+30     	; 0x117e <dir_sdi.constprop.5+0x84>
    1160:	f8 01       	movw	r30, r16
    1162:	12 86       	std	Z+10, r1	; 0x0a
    1164:	13 86       	std	Z+11, r1	; 0x0b
    1166:	14 86       	std	Z+12, r1	; 0x0c
    1168:	15 86       	std	Z+13, r1	; 0x0d
    116a:	88 85       	ldd	r24, Y+8	; 0x08
    116c:	99 85       	ldd	r25, Y+9	; 0x09
    116e:	00 97       	sbiw	r24, 0x00	; 0
    1170:	09 f4       	brne	.+2      	; 0x1174 <dir_sdi.constprop.5+0x7a>
    1172:	42 c0       	rjmp	.+132    	; 0x11f8 <dir_sdi.constprop.5+0xfe>
    1174:	8a a1       	lds	r24, 0x4a
    1176:	9b a1       	lds	r25, 0x4b
    1178:	ac a1       	lds	r26, 0x4c
    117a:	bd a1       	lds	r27, 0x4d
    117c:	2f c0       	rjmp	.+94     	; 0x11dc <dir_sdi.constprop.5+0xe2>
    117e:	8a 81       	ldd	r24, Y+2	; 0x02
    1180:	88 23       	and	r24, r24
    1182:	09 f5       	brne	.+66     	; 0x11c6 <dir_sdi.constprop.5+0xcc>
    1184:	d8 01       	movw	r26, r16
    1186:	8d 91       	ld	r24, X+
    1188:	9c 91       	ld	r25, X
    118a:	0e 94 b3 07 	call	0xf66	; 0xf66 <get_fat>
    118e:	ab 01       	movw	r20, r22
    1190:	bc 01       	movw	r22, r24
    1192:	4f 3f       	cpi	r20, 0xFF	; 255
    1194:	bf ef       	ldi	r27, 0xFF	; 255
    1196:	5b 07       	cpc	r21, r27
    1198:	bf ef       	ldi	r27, 0xFF	; 255
    119a:	6b 07       	cpc	r22, r27
    119c:	bf ef       	ldi	r27, 0xFF	; 255
    119e:	7b 07       	cpc	r23, r27
    11a0:	49 f1       	breq	.+82     	; 0x11f4 <dir_sdi.constprop.5+0xfa>
    11a2:	42 30       	cpi	r20, 0x02	; 2
    11a4:	51 05       	cpc	r21, r1
    11a6:	61 05       	cpc	r22, r1
    11a8:	71 05       	cpc	r23, r1
    11aa:	30 f1       	brcs	.+76     	; 0x11f8 <dir_sdi.constprop.5+0xfe>
    11ac:	d8 01       	movw	r26, r16
    11ae:	ed 91       	ld	r30, X+
    11b0:	fc 91       	ld	r31, X
    11b2:	86 89       	ldd	r24, Z+22	; 0x16
    11b4:	97 89       	ldd	r25, Z+23	; 0x17
    11b6:	a0 8d       	ldd	r26, Z+24	; 0x18
    11b8:	b1 8d       	ldd	r27, Z+25	; 0x19
    11ba:	48 17       	cp	r20, r24
    11bc:	59 07       	cpc	r21, r25
    11be:	6a 07       	cpc	r22, r26
    11c0:	7b 07       	cpc	r23, r27
    11c2:	00 f3       	brcs	.-64     	; 0x1184 <dir_sdi.constprop.5+0x8a>
    11c4:	19 c0       	rjmp	.+50     	; 0x11f8 <dir_sdi.constprop.5+0xfe>
    11c6:	f8 01       	movw	r30, r16
    11c8:	42 87       	std	Z+10, r20	; 0x0a
    11ca:	53 87       	std	Z+11, r21	; 0x0b
    11cc:	64 87       	std	Z+12, r22	; 0x0c
    11ce:	75 87       	std	Z+13, r23	; 0x0d
    11d0:	ce 01       	movw	r24, r28
    11d2:	0e 94 7f 07 	call	0xefe	; 0xefe <clust2sect>
    11d6:	dc 01       	movw	r26, r24
    11d8:	cb 01       	movw	r24, r22
    11da:	f8 01       	movw	r30, r16
    11dc:	86 87       	std	Z+14, r24	; 0x0e
    11de:	97 87       	std	Z+15, r25	; 0x0f
    11e0:	a0 8b       	std	Z+16, r26	; 0x10
    11e2:	b1 8b       	std	Z+17, r27	; 0x11
    11e4:	ae 96       	adiw	r28, 0x2e	; 46
    11e6:	d8 01       	movw	r26, r16
    11e8:	53 96       	adiw	r26, 0x13	; 19
    11ea:	dc 93       	st	X, r29
    11ec:	ce 93       	st	-X, r28
    11ee:	52 97       	sbiw	r26, 0x12	; 18
    11f0:	80 e0       	ldi	r24, 0x00	; 0
    11f2:	03 c0       	rjmp	.+6      	; 0x11fa <dir_sdi.constprop.5+0x100>
    11f4:	81 e0       	ldi	r24, 0x01	; 1
    11f6:	01 c0       	rjmp	.+2      	; 0x11fa <dir_sdi.constprop.5+0x100>
    11f8:	82 e0       	ldi	r24, 0x02	; 2
    11fa:	df 91       	pop	r29
    11fc:	cf 91       	pop	r28
    11fe:	1f 91       	pop	r17
    1200:	0f 91       	pop	r16
    1202:	08 95       	ret

00001204 <put_fat>:
    1204:	8f 92       	push	r8
    1206:	9f 92       	push	r9
    1208:	af 92       	push	r10
    120a:	bf 92       	push	r11
    120c:	cf 92       	push	r12
    120e:	df 92       	push	r13
    1210:	ef 92       	push	r14
    1212:	ff 92       	push	r15
    1214:	0f 93       	push	r16
    1216:	1f 93       	push	r17
    1218:	cf 93       	push	r28
    121a:	df 93       	push	r29
    121c:	ec 01       	movw	r28, r24
    121e:	6a 01       	movw	r12, r20
    1220:	7b 01       	movw	r14, r22
    1222:	48 01       	movw	r8, r16
    1224:	59 01       	movw	r10, r18
    1226:	42 30       	cpi	r20, 0x02	; 2
    1228:	51 05       	cpc	r21, r1
    122a:	61 05       	cpc	r22, r1
    122c:	71 05       	cpc	r23, r1
    122e:	08 f4       	brcc	.+2      	; 0x1232 <put_fat+0x2e>
    1230:	bd c0       	rjmp	.+378    	; 0x13ac <put_fat+0x1a8>
    1232:	8e 89       	ldd	r24, Y+22	; 0x16
    1234:	9f 89       	ldd	r25, Y+23	; 0x17
    1236:	a8 8d       	ldd	r26, Y+24	; 0x18
    1238:	b9 8d       	ldd	r27, Y+25	; 0x19
    123a:	48 17       	cp	r20, r24
    123c:	59 07       	cpc	r21, r25
    123e:	6a 07       	cpc	r22, r26
    1240:	7b 07       	cpc	r23, r27
    1242:	08 f0       	brcs	.+2      	; 0x1246 <put_fat+0x42>
    1244:	b3 c0       	rjmp	.+358    	; 0x13ac <put_fat+0x1a8>
    1246:	88 81       	ld	r24, Y
    1248:	82 30       	cpi	r24, 0x02	; 2
    124a:	09 f4       	brne	.+2      	; 0x124e <put_fat+0x4a>
    124c:	62 c0       	rjmp	.+196    	; 0x1312 <put_fat+0x10e>
    124e:	83 30       	cpi	r24, 0x03	; 3
    1250:	09 f4       	brne	.+2      	; 0x1254 <put_fat+0x50>
    1252:	7a c0       	rjmp	.+244    	; 0x1348 <put_fat+0x144>
    1254:	81 30       	cpi	r24, 0x01	; 1
    1256:	09 f0       	breq	.+2      	; 0x125a <put_fat+0x56>
    1258:	a5 c0       	rjmp	.+330    	; 0x13a4 <put_fat+0x1a0>
    125a:	8a 01       	movw	r16, r20
    125c:	16 95       	lsr	r17
    125e:	07 95       	ror	r16
    1260:	04 0f       	add	r16, r20
    1262:	15 1f       	adc	r17, r21
    1264:	a8 01       	movw	r20, r16
    1266:	45 2f       	mov	r20, r21
    1268:	55 27       	eor	r21, r21
    126a:	46 95       	lsr	r20
    126c:	60 e0       	ldi	r22, 0x00	; 0
    126e:	70 e0       	ldi	r23, 0x00	; 0
    1270:	8e 8d       	ldd	r24, Y+30	; 0x1e
    1272:	9f 8d       	ldd	r25, Y+31	; 0x1f
    1274:	a8 a1       	lds	r26, 0x48
    1276:	b9 a1       	lds	r27, 0x49
    1278:	48 0f       	add	r20, r24
    127a:	59 1f       	adc	r21, r25
    127c:	6a 1f       	adc	r22, r26
    127e:	7b 1f       	adc	r23, r27
    1280:	ce 01       	movw	r24, r28
    1282:	0e 94 1b 04 	call	0x836	; 0x836 <move_window>
    1286:	88 23       	and	r24, r24
    1288:	09 f0       	breq	.+2      	; 0x128c <put_fat+0x88>
    128a:	8d c0       	rjmp	.+282    	; 0x13a6 <put_fat+0x1a2>
    128c:	f8 01       	movw	r30, r16
    128e:	f1 70       	andi	r31, 0x01	; 1
    1290:	81 e0       	ldi	r24, 0x01	; 1
    1292:	c8 22       	and	r12, r24
    1294:	dd 24       	eor	r13, r13
    1296:	ec 0f       	add	r30, r28
    1298:	fd 1f       	adc	r31, r29
    129a:	c1 14       	cp	r12, r1
    129c:	d1 04       	cpc	r13, r1
    129e:	39 f0       	breq	.+14     	; 0x12ae <put_fat+0xaa>
    12a0:	96 a5       	lds	r25, 0x66
    12a2:	9f 70       	andi	r25, 0x0F	; 15
    12a4:	88 2d       	mov	r24, r8
    12a6:	82 95       	swap	r24
    12a8:	80 7f       	andi	r24, 0xF0	; 240
    12aa:	89 2b       	or	r24, r25
    12ac:	01 c0       	rjmp	.+2      	; 0x12b0 <put_fat+0xac>
    12ae:	88 2d       	mov	r24, r8
    12b0:	86 a7       	lds	r24, 0x76
    12b2:	0f 5f       	subi	r16, 0xFF	; 255
    12b4:	1f 4f       	sbci	r17, 0xFF	; 255
    12b6:	81 e0       	ldi	r24, 0x01	; 1
    12b8:	8c 83       	std	Y+4, r24	; 0x04
    12ba:	a8 01       	movw	r20, r16
    12bc:	45 2f       	mov	r20, r21
    12be:	55 27       	eor	r21, r21
    12c0:	46 95       	lsr	r20
    12c2:	60 e0       	ldi	r22, 0x00	; 0
    12c4:	70 e0       	ldi	r23, 0x00	; 0
    12c6:	8e 8d       	ldd	r24, Y+30	; 0x1e
    12c8:	9f 8d       	ldd	r25, Y+31	; 0x1f
    12ca:	a8 a1       	lds	r26, 0x48
    12cc:	b9 a1       	lds	r27, 0x49
    12ce:	48 0f       	add	r20, r24
    12d0:	59 1f       	adc	r21, r25
    12d2:	6a 1f       	adc	r22, r26
    12d4:	7b 1f       	adc	r23, r27
    12d6:	ce 01       	movw	r24, r28
    12d8:	0e 94 1b 04 	call	0x836	; 0x836 <move_window>
    12dc:	88 23       	and	r24, r24
    12de:	09 f0       	breq	.+2      	; 0x12e2 <put_fat+0xde>
    12e0:	62 c0       	rjmp	.+196    	; 0x13a6 <put_fat+0x1a2>
    12e2:	f8 01       	movw	r30, r16
    12e4:	f1 70       	andi	r31, 0x01	; 1
    12e6:	ec 0f       	add	r30, r28
    12e8:	fd 1f       	adc	r31, r29
    12ea:	c1 14       	cp	r12, r1
    12ec:	d1 04       	cpc	r13, r1
    12ee:	51 f0       	breq	.+20     	; 0x1304 <put_fat+0x100>
    12f0:	b5 01       	movw	r22, r10
    12f2:	a4 01       	movw	r20, r8
    12f4:	14 e0       	ldi	r17, 0x04	; 4
    12f6:	76 95       	lsr	r23
    12f8:	67 95       	ror	r22
    12fa:	57 95       	ror	r21
    12fc:	47 95       	ror	r20
    12fe:	1a 95       	dec	r17
    1300:	d1 f7       	brne	.-12     	; 0x12f6 <put_fat+0xf2>
    1302:	05 c0       	rjmp	.+10     	; 0x130e <put_fat+0x10a>
    1304:	46 a5       	lds	r20, 0x66
    1306:	40 7f       	andi	r20, 0xF0	; 240
    1308:	99 2d       	mov	r25, r9
    130a:	9f 70       	andi	r25, 0x0F	; 15
    130c:	49 2b       	or	r20, r25
    130e:	46 a7       	lds	r20, 0x76
    1310:	4a c0       	rjmp	.+148    	; 0x13a6 <put_fat+0x1a2>
    1312:	45 2f       	mov	r20, r21
    1314:	56 2f       	mov	r21, r22
    1316:	67 2f       	mov	r22, r23
    1318:	77 27       	eor	r23, r23
    131a:	8e 8d       	ldd	r24, Y+30	; 0x1e
    131c:	9f 8d       	ldd	r25, Y+31	; 0x1f
    131e:	a8 a1       	lds	r26, 0x48
    1320:	b9 a1       	lds	r27, 0x49
    1322:	48 0f       	add	r20, r24
    1324:	59 1f       	adc	r21, r25
    1326:	6a 1f       	adc	r22, r26
    1328:	7b 1f       	adc	r23, r27
    132a:	ce 01       	movw	r24, r28
    132c:	0e 94 1b 04 	call	0x836	; 0x836 <move_window>
    1330:	88 23       	and	r24, r24
    1332:	c9 f5       	brne	.+114    	; 0x13a6 <put_fat+0x1a2>
    1334:	f6 01       	movw	r30, r12
    1336:	ee 0f       	add	r30, r30
    1338:	ff 1f       	adc	r31, r31
    133a:	f1 70       	andi	r31, 0x01	; 1
    133c:	be 96       	adiw	r30, 0x2e	; 46
    133e:	ec 0f       	add	r30, r28
    1340:	fd 1f       	adc	r31, r29
    1342:	91 82       	std	Z+1, r9	; 0x01
    1344:	80 82       	st	Z, r8
    1346:	2f c0       	rjmp	.+94     	; 0x13a6 <put_fat+0x1a2>
    1348:	e7 e0       	ldi	r30, 0x07	; 7
    134a:	76 95       	lsr	r23
    134c:	67 95       	ror	r22
    134e:	57 95       	ror	r21
    1350:	47 95       	ror	r20
    1352:	ea 95       	dec	r30
    1354:	d1 f7       	brne	.-12     	; 0x134a <put_fat+0x146>
    1356:	8e 8d       	ldd	r24, Y+30	; 0x1e
    1358:	9f 8d       	ldd	r25, Y+31	; 0x1f
    135a:	a8 a1       	lds	r26, 0x48
    135c:	b9 a1       	lds	r27, 0x49
    135e:	48 0f       	add	r20, r24
    1360:	59 1f       	adc	r21, r25
    1362:	6a 1f       	adc	r22, r26
    1364:	7b 1f       	adc	r23, r27
    1366:	ce 01       	movw	r24, r28
    1368:	0e 94 1b 04 	call	0x836	; 0x836 <move_window>
    136c:	88 23       	and	r24, r24
    136e:	d9 f4       	brne	.+54     	; 0x13a6 <put_fat+0x1a2>
    1370:	f6 01       	movw	r30, r12
    1372:	ee 0f       	add	r30, r30
    1374:	ff 1f       	adc	r31, r31
    1376:	ee 0f       	add	r30, r30
    1378:	ff 1f       	adc	r31, r31
    137a:	f1 70       	andi	r31, 0x01	; 1
    137c:	be 96       	adiw	r30, 0x2e	; 46
    137e:	ec 0f       	add	r30, r28
    1380:	fd 1f       	adc	r31, r29
    1382:	40 81       	ld	r20, Z
    1384:	51 81       	ldd	r21, Z+1	; 0x01
    1386:	62 81       	ldd	r22, Z+2	; 0x02
    1388:	73 81       	ldd	r23, Z+3	; 0x03
    138a:	40 70       	andi	r20, 0x00	; 0
    138c:	50 70       	andi	r21, 0x00	; 0
    138e:	60 70       	andi	r22, 0x00	; 0
    1390:	70 7f       	andi	r23, 0xF0	; 240
    1392:	48 29       	or	r20, r8
    1394:	59 29       	or	r21, r9
    1396:	6a 29       	or	r22, r10
    1398:	7b 29       	or	r23, r11
    139a:	40 83       	st	Z, r20
    139c:	51 83       	std	Z+1, r21	; 0x01
    139e:	62 83       	std	Z+2, r22	; 0x02
    13a0:	73 83       	std	Z+3, r23	; 0x03
    13a2:	01 c0       	rjmp	.+2      	; 0x13a6 <put_fat+0x1a2>
    13a4:	82 e0       	ldi	r24, 0x02	; 2
    13a6:	91 e0       	ldi	r25, 0x01	; 1
    13a8:	9c 83       	std	Y+4, r25	; 0x04
    13aa:	01 c0       	rjmp	.+2      	; 0x13ae <put_fat+0x1aa>
    13ac:	82 e0       	ldi	r24, 0x02	; 2
    13ae:	df 91       	pop	r29
    13b0:	cf 91       	pop	r28
    13b2:	1f 91       	pop	r17
    13b4:	0f 91       	pop	r16
    13b6:	ff 90       	pop	r15
    13b8:	ef 90       	pop	r14
    13ba:	df 90       	pop	r13
    13bc:	cf 90       	pop	r12
    13be:	bf 90       	pop	r11
    13c0:	af 90       	pop	r10
    13c2:	9f 90       	pop	r9
    13c4:	8f 90       	pop	r8
    13c6:	08 95       	ret

000013c8 <create_chain>:
    13c8:	4f 92       	push	r4
    13ca:	5f 92       	push	r5
    13cc:	6f 92       	push	r6
    13ce:	7f 92       	push	r7
    13d0:	8f 92       	push	r8
    13d2:	9f 92       	push	r9
    13d4:	af 92       	push	r10
    13d6:	bf 92       	push	r11
    13d8:	cf 92       	push	r12
    13da:	df 92       	push	r13
    13dc:	ef 92       	push	r14
    13de:	ff 92       	push	r15
    13e0:	0f 93       	push	r16
    13e2:	1f 93       	push	r17
    13e4:	cf 93       	push	r28
    13e6:	df 93       	push	r29
    13e8:	ec 01       	movw	r28, r24
    13ea:	2a 01       	movw	r4, r20
    13ec:	3b 01       	movw	r6, r22
    13ee:	41 15       	cp	r20, r1
    13f0:	51 05       	cpc	r21, r1
    13f2:	61 05       	cpc	r22, r1
    13f4:	71 05       	cpc	r23, r1
    13f6:	99 f4       	brne	.+38     	; 0x141e <create_chain+0x56>
    13f8:	8a 84       	ldd	r8, Y+10	; 0x0a
    13fa:	9b 84       	ldd	r9, Y+11	; 0x0b
    13fc:	ac 84       	ldd	r10, Y+12	; 0x0c
    13fe:	bd 84       	ldd	r11, Y+13	; 0x0d
    1400:	81 14       	cp	r8, r1
    1402:	91 04       	cpc	r9, r1
    1404:	a1 04       	cpc	r10, r1
    1406:	b1 04       	cpc	r11, r1
    1408:	09 f1       	breq	.+66     	; 0x144c <create_chain+0x84>
    140a:	8e 89       	ldd	r24, Y+22	; 0x16
    140c:	9f 89       	ldd	r25, Y+23	; 0x17
    140e:	a8 8d       	ldd	r26, Y+24	; 0x18
    1410:	b9 8d       	ldd	r27, Y+25	; 0x19
    1412:	88 16       	cp	r8, r24
    1414:	99 06       	cpc	r9, r25
    1416:	aa 06       	cpc	r10, r26
    1418:	bb 06       	cpc	r11, r27
    141a:	c0 f4       	brcc	.+48     	; 0x144c <create_chain+0x84>
    141c:	1c c0       	rjmp	.+56     	; 0x1456 <create_chain+0x8e>
    141e:	0e 94 b3 07 	call	0xf66	; 0xf66 <get_fat>
    1422:	8b 01       	movw	r16, r22
    1424:	9c 01       	movw	r18, r24
    1426:	62 30       	cpi	r22, 0x02	; 2
    1428:	71 05       	cpc	r23, r1
    142a:	81 05       	cpc	r24, r1
    142c:	91 05       	cpc	r25, r1
    142e:	08 f4       	brcc	.+2      	; 0x1432 <create_chain+0x6a>
    1430:	93 c0       	rjmp	.+294    	; 0x1558 <create_chain+0x190>
    1432:	8e 89       	ldd	r24, Y+22	; 0x16
    1434:	9f 89       	ldd	r25, Y+23	; 0x17
    1436:	a8 8d       	ldd	r26, Y+24	; 0x18
    1438:	b9 8d       	ldd	r27, Y+25	; 0x19
    143a:	08 17       	cp	r16, r24
    143c:	19 07       	cpc	r17, r25
    143e:	2a 07       	cpc	r18, r26
    1440:	3b 07       	cpc	r19, r27
    1442:	08 f4       	brcc	.+2      	; 0x1446 <create_chain+0x7e>
    1444:	8d c0       	rjmp	.+282    	; 0x1560 <create_chain+0x198>
    1446:	53 01       	movw	r10, r6
    1448:	42 01       	movw	r8, r4
    144a:	05 c0       	rjmp	.+10     	; 0x1456 <create_chain+0x8e>
    144c:	51 e0       	ldi	r21, 0x01	; 1
    144e:	85 2e       	mov	r8, r21
    1450:	91 2c       	mov	r9, r1
    1452:	a1 2c       	mov	r10, r1
    1454:	b1 2c       	mov	r11, r1
    1456:	75 01       	movw	r14, r10
    1458:	64 01       	movw	r12, r8
    145a:	08 94       	sec
    145c:	c1 1c       	adc	r12, r1
    145e:	d1 1c       	adc	r13, r1
    1460:	e1 1c       	adc	r14, r1
    1462:	f1 1c       	adc	r15, r1
    1464:	8e 89       	ldd	r24, Y+22	; 0x16
    1466:	9f 89       	ldd	r25, Y+23	; 0x17
    1468:	a8 8d       	ldd	r26, Y+24	; 0x18
    146a:	b9 8d       	ldd	r27, Y+25	; 0x19
    146c:	c8 16       	cp	r12, r24
    146e:	d9 06       	cpc	r13, r25
    1470:	ea 06       	cpc	r14, r26
    1472:	fb 06       	cpc	r15, r27
    1474:	60 f0       	brcs	.+24     	; 0x148e <create_chain+0xc6>
    1476:	22 e0       	ldi	r18, 0x02	; 2
    1478:	82 16       	cp	r8, r18
    147a:	91 04       	cpc	r9, r1
    147c:	a1 04       	cpc	r10, r1
    147e:	b1 04       	cpc	r11, r1
    1480:	08 f4       	brcc	.+2      	; 0x1484 <create_chain+0xbc>
    1482:	63 c0       	rjmp	.+198    	; 0x154a <create_chain+0x182>
    1484:	42 e0       	ldi	r20, 0x02	; 2
    1486:	c4 2e       	mov	r12, r20
    1488:	d1 2c       	mov	r13, r1
    148a:	e1 2c       	mov	r14, r1
    148c:	f1 2c       	mov	r15, r1
    148e:	ce 01       	movw	r24, r28
    1490:	b7 01       	movw	r22, r14
    1492:	a6 01       	movw	r20, r12
    1494:	0e 94 b3 07 	call	0xf66	; 0xf66 <get_fat>
    1498:	8b 01       	movw	r16, r22
    149a:	9c 01       	movw	r18, r24
    149c:	61 15       	cp	r22, r1
    149e:	71 05       	cpc	r23, r1
    14a0:	81 05       	cpc	r24, r1
    14a2:	91 05       	cpc	r25, r1
    14a4:	a9 f0       	breq	.+42     	; 0x14d0 <create_chain+0x108>
    14a6:	0f 3f       	cpi	r16, 0xFF	; 255
    14a8:	8f ef       	ldi	r24, 0xFF	; 255
    14aa:	18 07       	cpc	r17, r24
    14ac:	8f ef       	ldi	r24, 0xFF	; 255
    14ae:	28 07       	cpc	r18, r24
    14b0:	8f ef       	ldi	r24, 0xFF	; 255
    14b2:	38 07       	cpc	r19, r24
    14b4:	09 f4       	brne	.+2      	; 0x14b8 <create_chain+0xf0>
    14b6:	54 c0       	rjmp	.+168    	; 0x1560 <create_chain+0x198>
    14b8:	01 30       	cpi	r16, 0x01	; 1
    14ba:	11 05       	cpc	r17, r1
    14bc:	21 05       	cpc	r18, r1
    14be:	31 05       	cpc	r19, r1
    14c0:	09 f4       	brne	.+2      	; 0x14c4 <create_chain+0xfc>
    14c2:	4e c0       	rjmp	.+156    	; 0x1560 <create_chain+0x198>
    14c4:	c8 14       	cp	r12, r8
    14c6:	d9 04       	cpc	r13, r9
    14c8:	ea 04       	cpc	r14, r10
    14ca:	fb 04       	cpc	r15, r11
    14cc:	31 f6       	brne	.-116    	; 0x145a <create_chain+0x92>
    14ce:	3d c0       	rjmp	.+122    	; 0x154a <create_chain+0x182>
    14d0:	8c 2c       	mov	r8, r12
    14d2:	bd 2c       	mov	r11, r13
    14d4:	ae 2c       	mov	r10, r14
    14d6:	9f 2c       	mov	r9, r15
    14d8:	ce 01       	movw	r24, r28
    14da:	a6 01       	movw	r20, r12
    14dc:	b7 01       	movw	r22, r14
    14de:	0f ef       	ldi	r16, 0xFF	; 255
    14e0:	1f ef       	ldi	r17, 0xFF	; 255
    14e2:	2f ef       	ldi	r18, 0xFF	; 255
    14e4:	3f e0       	ldi	r19, 0x0F	; 15
    14e6:	0e 94 02 09 	call	0x1204	; 0x1204 <put_fat>
    14ea:	88 23       	and	r24, r24
    14ec:	41 f5       	brne	.+80     	; 0x153e <create_chain+0x176>
    14ee:	41 14       	cp	r4, r1
    14f0:	51 04       	cpc	r5, r1
    14f2:	61 04       	cpc	r6, r1
    14f4:	71 04       	cpc	r7, r1
    14f6:	49 f0       	breq	.+18     	; 0x150a <create_chain+0x142>
    14f8:	ce 01       	movw	r24, r28
    14fa:	b3 01       	movw	r22, r6
    14fc:	a2 01       	movw	r20, r4
    14fe:	86 01       	movw	r16, r12
    1500:	97 01       	movw	r18, r14
    1502:	0e 94 02 09 	call	0x1204	; 0x1204 <put_fat>
    1506:	88 23       	and	r24, r24
    1508:	d1 f4       	brne	.+52     	; 0x153e <create_chain+0x176>
    150a:	8a 86       	std	Y+10, r8	; 0x0a
    150c:	bb 86       	std	Y+11, r11	; 0x0b
    150e:	ac 86       	std	Y+12, r10	; 0x0c
    1510:	9d 86       	std	Y+13, r9	; 0x0d
    1512:	8e 85       	ldd	r24, Y+14	; 0x0e
    1514:	9f 85       	ldd	r25, Y+15	; 0x0f
    1516:	a8 89       	ldd	r26, Y+16	; 0x10
    1518:	b9 89       	ldd	r27, Y+17	; 0x11
    151a:	8f 3f       	cpi	r24, 0xFF	; 255
    151c:	2f ef       	ldi	r18, 0xFF	; 255
    151e:	92 07       	cpc	r25, r18
    1520:	2f ef       	ldi	r18, 0xFF	; 255
    1522:	a2 07       	cpc	r26, r18
    1524:	2f ef       	ldi	r18, 0xFF	; 255
    1526:	b2 07       	cpc	r27, r18
    1528:	a1 f0       	breq	.+40     	; 0x1552 <create_chain+0x18a>
    152a:	01 97       	sbiw	r24, 0x01	; 1
    152c:	a1 09       	sbc	r26, r1
    152e:	b1 09       	sbc	r27, r1
    1530:	8e 87       	std	Y+14, r24	; 0x0e
    1532:	9f 87       	std	Y+15, r25	; 0x0f
    1534:	a8 8b       	std	Y+16, r26	; 0x10
    1536:	b9 8b       	std	Y+17, r27	; 0x11
    1538:	81 e0       	ldi	r24, 0x01	; 1
    153a:	8d 83       	std	Y+5, r24	; 0x05
    153c:	0a c0       	rjmp	.+20     	; 0x1552 <create_chain+0x18a>
    153e:	81 30       	cpi	r24, 0x01	; 1
    1540:	59 f4       	brne	.+22     	; 0x1558 <create_chain+0x190>
    1542:	0f ef       	ldi	r16, 0xFF	; 255
    1544:	1f ef       	ldi	r17, 0xFF	; 255
    1546:	98 01       	movw	r18, r16
    1548:	0b c0       	rjmp	.+22     	; 0x1560 <create_chain+0x198>
    154a:	00 e0       	ldi	r16, 0x00	; 0
    154c:	10 e0       	ldi	r17, 0x00	; 0
    154e:	98 01       	movw	r18, r16
    1550:	07 c0       	rjmp	.+14     	; 0x1560 <create_chain+0x198>
    1552:	97 01       	movw	r18, r14
    1554:	86 01       	movw	r16, r12
    1556:	04 c0       	rjmp	.+8      	; 0x1560 <create_chain+0x198>
    1558:	01 e0       	ldi	r16, 0x01	; 1
    155a:	10 e0       	ldi	r17, 0x00	; 0
    155c:	20 e0       	ldi	r18, 0x00	; 0
    155e:	30 e0       	ldi	r19, 0x00	; 0
    1560:	b8 01       	movw	r22, r16
    1562:	c9 01       	movw	r24, r18
    1564:	df 91       	pop	r29
    1566:	cf 91       	pop	r28
    1568:	1f 91       	pop	r17
    156a:	0f 91       	pop	r16
    156c:	ff 90       	pop	r15
    156e:	ef 90       	pop	r14
    1570:	df 90       	pop	r13
    1572:	cf 90       	pop	r12
    1574:	bf 90       	pop	r11
    1576:	af 90       	pop	r10
    1578:	9f 90       	pop	r9
    157a:	8f 90       	pop	r8
    157c:	7f 90       	pop	r7
    157e:	6f 90       	pop	r6
    1580:	5f 90       	pop	r5
    1582:	4f 90       	pop	r4
    1584:	08 95       	ret

00001586 <dir_next>:
    1586:	8f 92       	push	r8
    1588:	9f 92       	push	r9
    158a:	af 92       	push	r10
    158c:	bf 92       	push	r11
    158e:	cf 92       	push	r12
    1590:	df 92       	push	r13
    1592:	ef 92       	push	r14
    1594:	ff 92       	push	r15
    1596:	0f 93       	push	r16
    1598:	1f 93       	push	r17
    159a:	cf 93       	push	r28
    159c:	df 93       	push	r29
    159e:	8c 01       	movw	r16, r24
    15a0:	eb 01       	movw	r28, r22
    15a2:	dc 01       	movw	r26, r24
    15a4:	14 96       	adiw	r26, 0x04	; 4
    15a6:	ad 90       	ld	r10, X+
    15a8:	bc 90       	ld	r11, X
    15aa:	15 97       	sbiw	r26, 0x05	; 5
    15ac:	08 94       	sec
    15ae:	a1 1c       	adc	r10, r1
    15b0:	b1 1c       	adc	r11, r1
    15b2:	a1 14       	cp	r10, r1
    15b4:	b1 04       	cpc	r11, r1
    15b6:	09 f4       	brne	.+2      	; 0x15ba <dir_next+0x34>
    15b8:	00 c1       	rjmp	.+512    	; 0x17ba <dir_next+0x234>
    15ba:	1e 96       	adiw	r26, 0x0e	; 14
    15bc:	8d 91       	ld	r24, X+
    15be:	9d 91       	ld	r25, X+
    15c0:	0d 90       	ld	r0, X+
    15c2:	bc 91       	ld	r27, X
    15c4:	a0 2d       	mov	r26, r0
    15c6:	00 97       	sbiw	r24, 0x00	; 0
    15c8:	a1 05       	cpc	r26, r1
    15ca:	b1 05       	cpc	r27, r1
    15cc:	09 f4       	brne	.+2      	; 0x15d0 <dir_next+0x4a>
    15ce:	f5 c0       	rjmp	.+490    	; 0x17ba <dir_next+0x234>
    15d0:	2f e0       	ldi	r18, 0x0F	; 15
    15d2:	82 2e       	mov	r8, r18
    15d4:	91 2c       	mov	r9, r1
    15d6:	8a 20       	and	r8, r10
    15d8:	9b 20       	and	r9, r11
    15da:	81 14       	cp	r8, r1
    15dc:	91 04       	cpc	r9, r1
    15de:	09 f0       	breq	.+2      	; 0x15e2 <dir_next+0x5c>
    15e0:	d6 c0       	rjmp	.+428    	; 0x178e <dir_next+0x208>
    15e2:	01 96       	adiw	r24, 0x01	; 1
    15e4:	a1 1d       	adc	r26, r1
    15e6:	b1 1d       	adc	r27, r1
    15e8:	f8 01       	movw	r30, r16
    15ea:	86 87       	std	Z+14, r24	; 0x0e
    15ec:	97 87       	std	Z+15, r25	; 0x0f
    15ee:	a0 8b       	std	Z+16, r26	; 0x10
    15f0:	b1 8b       	std	Z+17, r27	; 0x11
    15f2:	42 85       	ldd	r20, Z+10	; 0x0a
    15f4:	53 85       	ldd	r21, Z+11	; 0x0b
    15f6:	64 85       	ldd	r22, Z+12	; 0x0c
    15f8:	75 85       	ldd	r23, Z+13	; 0x0d
    15fa:	01 90       	ld	r0, Z+
    15fc:	f0 81       	ld	r31, Z
    15fe:	e0 2d       	mov	r30, r0
    1600:	41 15       	cp	r20, r1
    1602:	51 05       	cpc	r21, r1
    1604:	61 05       	cpc	r22, r1
    1606:	71 05       	cpc	r23, r1
    1608:	39 f4       	brne	.+14     	; 0x1618 <dir_next+0x92>
    160a:	80 85       	ldd	r24, Z+8	; 0x08
    160c:	91 85       	ldd	r25, Z+9	; 0x09
    160e:	a8 16       	cp	r10, r24
    1610:	b9 06       	cpc	r11, r25
    1612:	08 f0       	brcs	.+2      	; 0x1616 <dir_next+0x90>
    1614:	d2 c0       	rjmp	.+420    	; 0x17ba <dir_next+0x234>
    1616:	bb c0       	rjmp	.+374    	; 0x178e <dir_next+0x208>
    1618:	82 81       	ldd	r24, Z+2	; 0x02
    161a:	90 e0       	ldi	r25, 0x00	; 0
    161c:	01 97       	sbiw	r24, 0x01	; 1
    161e:	95 01       	movw	r18, r10
    1620:	a4 e0       	ldi	r26, 0x04	; 4
    1622:	36 95       	lsr	r19
    1624:	27 95       	ror	r18
    1626:	aa 95       	dec	r26
    1628:	e1 f7       	brne	.-8      	; 0x1622 <dir_next+0x9c>
    162a:	82 23       	and	r24, r18
    162c:	93 23       	and	r25, r19
    162e:	00 97       	sbiw	r24, 0x00	; 0
    1630:	09 f0       	breq	.+2      	; 0x1634 <dir_next+0xae>
    1632:	ad c0       	rjmp	.+346    	; 0x178e <dir_next+0x208>
    1634:	cf 01       	movw	r24, r30
    1636:	0e 94 b3 07 	call	0xf66	; 0xf66 <get_fat>
    163a:	6b 01       	movw	r12, r22
    163c:	7c 01       	movw	r14, r24
    163e:	62 30       	cpi	r22, 0x02	; 2
    1640:	71 05       	cpc	r23, r1
    1642:	81 05       	cpc	r24, r1
    1644:	91 05       	cpc	r25, r1
    1646:	08 f4       	brcc	.+2      	; 0x164a <dir_next+0xc4>
    1648:	bc c0       	rjmp	.+376    	; 0x17c2 <dir_next+0x23c>
    164a:	8f ef       	ldi	r24, 0xFF	; 255
    164c:	c8 16       	cp	r12, r24
    164e:	8f ef       	ldi	r24, 0xFF	; 255
    1650:	d8 06       	cpc	r13, r24
    1652:	8f ef       	ldi	r24, 0xFF	; 255
    1654:	e8 06       	cpc	r14, r24
    1656:	8f ef       	ldi	r24, 0xFF	; 255
    1658:	f8 06       	cpc	r15, r24
    165a:	09 f4       	brne	.+2      	; 0x165e <dir_next+0xd8>
    165c:	b4 c0       	rjmp	.+360    	; 0x17c6 <dir_next+0x240>
    165e:	d8 01       	movw	r26, r16
    1660:	ed 91       	ld	r30, X+
    1662:	fc 91       	ld	r31, X
    1664:	86 89       	ldd	r24, Z+22	; 0x16
    1666:	97 89       	ldd	r25, Z+23	; 0x17
    1668:	a0 8d       	ldd	r26, Z+24	; 0x18
    166a:	b1 8d       	ldd	r27, Z+25	; 0x19
    166c:	c8 16       	cp	r12, r24
    166e:	d9 06       	cpc	r13, r25
    1670:	ea 06       	cpc	r14, r26
    1672:	fb 06       	cpc	r15, r27
    1674:	08 f4       	brcc	.+2      	; 0x1678 <dir_next+0xf2>
    1676:	79 c0       	rjmp	.+242    	; 0x176a <dir_next+0x1e4>
    1678:	20 97       	sbiw	r28, 0x00	; 0
    167a:	09 f4       	brne	.+2      	; 0x167e <dir_next+0xf8>
    167c:	9e c0       	rjmp	.+316    	; 0x17ba <dir_next+0x234>
    167e:	d8 01       	movw	r26, r16
    1680:	1a 96       	adiw	r26, 0x0a	; 10
    1682:	4d 91       	ld	r20, X+
    1684:	5d 91       	ld	r21, X+
    1686:	6d 91       	ld	r22, X+
    1688:	7c 91       	ld	r23, X
    168a:	1d 97       	sbiw	r26, 0x0d	; 13
    168c:	cf 01       	movw	r24, r30
    168e:	0e 94 e4 09 	call	0x13c8	; 0x13c8 <create_chain>
    1692:	6b 01       	movw	r12, r22
    1694:	7c 01       	movw	r14, r24
    1696:	61 15       	cp	r22, r1
    1698:	71 05       	cpc	r23, r1
    169a:	81 05       	cpc	r24, r1
    169c:	91 05       	cpc	r25, r1
    169e:	09 f4       	brne	.+2      	; 0x16a2 <dir_next+0x11c>
    16a0:	8e c0       	rjmp	.+284    	; 0x17be <dir_next+0x238>
    16a2:	61 30       	cpi	r22, 0x01	; 1
    16a4:	71 05       	cpc	r23, r1
    16a6:	81 05       	cpc	r24, r1
    16a8:	91 05       	cpc	r25, r1
    16aa:	09 f4       	brne	.+2      	; 0x16ae <dir_next+0x128>
    16ac:	8a c0       	rjmp	.+276    	; 0x17c2 <dir_next+0x23c>
    16ae:	6f 3f       	cpi	r22, 0xFF	; 255
    16b0:	ef ef       	ldi	r30, 0xFF	; 255
    16b2:	7e 07       	cpc	r23, r30
    16b4:	ef ef       	ldi	r30, 0xFF	; 255
    16b6:	8e 07       	cpc	r24, r30
    16b8:	ef ef       	ldi	r30, 0xFF	; 255
    16ba:	9e 07       	cpc	r25, r30
    16bc:	09 f4       	brne	.+2      	; 0x16c0 <dir_next+0x13a>
    16be:	83 c0       	rjmp	.+262    	; 0x17c6 <dir_next+0x240>
    16c0:	d8 01       	movw	r26, r16
    16c2:	8d 91       	ld	r24, X+
    16c4:	9c 91       	ld	r25, X
    16c6:	40 e0       	ldi	r20, 0x00	; 0
    16c8:	50 e0       	ldi	r21, 0x00	; 0
    16ca:	ba 01       	movw	r22, r20
    16cc:	0e 94 1b 04 	call	0x836	; 0x836 <move_window>
    16d0:	88 23       	and	r24, r24
    16d2:	09 f0       	breq	.+2      	; 0x16d6 <dir_next+0x150>
    16d4:	78 c0       	rjmp	.+240    	; 0x17c6 <dir_next+0x240>
    16d6:	d8 01       	movw	r26, r16
    16d8:	ed 91       	ld	r30, X+
    16da:	fc 91       	ld	r31, X
    16dc:	11 97       	sbiw	r26, 0x01	; 1
    16de:	be 96       	adiw	r30, 0x2e	; 46
    16e0:	81 e0       	ldi	r24, 0x01	; 1
    16e2:	92 e0       	ldi	r25, 0x02	; 2
    16e4:	01 c0       	rjmp	.+2      	; 0x16e8 <dir_next+0x162>
    16e6:	11 92       	st	Z+, r1
    16e8:	01 97       	sbiw	r24, 0x01	; 1
    16ea:	e9 f7       	brne	.-6      	; 0x16e6 <dir_next+0x160>
    16ec:	f8 01       	movw	r30, r16
    16ee:	c0 81       	ld	r28, Z
    16f0:	d1 81       	ldd	r29, Z+1	; 0x01
    16f2:	ce 01       	movw	r24, r28
    16f4:	b7 01       	movw	r22, r14
    16f6:	a6 01       	movw	r20, r12
    16f8:	0e 94 7f 07 	call	0xefe	; 0xefe <clust2sect>
    16fc:	dc 01       	movw	r26, r24
    16fe:	cb 01       	movw	r24, r22
    1700:	8a a7       	lds	r24, 0x7a
    1702:	9b a7       	lds	r25, 0x7b
    1704:	ac a7       	lds	r26, 0x7c
    1706:	bd a7       	lds	r27, 0x7d
    1708:	c0 e0       	ldi	r28, 0x00	; 0
    170a:	d1 e0       	ldi	r29, 0x01	; 1
    170c:	1b c0       	rjmp	.+54     	; 0x1744 <dir_next+0x1be>
    170e:	d4 83       	std	Z+4, r29	; 0x04
    1710:	d8 01       	movw	r26, r16
    1712:	8d 91       	ld	r24, X+
    1714:	9c 91       	ld	r25, X
    1716:	40 e0       	ldi	r20, 0x00	; 0
    1718:	50 e0       	ldi	r21, 0x00	; 0
    171a:	ba 01       	movw	r22, r20
    171c:	0e 94 1b 04 	call	0x836	; 0x836 <move_window>
    1720:	88 23       	and	r24, r24
    1722:	09 f0       	breq	.+2      	; 0x1726 <dir_next+0x1a0>
    1724:	50 c0       	rjmp	.+160    	; 0x17c6 <dir_next+0x240>
    1726:	d8 01       	movw	r26, r16
    1728:	ed 91       	ld	r30, X+
    172a:	fc 91       	ld	r31, X
    172c:	82 a5       	lds	r24, 0x62
    172e:	93 a5       	lds	r25, 0x63
    1730:	a4 a5       	lds	r26, 0x64
    1732:	b5 a5       	lds	r27, 0x65
    1734:	01 96       	adiw	r24, 0x01	; 1
    1736:	a1 1d       	adc	r26, r1
    1738:	b1 1d       	adc	r27, r1
    173a:	82 a7       	lds	r24, 0x72
    173c:	93 a7       	lds	r25, 0x73
    173e:	a4 a7       	lds	r26, 0x74
    1740:	b5 a7       	lds	r27, 0x75
    1742:	cf 5f       	subi	r28, 0xFF	; 255
    1744:	d8 01       	movw	r26, r16
    1746:	ed 91       	ld	r30, X+
    1748:	fc 91       	ld	r31, X
    174a:	11 97       	sbiw	r26, 0x01	; 1
    174c:	82 81       	ldd	r24, Z+2	; 0x02
    174e:	c8 17       	cp	r28, r24
    1750:	f0 f2       	brcs	.-68     	; 0x170e <dir_next+0x188>
    1752:	82 a5       	lds	r24, 0x62
    1754:	93 a5       	lds	r25, 0x63
    1756:	a4 a5       	lds	r26, 0x64
    1758:	b5 a5       	lds	r27, 0x65
    175a:	8c 1b       	sub	r24, r28
    175c:	91 09       	sbc	r25, r1
    175e:	a1 09       	sbc	r26, r1
    1760:	b1 09       	sbc	r27, r1
    1762:	82 a7       	lds	r24, 0x72
    1764:	93 a7       	lds	r25, 0x73
    1766:	a4 a7       	lds	r26, 0x74
    1768:	b5 a7       	lds	r27, 0x75
    176a:	f8 01       	movw	r30, r16
    176c:	c2 86       	std	Z+10, r12	; 0x0a
    176e:	d3 86       	std	Z+11, r13	; 0x0b
    1770:	e4 86       	std	Z+12, r14	; 0x0c
    1772:	f5 86       	std	Z+13, r15	; 0x0d
    1774:	80 81       	ld	r24, Z
    1776:	91 81       	ldd	r25, Z+1	; 0x01
    1778:	b7 01       	movw	r22, r14
    177a:	a6 01       	movw	r20, r12
    177c:	0e 94 7f 07 	call	0xefe	; 0xefe <clust2sect>
    1780:	dc 01       	movw	r26, r24
    1782:	cb 01       	movw	r24, r22
    1784:	f8 01       	movw	r30, r16
    1786:	86 87       	std	Z+14, r24	; 0x0e
    1788:	97 87       	std	Z+15, r25	; 0x0f
    178a:	a0 8b       	std	Z+16, r26	; 0x10
    178c:	b1 8b       	std	Z+17, r27	; 0x11
    178e:	d8 01       	movw	r26, r16
    1790:	15 96       	adiw	r26, 0x05	; 5
    1792:	bc 92       	st	X, r11
    1794:	ae 92       	st	-X, r10
    1796:	14 97       	sbiw	r26, 0x04	; 4
    1798:	8d 91       	ld	r24, X+
    179a:	9c 91       	ld	r25, X
    179c:	11 97       	sbiw	r26, 0x01	; 1
    179e:	8e 96       	adiw	r24, 0x2e	; 46
    17a0:	65 e0       	ldi	r22, 0x05	; 5
    17a2:	88 0c       	add	r8, r8
    17a4:	99 1c       	adc	r9, r9
    17a6:	6a 95       	dec	r22
    17a8:	e1 f7       	brne	.-8      	; 0x17a2 <dir_next+0x21c>
    17aa:	88 0d       	add	r24, r8
    17ac:	99 1d       	adc	r25, r9
    17ae:	53 96       	adiw	r26, 0x13	; 19
    17b0:	9c 93       	st	X, r25
    17b2:	8e 93       	st	-X, r24
    17b4:	52 97       	sbiw	r26, 0x12	; 18
    17b6:	80 e0       	ldi	r24, 0x00	; 0
    17b8:	07 c0       	rjmp	.+14     	; 0x17c8 <dir_next+0x242>
    17ba:	84 e0       	ldi	r24, 0x04	; 4
    17bc:	05 c0       	rjmp	.+10     	; 0x17c8 <dir_next+0x242>
    17be:	87 e0       	ldi	r24, 0x07	; 7
    17c0:	03 c0       	rjmp	.+6      	; 0x17c8 <dir_next+0x242>
    17c2:	82 e0       	ldi	r24, 0x02	; 2
    17c4:	01 c0       	rjmp	.+2      	; 0x17c8 <dir_next+0x242>
    17c6:	81 e0       	ldi	r24, 0x01	; 1
    17c8:	df 91       	pop	r29
    17ca:	cf 91       	pop	r28
    17cc:	1f 91       	pop	r17
    17ce:	0f 91       	pop	r16
    17d0:	ff 90       	pop	r15
    17d2:	ef 90       	pop	r14
    17d4:	df 90       	pop	r13
    17d6:	cf 90       	pop	r12
    17d8:	bf 90       	pop	r11
    17da:	af 90       	pop	r10
    17dc:	9f 90       	pop	r9
    17de:	8f 90       	pop	r8
    17e0:	08 95       	ret

000017e2 <follow_path>:
    17e2:	8f 92       	push	r8
    17e4:	9f 92       	push	r9
    17e6:	af 92       	push	r10
    17e8:	bf 92       	push	r11
    17ea:	cf 92       	push	r12
    17ec:	df 92       	push	r13
    17ee:	ef 92       	push	r14
    17f0:	ff 92       	push	r15
    17f2:	0f 93       	push	r16
    17f4:	1f 93       	push	r17
    17f6:	cf 93       	push	r28
    17f8:	df 93       	push	r29
    17fa:	8c 01       	movw	r16, r24
    17fc:	fb 01       	movw	r30, r22
    17fe:	80 81       	ld	r24, Z
    1800:	8f 32       	cpi	r24, 0x2F	; 47
    1802:	11 f0       	breq	.+4      	; 0x1808 <follow_path+0x26>
    1804:	8c 35       	cpi	r24, 0x5C	; 92
    1806:	09 f4       	brne	.+2      	; 0x180a <follow_path+0x28>
    1808:	31 96       	adiw	r30, 0x01	; 1
    180a:	d8 01       	movw	r26, r16
    180c:	16 96       	adiw	r26, 0x06	; 6
    180e:	1d 92       	st	X+, r1
    1810:	1d 92       	st	X+, r1
    1812:	1d 92       	st	X+, r1
    1814:	1c 92       	st	X, r1
    1816:	19 97       	sbiw	r26, 0x09	; 9
    1818:	80 81       	ld	r24, Z
    181a:	80 32       	cpi	r24, 0x20	; 32
    181c:	38 f4       	brcc	.+14     	; 0x182c <follow_path+0x4a>
    181e:	c8 01       	movw	r24, r16
    1820:	0e 94 7d 08 	call	0x10fa	; 0x10fa <dir_sdi.constprop.5>
    1824:	e8 01       	movw	r28, r16
    1826:	1b 8a       	std	Y+19, r1	; 0x13
    1828:	1a 8a       	std	Y+18, r1	; 0x12
    182a:	0c c1       	rjmp	.+536    	; 0x1a44 <follow_path+0x262>
    182c:	a0 e2       	ldi	r26, 0x20	; 32
    182e:	9a 2e       	mov	r9, r26
    1830:	b5 e0       	ldi	r27, 0x05	; 5
    1832:	8b 2e       	mov	r8, r27
    1834:	6f 01       	movw	r12, r30
    1836:	80 81       	ld	r24, Z
    1838:	31 96       	adiw	r30, 0x01	; 1
    183a:	8f 32       	cpi	r24, 0x2F	; 47
    183c:	d9 f3       	breq	.-10     	; 0x1834 <follow_path+0x52>
    183e:	8c 35       	cpi	r24, 0x5C	; 92
    1840:	c9 f3       	breq	.-14     	; 0x1834 <follow_path+0x52>
    1842:	f8 01       	movw	r30, r16
    1844:	e4 88       	ldd	r14, Z+20	; 0x14
    1846:	f5 88       	ldd	r15, Z+21	; 0x15
    1848:	f7 01       	movw	r30, r14
    184a:	8c e0       	ldi	r24, 0x0C	; 12
    184c:	90 e0       	ldi	r25, 0x00	; 0
    184e:	01 c0       	rjmp	.+2      	; 0x1852 <follow_path+0x70>
    1850:	91 92       	st	Z+, r9
    1852:	01 97       	sbiw	r24, 0x01	; 1
    1854:	e9 f7       	brne	.-6      	; 0x1850 <follow_path+0x6e>
    1856:	40 e0       	ldi	r20, 0x00	; 0
    1858:	50 e0       	ldi	r21, 0x00	; 0
    185a:	60 e0       	ldi	r22, 0x00	; 0
    185c:	70 e0       	ldi	r23, 0x00	; 0
    185e:	c8 e0       	ldi	r28, 0x08	; 8
    1860:	d0 e0       	ldi	r29, 0x00	; 0
    1862:	30 e0       	ldi	r19, 0x00	; 0
    1864:	01 c0       	rjmp	.+2      	; 0x1868 <follow_path+0x86>
    1866:	b5 01       	movw	r22, r10
    1868:	f6 01       	movw	r30, r12
    186a:	e6 0f       	add	r30, r22
    186c:	f7 1f       	adc	r31, r23
    186e:	20 81       	ld	r18, Z
    1870:	5b 01       	movw	r10, r22
    1872:	08 94       	sec
    1874:	a1 1c       	adc	r10, r1
    1876:	b1 1c       	adc	r11, r1
    1878:	21 32       	cpi	r18, 0x21	; 33
    187a:	08 f4       	brcc	.+2      	; 0x187e <follow_path+0x9c>
    187c:	60 c0       	rjmp	.+192    	; 0x193e <follow_path+0x15c>
    187e:	2f 32       	cpi	r18, 0x2F	; 47
    1880:	09 f4       	brne	.+2      	; 0x1884 <follow_path+0xa2>
    1882:	5f c0       	rjmp	.+190    	; 0x1942 <follow_path+0x160>
    1884:	2c 35       	cpi	r18, 0x5C	; 92
    1886:	09 f4       	brne	.+2      	; 0x188a <follow_path+0xa8>
    1888:	5c c0       	rjmp	.+184    	; 0x1942 <follow_path+0x160>
    188a:	2e 32       	cpi	r18, 0x2E	; 46
    188c:	19 f0       	breq	.+6      	; 0x1894 <follow_path+0xb2>
    188e:	4c 17       	cp	r20, r28
    1890:	5d 07       	cpc	r21, r29
    1892:	70 f0       	brcs	.+28     	; 0x18b0 <follow_path+0xce>
    1894:	c8 30       	cpi	r28, 0x08	; 8
    1896:	d1 05       	cpc	r29, r1
    1898:	09 f0       	breq	.+2      	; 0x189c <follow_path+0xba>
    189a:	d1 c0       	rjmp	.+418    	; 0x1a3e <follow_path+0x25c>
    189c:	2e 32       	cpi	r18, 0x2E	; 46
    189e:	09 f0       	breq	.+2      	; 0x18a2 <follow_path+0xc0>
    18a0:	ce c0       	rjmp	.+412    	; 0x1a3e <follow_path+0x25c>
    18a2:	33 0f       	add	r19, r19
    18a4:	33 0f       	add	r19, r19
    18a6:	48 e0       	ldi	r20, 0x08	; 8
    18a8:	50 e0       	ldi	r21, 0x00	; 0
    18aa:	cb e0       	ldi	r28, 0x0B	; 11
    18ac:	d0 e0       	ldi	r29, 0x00	; 0
    18ae:	db cf       	rjmp	.-74     	; 0x1866 <follow_path+0x84>
    18b0:	27 fd       	sbrc	r18, 7
    18b2:	33 60       	ori	r19, 0x03	; 3
    18b4:	82 2f       	mov	r24, r18
    18b6:	81 58       	subi	r24, 0x81	; 129
    18b8:	8f 31       	cpi	r24, 0x1F	; 31
    18ba:	18 f0       	brcs	.+6      	; 0x18c2 <follow_path+0xe0>
    18bc:	8f 55       	subi	r24, 0x5F	; 95
    18be:	8d 31       	cpi	r24, 0x1D	; 29
    18c0:	f8 f4       	brcc	.+62     	; 0x1900 <follow_path+0x11e>
    18c2:	f6 01       	movw	r30, r12
    18c4:	ea 0d       	add	r30, r10
    18c6:	fb 1d       	adc	r31, r11
    18c8:	a0 81       	ld	r26, Z
    18ca:	8a 2f       	mov	r24, r26
    18cc:	80 54       	subi	r24, 0x40	; 64
    18ce:	8f 33       	cpi	r24, 0x3F	; 63
    18d0:	20 f0       	brcs	.+8      	; 0x18da <follow_path+0xf8>
    18d2:	80 54       	subi	r24, 0x40	; 64
    18d4:	8d 37       	cpi	r24, 0x7D	; 125
    18d6:	08 f0       	brcs	.+2      	; 0x18da <follow_path+0xf8>
    18d8:	b2 c0       	rjmp	.+356    	; 0x1a3e <follow_path+0x25c>
    18da:	ce 01       	movw	r24, r28
    18dc:	01 97       	sbiw	r24, 0x01	; 1
    18de:	48 17       	cp	r20, r24
    18e0:	59 07       	cpc	r21, r25
    18e2:	08 f0       	brcs	.+2      	; 0x18e6 <follow_path+0x104>
    18e4:	ac c0       	rjmp	.+344    	; 0x1a3e <follow_path+0x25c>
    18e6:	e2 e0       	ldi	r30, 0x02	; 2
    18e8:	ae 2e       	mov	r10, r30
    18ea:	b1 2c       	mov	r11, r1
    18ec:	a6 0e       	add	r10, r22
    18ee:	b7 1e       	adc	r11, r23
    18f0:	f7 01       	movw	r30, r14
    18f2:	e4 0f       	add	r30, r20
    18f4:	f5 1f       	adc	r31, r21
    18f6:	20 83       	st	Z, r18
    18f8:	a1 83       	std	Z+1, r26	; 0x01
    18fa:	4e 5f       	subi	r20, 0xFE	; 254
    18fc:	5f 4f       	sbci	r21, 0xFF	; 255
    18fe:	b3 cf       	rjmp	.-154    	; 0x1866 <follow_path+0x84>
    1900:	62 2f       	mov	r22, r18
    1902:	70 e0       	ldi	r23, 0x00	; 0
    1904:	e0 e0       	ldi	r30, 0x00	; 0
    1906:	f1 e0       	ldi	r31, 0x01	; 1
    1908:	81 91       	ld	r24, Z+
    190a:	88 23       	and	r24, r24
    190c:	29 f0       	breq	.+10     	; 0x1918 <follow_path+0x136>
    190e:	90 e0       	ldi	r25, 0x00	; 0
    1910:	86 17       	cp	r24, r22
    1912:	97 07       	cpc	r25, r23
    1914:	c9 f7       	brne	.-14     	; 0x1908 <follow_path+0x126>
    1916:	93 c0       	rjmp	.+294    	; 0x1a3e <follow_path+0x25c>
    1918:	82 2f       	mov	r24, r18
    191a:	81 54       	subi	r24, 0x41	; 65
    191c:	8a 31       	cpi	r24, 0x1A	; 26
    191e:	10 f4       	brcc	.+4      	; 0x1924 <follow_path+0x142>
    1920:	32 60       	ori	r19, 0x02	; 2
    1922:	06 c0       	rjmp	.+12     	; 0x1930 <follow_path+0x14e>
    1924:	82 2f       	mov	r24, r18
    1926:	81 56       	subi	r24, 0x61	; 97
    1928:	8a 31       	cpi	r24, 0x1A	; 26
    192a:	10 f4       	brcc	.+4      	; 0x1930 <follow_path+0x14e>
    192c:	31 60       	ori	r19, 0x01	; 1
    192e:	20 52       	subi	r18, 0x20	; 32
    1930:	f7 01       	movw	r30, r14
    1932:	e4 0f       	add	r30, r20
    1934:	f5 1f       	adc	r31, r21
    1936:	20 83       	st	Z, r18
    1938:	4f 5f       	subi	r20, 0xFF	; 255
    193a:	5f 4f       	sbci	r21, 0xFF	; 255
    193c:	94 cf       	rjmp	.-216    	; 0x1866 <follow_path+0x84>
    193e:	64 e0       	ldi	r22, 0x04	; 4
    1940:	01 c0       	rjmp	.+2      	; 0x1944 <follow_path+0x162>
    1942:	60 e0       	ldi	r22, 0x00	; 0
    1944:	41 15       	cp	r20, r1
    1946:	51 05       	cpc	r21, r1
    1948:	09 f4       	brne	.+2      	; 0x194c <follow_path+0x16a>
    194a:	79 c0       	rjmp	.+242    	; 0x1a3e <follow_path+0x25c>
    194c:	d7 01       	movw	r26, r14
    194e:	8c 91       	ld	r24, X
    1950:	85 3e       	cpi	r24, 0xE5	; 229
    1952:	09 f4       	brne	.+2      	; 0x1956 <follow_path+0x174>
    1954:	8c 92       	st	X, r8
    1956:	c8 30       	cpi	r28, 0x08	; 8
    1958:	d1 05       	cpc	r29, r1
    195a:	11 f4       	brne	.+4      	; 0x1960 <follow_path+0x17e>
    195c:	33 0f       	add	r19, r19
    195e:	33 0f       	add	r19, r19
    1960:	83 2f       	mov	r24, r19
    1962:	90 e0       	ldi	r25, 0x00	; 0
    1964:	9c 01       	movw	r18, r24
    1966:	23 70       	andi	r18, 0x03	; 3
    1968:	30 70       	andi	r19, 0x00	; 0
    196a:	21 30       	cpi	r18, 0x01	; 1
    196c:	31 05       	cpc	r19, r1
    196e:	09 f4       	brne	.+2      	; 0x1972 <follow_path+0x190>
    1970:	60 61       	ori	r22, 0x10	; 16
    1972:	8c 70       	andi	r24, 0x0C	; 12
    1974:	90 70       	andi	r25, 0x00	; 0
    1976:	84 30       	cpi	r24, 0x04	; 4
    1978:	91 05       	cpc	r25, r1
    197a:	09 f4       	brne	.+2      	; 0x197e <follow_path+0x19c>
    197c:	68 60       	ori	r22, 0x08	; 8
    197e:	e7 01       	movw	r28, r14
    1980:	6b 87       	std	Y+11, r22	; 0x0b
    1982:	c8 01       	movw	r24, r16
    1984:	0e 94 7d 08 	call	0x10fa	; 0x10fa <dir_sdi.constprop.5>
    1988:	88 23       	and	r24, r24
    198a:	51 f5       	brne	.+84     	; 0x19e0 <follow_path+0x1fe>
    198c:	f8 01       	movw	r30, r16
    198e:	46 85       	ldd	r20, Z+14	; 0x0e
    1990:	57 85       	ldd	r21, Z+15	; 0x0f
    1992:	60 89       	ldd	r22, Z+16	; 0x10
    1994:	71 89       	ldd	r23, Z+17	; 0x11
    1996:	80 81       	ld	r24, Z
    1998:	91 81       	ldd	r25, Z+1	; 0x01
    199a:	0e 94 1b 04 	call	0x836	; 0x836 <move_window>
    199e:	88 23       	and	r24, r24
    19a0:	f9 f4       	brne	.+62     	; 0x19e0 <follow_path+0x1fe>
    19a2:	d8 01       	movw	r26, r16
    19a4:	52 96       	adiw	r26, 0x12	; 18
    19a6:	ed 91       	ld	r30, X+
    19a8:	fc 91       	ld	r31, X
    19aa:	53 97       	sbiw	r26, 0x13	; 19
    19ac:	90 81       	ld	r25, Z
    19ae:	99 23       	and	r25, r25
    19b0:	b1 f0       	breq	.+44     	; 0x19de <follow_path+0x1fc>
    19b2:	93 85       	ldd	r25, Z+11	; 0x0b
    19b4:	93 fd       	sbrc	r25, 3
    19b6:	0d c0       	rjmp	.+26     	; 0x19d2 <follow_path+0x1f0>
    19b8:	54 96       	adiw	r26, 0x14	; 20
    19ba:	0d 90       	ld	r0, X+
    19bc:	bc 91       	ld	r27, X
    19be:	a0 2d       	mov	r26, r0
    19c0:	2c e0       	ldi	r18, 0x0C	; 12
    19c2:	30 e0       	ldi	r19, 0x00	; 0
    19c4:	21 50       	subi	r18, 0x01	; 1
    19c6:	30 40       	sbci	r19, 0x00	; 0
    19c8:	59 f0       	breq	.+22     	; 0x19e0 <follow_path+0x1fe>
    19ca:	41 91       	ld	r20, Z+
    19cc:	9d 91       	ld	r25, X+
    19ce:	49 17       	cp	r20, r25
    19d0:	c9 f3       	breq	.-14     	; 0x19c4 <follow_path+0x1e2>
    19d2:	c8 01       	movw	r24, r16
    19d4:	60 e0       	ldi	r22, 0x00	; 0
    19d6:	70 e0       	ldi	r23, 0x00	; 0
    19d8:	0e 94 c3 0a 	call	0x1586	; 0x1586 <dir_next>
    19dc:	d5 cf       	rjmp	.-86     	; 0x1988 <follow_path+0x1a6>
    19de:	84 e0       	ldi	r24, 0x04	; 4
    19e0:	e8 01       	movw	r28, r16
    19e2:	ec 89       	ldd	r30, Y+20	; 0x14
    19e4:	fd 89       	ldd	r31, Y+21	; 0x15
    19e6:	93 85       	ldd	r25, Z+11	; 0x0b
    19e8:	88 23       	and	r24, r24
    19ea:	29 f0       	breq	.+10     	; 0x19f6 <follow_path+0x214>
    19ec:	84 30       	cpi	r24, 0x04	; 4
    19ee:	51 f5       	brne	.+84     	; 0x1a44 <follow_path+0x262>
    19f0:	92 ff       	sbrs	r25, 2
    19f2:	27 c0       	rjmp	.+78     	; 0x1a42 <follow_path+0x260>
    19f4:	27 c0       	rjmp	.+78     	; 0x1a44 <follow_path+0x262>
    19f6:	92 fd       	sbrc	r25, 2
    19f8:	25 c0       	rjmp	.+74     	; 0x1a44 <follow_path+0x262>
    19fa:	aa 89       	ldd	r26, Y+18	; 0x12
    19fc:	bb 89       	ldd	r27, Y+19	; 0x13
    19fe:	1b 96       	adiw	r26, 0x0b	; 11
    1a00:	8c 91       	ld	r24, X
    1a02:	1b 97       	sbiw	r26, 0x0b	; 11
    1a04:	84 ff       	sbrs	r24, 4
    1a06:	1d c0       	rjmp	.+58     	; 0x1a42 <follow_path+0x260>
    1a08:	f6 01       	movw	r30, r12
    1a0a:	ea 0d       	add	r30, r10
    1a0c:	fb 1d       	adc	r31, r11
    1a0e:	54 96       	adiw	r26, 0x14	; 20
    1a10:	4d 91       	ld	r20, X+
    1a12:	5c 91       	ld	r21, X
    1a14:	55 97       	sbiw	r26, 0x15	; 21
    1a16:	60 e0       	ldi	r22, 0x00	; 0
    1a18:	70 e0       	ldi	r23, 0x00	; 0
    1a1a:	ba 01       	movw	r22, r20
    1a1c:	55 27       	eor	r21, r21
    1a1e:	44 27       	eor	r20, r20
    1a20:	5a 96       	adiw	r26, 0x1a	; 26
    1a22:	8d 91       	ld	r24, X+
    1a24:	9c 91       	ld	r25, X
    1a26:	5b 97       	sbiw	r26, 0x1b	; 27
    1a28:	a0 e0       	ldi	r26, 0x00	; 0
    1a2a:	b0 e0       	ldi	r27, 0x00	; 0
    1a2c:	48 2b       	or	r20, r24
    1a2e:	59 2b       	or	r21, r25
    1a30:	6a 2b       	or	r22, r26
    1a32:	7b 2b       	or	r23, r27
    1a34:	4e 83       	std	Y+6, r20	; 0x06
    1a36:	5f 83       	std	Y+7, r21	; 0x07
    1a38:	68 87       	std	Y+8, r22	; 0x08
    1a3a:	79 87       	std	Y+9, r23	; 0x09
    1a3c:	fb ce       	rjmp	.-522    	; 0x1834 <follow_path+0x52>
    1a3e:	86 e0       	ldi	r24, 0x06	; 6
    1a40:	01 c0       	rjmp	.+2      	; 0x1a44 <follow_path+0x262>
    1a42:	85 e0       	ldi	r24, 0x05	; 5
    1a44:	df 91       	pop	r29
    1a46:	cf 91       	pop	r28
    1a48:	1f 91       	pop	r17
    1a4a:	0f 91       	pop	r16
    1a4c:	ff 90       	pop	r15
    1a4e:	ef 90       	pop	r14
    1a50:	df 90       	pop	r13
    1a52:	cf 90       	pop	r12
    1a54:	bf 90       	pop	r11
    1a56:	af 90       	pop	r10
    1a58:	9f 90       	pop	r9
    1a5a:	8f 90       	pop	r8
    1a5c:	08 95       	ret

00001a5e <f_mount>:
    1a5e:	88 23       	and	r24, r24
    1a60:	91 f4       	brne	.+36     	; 0x1a86 <f_mount+0x28>
    1a62:	e0 91 8a 01 	lds	r30, 0x018A
    1a66:	f0 91 8b 01 	lds	r31, 0x018B
    1a6a:	30 97       	sbiw	r30, 0x00	; 0
    1a6c:	09 f0       	breq	.+2      	; 0x1a70 <f_mount+0x12>
    1a6e:	10 82       	st	Z, r1
    1a70:	61 15       	cp	r22, r1
    1a72:	71 05       	cpc	r23, r1
    1a74:	11 f0       	breq	.+4      	; 0x1a7a <f_mount+0x1c>
    1a76:	fb 01       	movw	r30, r22
    1a78:	10 82       	st	Z, r1
    1a7a:	70 93 8b 01 	sts	0x018B, r23
    1a7e:	60 93 8a 01 	sts	0x018A, r22
    1a82:	80 e0       	ldi	r24, 0x00	; 0
    1a84:	08 95       	ret
    1a86:	8b e0       	ldi	r24, 0x0B	; 11
    1a88:	08 95       	ret

00001a8a <f_open>:
    1a8a:	2f 92       	push	r2
    1a8c:	3f 92       	push	r3
    1a8e:	4f 92       	push	r4
    1a90:	5f 92       	push	r5
    1a92:	6f 92       	push	r6
    1a94:	7f 92       	push	r7
    1a96:	8f 92       	push	r8
    1a98:	9f 92       	push	r9
    1a9a:	af 92       	push	r10
    1a9c:	bf 92       	push	r11
    1a9e:	cf 92       	push	r12
    1aa0:	df 92       	push	r13
    1aa2:	ef 92       	push	r14
    1aa4:	ff 92       	push	r15
    1aa6:	0f 93       	push	r16
    1aa8:	1f 93       	push	r17
    1aaa:	cf 93       	push	r28
    1aac:	df 93       	push	r29
    1aae:	cd b7       	in	r28, 0x3d	; 61
    1ab0:	de b7       	in	r29, 0x3e	; 62
    1ab2:	ad 97       	sbiw	r28, 0x2d	; 45
    1ab4:	0f b6       	in	r0, 0x3f	; 63
    1ab6:	f8 94       	cli
    1ab8:	de bf       	out	0x3e, r29	; 62
    1aba:	0f be       	out	0x3f, r0	; 63
    1abc:	cd bf       	out	0x3d, r28	; 61
    1abe:	98 a7       	lds	r25, 0x78
    1ac0:	8f a3       	lds	r24, 0x5f
    1ac2:	7c a3       	lds	r23, 0x5c
    1ac4:	6b a3       	lds	r22, 0x5b
    1ac6:	dc 01       	movw	r26, r24
    1ac8:	1d 92       	st	X+, r1
    1aca:	1c 92       	st	X, r1
    1acc:	b4 2f       	mov	r27, r20
    1ace:	bf 71       	andi	r27, 0x1F	; 31
    1ad0:	b9 a7       	lds	r27, 0x79
    1ad2:	4e 71       	andi	r20, 0x1E	; 30
    1ad4:	ce 01       	movw	r24, r28
    1ad6:	83 96       	adiw	r24, 0x23	; 35
    1ad8:	be 01       	movw	r22, r28
    1ada:	63 5f       	subi	r22, 0xF3	; 243
    1adc:	7f 4f       	sbci	r23, 0xFF	; 255
    1ade:	0e 94 ee 04 	call	0x9dc	; 0x9dc <chk_mounted>
    1ae2:	18 2f       	mov	r17, r24
    1ae4:	ce 01       	movw	r24, r28
    1ae6:	01 96       	adiw	r24, 0x01	; 1
    1ae8:	9a a3       	lds	r25, 0x5a
    1aea:	89 a3       	lds	r24, 0x59
    1aec:	11 23       	and	r17, r17
    1aee:	39 f4       	brne	.+14     	; 0x1afe <f_open+0x74>
    1af0:	6b a1       	lds	r22, 0x4b
    1af2:	7c a1       	lds	r23, 0x4c
    1af4:	ce 01       	movw	r24, r28
    1af6:	0d 96       	adiw	r24, 0x0d	; 13
    1af8:	0e 94 f1 0b 	call	0x17e2	; 0x17e2 <follow_path>
    1afc:	18 2f       	mov	r17, r24
    1afe:	ef 8d       	ldd	r30, Y+31	; 0x1f
    1b00:	f8 a1       	lds	r31, 0x48
    1b02:	fe a3       	lds	r31, 0x5e
    1b04:	ed a3       	lds	r30, 0x5d
    1b06:	11 23       	and	r17, r17
    1b08:	19 f4       	brne	.+6      	; 0x1b10 <f_open+0x86>
    1b0a:	30 97       	sbiw	r30, 0x00	; 0
    1b0c:	09 f4       	brne	.+2      	; 0x1b10 <f_open+0x86>
    1b0e:	16 e0       	ldi	r17, 0x06	; 6
    1b10:	f9 a5       	lds	r31, 0x69
    1b12:	2f 2f       	mov	r18, r31
    1b14:	30 e0       	ldi	r19, 0x00	; 0
    1b16:	c9 01       	movw	r24, r18
    1b18:	8c 71       	andi	r24, 0x1C	; 28
    1b1a:	90 70       	andi	r25, 0x00	; 0
    1b1c:	00 97       	sbiw	r24, 0x00	; 0
    1b1e:	09 f4       	brne	.+2      	; 0x1b22 <f_open+0x98>
    1b20:	f9 c0       	rjmp	.+498    	; 0x1d14 <f_open+0x28a>
    1b22:	11 23       	and	r17, r17
    1b24:	09 f4       	brne	.+2      	; 0x1b28 <f_open+0x9e>
    1b26:	4c c0       	rjmp	.+152    	; 0x1bc0 <f_open+0x136>
    1b28:	14 30       	cpi	r17, 0x04	; 4
    1b2a:	09 f0       	breq	.+2      	; 0x1b2e <f_open+0xa4>
    1b2c:	3e c0       	rjmp	.+124    	; 0x1baa <f_open+0x120>
    1b2e:	8d e0       	ldi	r24, 0x0D	; 13
    1b30:	e8 2e       	mov	r14, r24
    1b32:	f1 2c       	mov	r15, r1
    1b34:	ec 0e       	add	r14, r28
    1b36:	fd 1e       	adc	r15, r29
    1b38:	c7 01       	movw	r24, r14
    1b3a:	0e 94 7d 08 	call	0x10fa	; 0x10fa <dir_sdi.constprop.5>
    1b3e:	18 2f       	mov	r17, r24
    1b40:	88 23       	and	r24, r24
    1b42:	99 f5       	brne	.+102    	; 0x1baa <f_open+0x120>
    1b44:	cf 2c       	mov	r12, r15
    1b46:	4b 8d       	ldd	r20, Y+27	; 0x1b
    1b48:	5c 8d       	ldd	r21, Y+28	; 0x1c
    1b4a:	6d 8d       	ldd	r22, Y+29	; 0x1d
    1b4c:	7e 8d       	ldd	r23, Y+30	; 0x1e
    1b4e:	8d 85       	ldd	r24, Y+13	; 0x0d
    1b50:	9e 85       	ldd	r25, Y+14	; 0x0e
    1b52:	0e 94 1b 04 	call	0x836	; 0x836 <move_window>
    1b56:	18 2f       	mov	r17, r24
    1b58:	88 23       	and	r24, r24
    1b5a:	39 f5       	brne	.+78     	; 0x1baa <f_open+0x120>
    1b5c:	ef 8d       	ldd	r30, Y+31	; 0x1f
    1b5e:	f8 a1       	lds	r31, 0x48
    1b60:	80 81       	ld	r24, Z
    1b62:	85 3e       	cpi	r24, 0xE5	; 229
    1b64:	09 f4       	brne	.+2      	; 0x1b68 <f_open+0xde>
    1b66:	5d c1       	rjmp	.+698    	; 0x1e22 <f_open+0x398>
    1b68:	88 23       	and	r24, r24
    1b6a:	09 f4       	brne	.+2      	; 0x1b6e <f_open+0xe4>
    1b6c:	5a c1       	rjmp	.+692    	; 0x1e22 <f_open+0x398>
    1b6e:	8e 2d       	mov	r24, r14
    1b70:	9c 2d       	mov	r25, r12
    1b72:	61 e0       	ldi	r22, 0x01	; 1
    1b74:	70 e0       	ldi	r23, 0x00	; 0
    1b76:	0e 94 c3 0a 	call	0x1586	; 0x1586 <dir_next>
    1b7a:	18 2f       	mov	r17, r24
    1b7c:	88 23       	and	r24, r24
    1b7e:	19 f3       	breq	.-58     	; 0x1b46 <f_open+0xbc>
    1b80:	14 c0       	rjmp	.+40     	; 0x1baa <f_open+0x120>
    1b82:	8f 8d       	ldd	r24, Y+31	; 0x1f
    1b84:	98 a1       	lds	r25, 0x48
    1b86:	fc 01       	movw	r30, r24
    1b88:	21 e2       	ldi	r18, 0x21	; 33
    1b8a:	30 e0       	ldi	r19, 0x00	; 0
    1b8c:	01 c0       	rjmp	.+2      	; 0x1b90 <f_open+0x106>
    1b8e:	11 92       	st	Z+, r1
    1b90:	21 50       	subi	r18, 0x01	; 1
    1b92:	30 40       	sbci	r19, 0x00	; 0
    1b94:	e1 f7       	brne	.-8      	; 0x1b8e <f_open+0x104>
    1b96:	69 a1       	lds	r22, 0x49
    1b98:	7a a1       	lds	r23, 0x4a
    1b9a:	4b e0       	ldi	r20, 0x0B	; 11
    1b9c:	50 e0       	ldi	r21, 0x00	; 0
    1b9e:	0e 94 fd 03 	call	0x7fa	; 0x7fa <mem_cpy>
    1ba2:	ed 85       	ldd	r30, Y+13	; 0x0d
    1ba4:	fe 85       	ldd	r31, Y+14	; 0x0e
    1ba6:	81 e0       	ldi	r24, 0x01	; 1
    1ba8:	84 83       	std	Z+4, r24	; 0x04
    1baa:	8f 8d       	ldd	r24, Y+31	; 0x1f
    1bac:	98 a1       	lds	r25, 0x48
    1bae:	9e a3       	lds	r25, 0x5e
    1bb0:	8d a3       	lds	r24, 0x5d
    1bb2:	11 23       	and	r17, r17
    1bb4:	09 f0       	breq	.+2      	; 0x1bb8 <f_open+0x12e>
    1bb6:	1b c1       	rjmp	.+566    	; 0x1dee <f_open+0x364>
    1bb8:	99 a5       	lds	r25, 0x69
    1bba:	98 60       	ori	r25, 0x08	; 8
    1bbc:	99 a7       	lds	r25, 0x79
    1bbe:	0a c0       	rjmp	.+20     	; 0x1bd4 <f_open+0x14a>
    1bc0:	ad a1       	lds	r26, 0x4d
    1bc2:	be a1       	lds	r27, 0x4e
    1bc4:	1b 96       	adiw	r26, 0x0b	; 11
    1bc6:	8c 91       	ld	r24, X
    1bc8:	1b 97       	sbiw	r26, 0x0b	; 11
    1bca:	81 71       	andi	r24, 0x11	; 17
    1bcc:	09 f0       	breq	.+2      	; 0x1bd0 <f_open+0x146>
    1bce:	51 c1       	rjmp	.+674    	; 0x1e72 <f_open+0x3e8>
    1bd0:	f2 fd       	sbrc	r31, 2
    1bd2:	34 c1       	rjmp	.+616    	; 0x1e3c <f_open+0x3b2>
    1bd4:	b9 a5       	lds	r27, 0x69
    1bd6:	b3 ff       	sbrs	r27, 3
    1bd8:	ab c0       	rjmp	.+342    	; 0x1d30 <f_open+0x2a6>
    1bda:	0e 94 11 1a 	call	0x3422	; 0x3422 <get_fattime>
    1bde:	dc 01       	movw	r26, r24
    1be0:	cb 01       	movw	r24, r22
    1be2:	ed a1       	lds	r30, 0x4d
    1be4:	fe a1       	lds	r31, 0x4e
    1be6:	86 87       	std	Z+14, r24	; 0x0e
    1be8:	97 87       	std	Z+15, r25	; 0x0f
    1bea:	a0 8b       	std	Z+16, r26	; 0x10
    1bec:	b1 8b       	std	Z+17, r27	; 0x11
    1bee:	13 86       	std	Z+11, r1	; 0x0b
    1bf0:	14 8e       	std	Z+28, r1	; 0x1c
    1bf2:	15 8e       	std	Z+29, r1	; 0x1d
    1bf4:	16 8e       	std	Z+30, r1	; 0x1e
    1bf6:	17 8e       	std	Z+31, r1	; 0x1f
    1bf8:	84 88       	ldd	r8, Z+20	; 0x14
    1bfa:	95 88       	ldd	r9, Z+21	; 0x15
    1bfc:	aa 24       	eor	r10, r10
    1bfe:	bb 24       	eor	r11, r11
    1c00:	54 01       	movw	r10, r8
    1c02:	99 24       	eor	r9, r9
    1c04:	88 24       	eor	r8, r8
    1c06:	82 8d       	ldd	r24, Z+26	; 0x1a
    1c08:	93 8d       	ldd	r25, Z+27	; 0x1b
    1c0a:	a0 e0       	ldi	r26, 0x00	; 0
    1c0c:	b0 e0       	ldi	r27, 0x00	; 0
    1c0e:	88 2a       	or	r8, r24
    1c10:	99 2a       	or	r9, r25
    1c12:	aa 2a       	or	r10, r26
    1c14:	bb 2a       	or	r11, r27
    1c16:	13 8e       	std	Z+27, r1	; 0x1b
    1c18:	12 8e       	std	Z+26, r1	; 0x1a
    1c1a:	15 8a       	std	Z+21, r1	; 0x15
    1c1c:	14 8a       	std	Z+20, r1	; 0x14
    1c1e:	2d 84       	ldd	r2, Y+13	; 0x0d
    1c20:	3e 84       	ldd	r3, Y+14	; 0x0e
    1c22:	81 e0       	ldi	r24, 0x01	; 1
    1c24:	d1 01       	movw	r26, r2
    1c26:	14 96       	adiw	r26, 0x04	; 4
    1c28:	8c 93       	st	X, r24
    1c2a:	14 97       	sbiw	r26, 0x04	; 4
    1c2c:	81 14       	cp	r8, r1
    1c2e:	91 04       	cpc	r9, r1
    1c30:	a1 04       	cpc	r10, r1
    1c32:	b1 04       	cpc	r11, r1
    1c34:	09 f4       	brne	.+2      	; 0x1c38 <f_open+0x1ae>
    1c36:	7c c0       	rjmp	.+248    	; 0x1d30 <f_open+0x2a6>
    1c38:	9a 96       	adiw	r26, 0x2a	; 42
    1c3a:	8d 91       	ld	r24, X+
    1c3c:	9d 91       	ld	r25, X+
    1c3e:	0d 90       	ld	r0, X+
    1c40:	bc 91       	ld	r27, X
    1c42:	a0 2d       	mov	r26, r0
    1c44:	8a a7       	lds	r24, 0x7a
    1c46:	9b a7       	lds	r25, 0x7b
    1c48:	ac a7       	lds	r26, 0x7c
    1c4a:	bd a7       	lds	r27, 0x7d
    1c4c:	b1 e0       	ldi	r27, 0x01	; 1
    1c4e:	8b 16       	cp	r8, r27
    1c50:	91 04       	cpc	r9, r1
    1c52:	a1 04       	cpc	r10, r1
    1c54:	b1 04       	cpc	r11, r1
    1c56:	09 f4       	brne	.+2      	; 0x1c5a <f_open+0x1d0>
    1c58:	59 c0       	rjmp	.+178    	; 0x1d0c <f_open+0x282>
    1c5a:	f1 01       	movw	r30, r2
    1c5c:	86 89       	ldd	r24, Z+22	; 0x16
    1c5e:	97 89       	ldd	r25, Z+23	; 0x17
    1c60:	a0 8d       	ldd	r26, Z+24	; 0x18
    1c62:	b1 8d       	ldd	r27, Z+25	; 0x19
    1c64:	88 16       	cp	r8, r24
    1c66:	99 06       	cpc	r9, r25
    1c68:	aa 06       	cpc	r10, r26
    1c6a:	bb 06       	cpc	r11, r27
    1c6c:	08 f0       	brcs	.+2      	; 0x1c70 <f_open+0x1e6>
    1c6e:	4e c0       	rjmp	.+156    	; 0x1d0c <f_open+0x282>
    1c70:	75 01       	movw	r14, r10
    1c72:	64 01       	movw	r12, r8
    1c74:	3f c0       	rjmp	.+126    	; 0x1cf4 <f_open+0x26a>
    1c76:	c1 01       	movw	r24, r2
    1c78:	b7 01       	movw	r22, r14
    1c7a:	a6 01       	movw	r20, r12
    1c7c:	0e 94 b3 07 	call	0xf66	; 0xf66 <get_fat>
    1c80:	2b 01       	movw	r4, r22
    1c82:	3c 01       	movw	r6, r24
    1c84:	61 15       	cp	r22, r1
    1c86:	71 05       	cpc	r23, r1
    1c88:	81 05       	cpc	r24, r1
    1c8a:	91 05       	cpc	r25, r1
    1c8c:	09 f4       	brne	.+2      	; 0x1c90 <f_open+0x206>
    1c8e:	d8 c0       	rjmp	.+432    	; 0x1e40 <f_open+0x3b6>
    1c90:	61 30       	cpi	r22, 0x01	; 1
    1c92:	71 05       	cpc	r23, r1
    1c94:	81 05       	cpc	r24, r1
    1c96:	91 05       	cpc	r25, r1
    1c98:	c9 f1       	breq	.+114    	; 0x1d0c <f_open+0x282>
    1c9a:	6f 3f       	cpi	r22, 0xFF	; 255
    1c9c:	2f ef       	ldi	r18, 0xFF	; 255
    1c9e:	72 07       	cpc	r23, r18
    1ca0:	2f ef       	ldi	r18, 0xFF	; 255
    1ca2:	82 07       	cpc	r24, r18
    1ca4:	2f ef       	ldi	r18, 0xFF	; 255
    1ca6:	92 07       	cpc	r25, r18
    1ca8:	99 f1       	breq	.+102    	; 0x1d10 <f_open+0x286>
    1caa:	c1 01       	movw	r24, r2
    1cac:	b7 01       	movw	r22, r14
    1cae:	a6 01       	movw	r20, r12
    1cb0:	00 e0       	ldi	r16, 0x00	; 0
    1cb2:	10 e0       	ldi	r17, 0x00	; 0
    1cb4:	98 01       	movw	r18, r16
    1cb6:	0e 94 02 09 	call	0x1204	; 0x1204 <put_fat>
    1cba:	18 2f       	mov	r17, r24
    1cbc:	88 23       	and	r24, r24
    1cbe:	09 f0       	breq	.+2      	; 0x1cc2 <f_open+0x238>
    1cc0:	96 c0       	rjmp	.+300    	; 0x1dee <f_open+0x364>
    1cc2:	f1 01       	movw	r30, r2
    1cc4:	86 85       	ldd	r24, Z+14	; 0x0e
    1cc6:	97 85       	ldd	r25, Z+15	; 0x0f
    1cc8:	a0 89       	ldd	r26, Z+16	; 0x10
    1cca:	b1 89       	ldd	r27, Z+17	; 0x11
    1ccc:	8f 3f       	cpi	r24, 0xFF	; 255
    1cce:	ff ef       	ldi	r31, 0xFF	; 255
    1cd0:	9f 07       	cpc	r25, r31
    1cd2:	ff ef       	ldi	r31, 0xFF	; 255
    1cd4:	af 07       	cpc	r26, r31
    1cd6:	ff ef       	ldi	r31, 0xFF	; 255
    1cd8:	bf 07       	cpc	r27, r31
    1cda:	51 f0       	breq	.+20     	; 0x1cf0 <f_open+0x266>
    1cdc:	01 96       	adiw	r24, 0x01	; 1
    1cde:	a1 1d       	adc	r26, r1
    1ce0:	b1 1d       	adc	r27, r1
    1ce2:	f1 01       	movw	r30, r2
    1ce4:	86 87       	std	Z+14, r24	; 0x0e
    1ce6:	97 87       	std	Z+15, r25	; 0x0f
    1ce8:	a0 8b       	std	Z+16, r26	; 0x10
    1cea:	b1 8b       	std	Z+17, r27	; 0x11
    1cec:	21 e0       	ldi	r18, 0x01	; 1
    1cee:	25 83       	std	Z+5, r18	; 0x05
    1cf0:	73 01       	movw	r14, r6
    1cf2:	62 01       	movw	r12, r4
    1cf4:	f1 01       	movw	r30, r2
    1cf6:	86 89       	ldd	r24, Z+22	; 0x16
    1cf8:	97 89       	ldd	r25, Z+23	; 0x17
    1cfa:	a0 8d       	ldd	r26, Z+24	; 0x18
    1cfc:	b1 8d       	ldd	r27, Z+25	; 0x19
    1cfe:	c8 16       	cp	r12, r24
    1d00:	d9 06       	cpc	r13, r25
    1d02:	ea 06       	cpc	r14, r26
    1d04:	fb 06       	cpc	r15, r27
    1d06:	08 f4       	brcc	.+2      	; 0x1d0a <f_open+0x280>
    1d08:	b6 cf       	rjmp	.-148    	; 0x1c76 <f_open+0x1ec>
    1d0a:	9a c0       	rjmp	.+308    	; 0x1e40 <f_open+0x3b6>
    1d0c:	12 e0       	ldi	r17, 0x02	; 2
    1d0e:	6f c0       	rjmp	.+222    	; 0x1dee <f_open+0x364>
    1d10:	11 e0       	ldi	r17, 0x01	; 1
    1d12:	6d c0       	rjmp	.+218    	; 0x1dee <f_open+0x364>
    1d14:	11 23       	and	r17, r17
    1d16:	09 f0       	breq	.+2      	; 0x1d1a <f_open+0x290>
    1d18:	6a c0       	rjmp	.+212    	; 0x1dee <f_open+0x364>
    1d1a:	ad a1       	lds	r26, 0x4d
    1d1c:	be a1       	lds	r27, 0x4e
    1d1e:	1b 96       	adiw	r26, 0x0b	; 11
    1d20:	8c 91       	ld	r24, X
    1d22:	1b 97       	sbiw	r26, 0x0b	; 11
    1d24:	84 fd       	sbrc	r24, 4
    1d26:	a3 c0       	rjmp	.+326    	; 0x1e6e <f_open+0x3e4>
    1d28:	f1 ff       	sbrs	r31, 1
    1d2a:	02 c0       	rjmp	.+4      	; 0x1d30 <f_open+0x2a6>
    1d2c:	80 fd       	sbrc	r24, 0
    1d2e:	a1 c0       	rjmp	.+322    	; 0x1e72 <f_open+0x3e8>
    1d30:	b9 a5       	lds	r27, 0x69
    1d32:	b3 ff       	sbrs	r27, 3
    1d34:	02 c0       	rjmp	.+4      	; 0x1d3a <f_open+0x2b0>
    1d36:	b0 62       	ori	r27, 0x20	; 32
    1d38:	b9 a7       	lds	r27, 0x79
    1d3a:	ed 85       	ldd	r30, Y+13	; 0x0d
    1d3c:	fe 85       	ldd	r31, Y+14	; 0x0e
    1d3e:	42 a5       	lds	r20, 0x62
    1d40:	53 a5       	lds	r21, 0x63
    1d42:	64 a5       	lds	r22, 0x64
    1d44:	75 a5       	lds	r23, 0x65
    1d46:	af a1       	lds	r26, 0x4f
    1d48:	b8 a5       	lds	r27, 0x68
    1d4a:	5a 96       	adiw	r26, 0x1a	; 26
    1d4c:	4d 93       	st	X+, r20
    1d4e:	5d 93       	st	X+, r21
    1d50:	6d 93       	st	X+, r22
    1d52:	7c 93       	st	X, r23
    1d54:	5d 97       	sbiw	r26, 0x1d	; 29
    1d56:	8d a1       	lds	r24, 0x4d
    1d58:	9e a1       	lds	r25, 0x4e
    1d5a:	5f 96       	adiw	r26, 0x1f	; 31
    1d5c:	9c 93       	st	X, r25
    1d5e:	8e 93       	st	-X, r24
    1d60:	5e 97       	sbiw	r26, 0x1e	; 30
    1d62:	99 a5       	lds	r25, 0x69
    1d64:	14 96       	adiw	r26, 0x04	; 4
    1d66:	9c 93       	st	X, r25
    1d68:	ad a1       	lds	r26, 0x4d
    1d6a:	be a1       	lds	r27, 0x4e
    1d6c:	54 96       	adiw	r26, 0x14	; 20
    1d6e:	4d 91       	ld	r20, X+
    1d70:	5c 91       	ld	r21, X
    1d72:	55 97       	sbiw	r26, 0x15	; 21
    1d74:	60 e0       	ldi	r22, 0x00	; 0
    1d76:	70 e0       	ldi	r23, 0x00	; 0
    1d78:	ba 01       	movw	r22, r20
    1d7a:	55 27       	eor	r21, r21
    1d7c:	44 27       	eor	r20, r20
    1d7e:	5a 96       	adiw	r26, 0x1a	; 26
    1d80:	8d 91       	ld	r24, X+
    1d82:	9c 91       	ld	r25, X
    1d84:	5b 97       	sbiw	r26, 0x1b	; 27
    1d86:	a0 e0       	ldi	r26, 0x00	; 0
    1d88:	b0 e0       	ldi	r27, 0x00	; 0
    1d8a:	48 2b       	or	r20, r24
    1d8c:	59 2b       	or	r21, r25
    1d8e:	6a 2b       	or	r22, r26
    1d90:	7b 2b       	or	r23, r27
    1d92:	af a1       	lds	r26, 0x4f
    1d94:	b8 a5       	lds	r27, 0x68
    1d96:	1e 96       	adiw	r26, 0x0e	; 14
    1d98:	4d 93       	st	X+, r20
    1d9a:	5d 93       	st	X+, r21
    1d9c:	6d 93       	st	X+, r22
    1d9e:	7c 93       	st	X, r23
    1da0:	51 97       	sbiw	r26, 0x11	; 17
    1da2:	ad a1       	lds	r26, 0x4d
    1da4:	be a1       	lds	r27, 0x4e
    1da6:	5c 96       	adiw	r26, 0x1c	; 28
    1da8:	4d 91       	ld	r20, X+
    1daa:	5d 91       	ld	r21, X+
    1dac:	6d 91       	ld	r22, X+
    1dae:	7c 91       	ld	r23, X
    1db0:	5f 97       	sbiw	r26, 0x1f	; 31
    1db2:	af a1       	lds	r26, 0x4f
    1db4:	b8 a5       	lds	r27, 0x68
    1db6:	1a 96       	adiw	r26, 0x0a	; 10
    1db8:	4d 93       	st	X+, r20
    1dba:	5d 93       	st	X+, r21
    1dbc:	6d 93       	st	X+, r22
    1dbe:	7c 93       	st	X, r23
    1dc0:	1d 97       	sbiw	r26, 0x0d	; 13
    1dc2:	16 96       	adiw	r26, 0x06	; 6
    1dc4:	1d 92       	st	X+, r1
    1dc6:	1d 92       	st	X+, r1
    1dc8:	1d 92       	st	X+, r1
    1dca:	1c 92       	st	X, r1
    1dcc:	19 97       	sbiw	r26, 0x09	; 9
    1dce:	56 96       	adiw	r26, 0x16	; 22
    1dd0:	1d 92       	st	X+, r1
    1dd2:	1d 92       	st	X+, r1
    1dd4:	1d 92       	st	X+, r1
    1dd6:	1c 92       	st	X, r1
    1dd8:	59 97       	sbiw	r26, 0x19	; 25
    1dda:	11 96       	adiw	r26, 0x01	; 1
    1ddc:	fc 93       	st	X, r31
    1dde:	ee 93       	st	-X, r30
    1de0:	86 81       	ldd	r24, Z+6	; 0x06
    1de2:	97 81       	ldd	r25, Z+7	; 0x07
    1de4:	13 96       	adiw	r26, 0x03	; 3
    1de6:	9c 93       	st	X, r25
    1de8:	8e 93       	st	-X, r24
    1dea:	12 97       	sbiw	r26, 0x02	; 2
    1dec:	10 e0       	ldi	r17, 0x00	; 0
    1dee:	81 2f       	mov	r24, r17
    1df0:	ad 96       	adiw	r28, 0x2d	; 45
    1df2:	0f b6       	in	r0, 0x3f	; 63
    1df4:	f8 94       	cli
    1df6:	de bf       	out	0x3e, r29	; 62
    1df8:	0f be       	out	0x3f, r0	; 63
    1dfa:	cd bf       	out	0x3d, r28	; 61
    1dfc:	df 91       	pop	r29
    1dfe:	cf 91       	pop	r28
    1e00:	1f 91       	pop	r17
    1e02:	0f 91       	pop	r16
    1e04:	ff 90       	pop	r15
    1e06:	ef 90       	pop	r14
    1e08:	df 90       	pop	r13
    1e0a:	cf 90       	pop	r12
    1e0c:	bf 90       	pop	r11
    1e0e:	af 90       	pop	r10
    1e10:	9f 90       	pop	r9
    1e12:	8f 90       	pop	r8
    1e14:	7f 90       	pop	r7
    1e16:	6f 90       	pop	r6
    1e18:	5f 90       	pop	r5
    1e1a:	4f 90       	pop	r4
    1e1c:	3f 90       	pop	r3
    1e1e:	2f 90       	pop	r2
    1e20:	08 95       	ret
    1e22:	4b 8d       	ldd	r20, Y+27	; 0x1b
    1e24:	5c 8d       	ldd	r21, Y+28	; 0x1c
    1e26:	6d 8d       	ldd	r22, Y+29	; 0x1d
    1e28:	7e 8d       	ldd	r23, Y+30	; 0x1e
    1e2a:	8d 85       	ldd	r24, Y+13	; 0x0d
    1e2c:	9e 85       	ldd	r25, Y+14	; 0x0e
    1e2e:	0e 94 1b 04 	call	0x836	; 0x836 <move_window>
    1e32:	18 2f       	mov	r17, r24
    1e34:	88 23       	and	r24, r24
    1e36:	09 f4       	brne	.+2      	; 0x1e3a <f_open+0x3b0>
    1e38:	a4 ce       	rjmp	.-696    	; 0x1b82 <f_open+0xf8>
    1e3a:	b7 ce       	rjmp	.-658    	; 0x1baa <f_open+0x120>
    1e3c:	18 e0       	ldi	r17, 0x08	; 8
    1e3e:	d7 cf       	rjmp	.-82     	; 0x1dee <f_open+0x364>
    1e40:	8d 85       	ldd	r24, Y+13	; 0x0d
    1e42:	9e 85       	ldd	r25, Y+14	; 0x0e
    1e44:	08 94       	sec
    1e46:	81 08       	sbc	r8, r1
    1e48:	91 08       	sbc	r9, r1
    1e4a:	a1 08       	sbc	r10, r1
    1e4c:	b1 08       	sbc	r11, r1
    1e4e:	fc 01       	movw	r30, r24
    1e50:	82 86       	std	Z+10, r8	; 0x0a
    1e52:	93 86       	std	Z+11, r9	; 0x0b
    1e54:	a4 86       	std	Z+12, r10	; 0x0c
    1e56:	b5 86       	std	Z+13, r11	; 0x0d
    1e58:	4a a5       	lds	r20, 0x6a
    1e5a:	5b a5       	lds	r21, 0x6b
    1e5c:	6c a5       	lds	r22, 0x6c
    1e5e:	7d a5       	lds	r23, 0x6d
    1e60:	0e 94 1b 04 	call	0x836	; 0x836 <move_window>
    1e64:	18 2f       	mov	r17, r24
    1e66:	88 23       	and	r24, r24
    1e68:	09 f4       	brne	.+2      	; 0x1e6c <f_open+0x3e2>
    1e6a:	62 cf       	rjmp	.-316    	; 0x1d30 <f_open+0x2a6>
    1e6c:	c0 cf       	rjmp	.-128    	; 0x1dee <f_open+0x364>
    1e6e:	14 e0       	ldi	r17, 0x04	; 4
    1e70:	be cf       	rjmp	.-132    	; 0x1dee <f_open+0x364>
    1e72:	17 e0       	ldi	r17, 0x07	; 7
    1e74:	bc cf       	rjmp	.-136    	; 0x1dee <f_open+0x364>

00001e76 <f_read>:
    1e76:	2f 92       	push	r2
    1e78:	3f 92       	push	r3
    1e7a:	4f 92       	push	r4
    1e7c:	5f 92       	push	r5
    1e7e:	7f 92       	push	r7
    1e80:	8f 92       	push	r8
    1e82:	9f 92       	push	r9
    1e84:	af 92       	push	r10
    1e86:	bf 92       	push	r11
    1e88:	cf 92       	push	r12
    1e8a:	df 92       	push	r13
    1e8c:	ef 92       	push	r14
    1e8e:	ff 92       	push	r15
    1e90:	0f 93       	push	r16
    1e92:	1f 93       	push	r17
    1e94:	cf 93       	push	r28
    1e96:	df 93       	push	r29
    1e98:	00 d0       	rcall	.+0      	; 0x1e9a <f_read+0x24>
    1e9a:	00 d0       	rcall	.+0      	; 0x1e9c <f_read+0x26>
    1e9c:	cd b7       	in	r28, 0x3d	; 61
    1e9e:	de b7       	in	r29, 0x3e	; 62
    1ea0:	9c 83       	std	Y+4, r25	; 0x04
    1ea2:	8b 83       	std	Y+3, r24	; 0x03
    1ea4:	06 2f       	mov	r16, r22
    1ea6:	e7 2e       	mov	r14, r23
    1ea8:	2a 01       	movw	r4, r20
    1eaa:	3a 83       	std	Y+2, r19	; 0x02
    1eac:	29 83       	std	Y+1, r18	; 0x01
    1eae:	d9 01       	movw	r26, r18
    1eb0:	1d 92       	st	X+, r1
    1eb2:	1c 92       	st	X, r1
    1eb4:	fc 01       	movw	r30, r24
    1eb6:	62 81       	ldd	r22, Z+2	; 0x02
    1eb8:	73 81       	ldd	r23, Z+3	; 0x03
    1eba:	80 81       	ld	r24, Z
    1ebc:	91 81       	ldd	r25, Z+1	; 0x01
    1ebe:	0e 94 94 04 	call	0x928	; 0x928 <validate>
    1ec2:	78 2e       	mov	r7, r24
    1ec4:	88 23       	and	r24, r24
    1ec6:	09 f0       	breq	.+2      	; 0x1eca <f_read+0x54>
    1ec8:	53 c1       	rjmp	.+678    	; 0x2170 <f_read+0x2fa>
    1eca:	ab 81       	ldd	r26, Y+3	; 0x03
    1ecc:	bc 81       	ldd	r27, Y+4	; 0x04
    1ece:	14 96       	adiw	r26, 0x04	; 4
    1ed0:	8c 91       	ld	r24, X
    1ed2:	14 97       	sbiw	r26, 0x04	; 4
    1ed4:	87 fd       	sbrc	r24, 7
    1ed6:	8d c0       	rjmp	.+282    	; 0x1ff2 <f_read+0x17c>
    1ed8:	80 ff       	sbrs	r24, 0
    1eda:	48 c1       	rjmp	.+656    	; 0x216c <f_read+0x2f6>
    1edc:	1a 96       	adiw	r26, 0x0a	; 10
    1ede:	4d 91       	ld	r20, X+
    1ee0:	5d 91       	ld	r21, X+
    1ee2:	6d 91       	ld	r22, X+
    1ee4:	7c 91       	ld	r23, X
    1ee6:	1d 97       	sbiw	r26, 0x0d	; 13
    1ee8:	16 96       	adiw	r26, 0x06	; 6
    1eea:	8d 91       	ld	r24, X+
    1eec:	9d 91       	ld	r25, X+
    1eee:	0d 90       	ld	r0, X+
    1ef0:	bc 91       	ld	r27, X
    1ef2:	a0 2d       	mov	r26, r0
    1ef4:	48 1b       	sub	r20, r24
    1ef6:	59 0b       	sbc	r21, r25
    1ef8:	6a 0b       	sbc	r22, r26
    1efa:	7b 0b       	sbc	r23, r27
    1efc:	c2 01       	movw	r24, r4
    1efe:	a0 e0       	ldi	r26, 0x00	; 0
    1f00:	b0 e0       	ldi	r27, 0x00	; 0
    1f02:	48 17       	cp	r20, r24
    1f04:	59 07       	cpc	r21, r25
    1f06:	6a 07       	cpc	r22, r26
    1f08:	7b 07       	cpc	r23, r27
    1f0a:	08 f4       	brcc	.+2      	; 0x1f0e <f_read+0x98>
    1f0c:	2a 01       	movw	r4, r20
    1f0e:	20 2e       	mov	r2, r16
    1f10:	3e 2c       	mov	r3, r14
    1f12:	27 c1       	rjmp	.+590    	; 0x2162 <f_read+0x2ec>
    1f14:	eb 81       	ldd	r30, Y+3	; 0x03
    1f16:	fc 81       	ldd	r31, Y+4	; 0x04
    1f18:	06 81       	ldd	r16, Z+6	; 0x06
    1f1a:	17 81       	ldd	r17, Z+7	; 0x07
    1f1c:	20 85       	ldd	r18, Z+8	; 0x08
    1f1e:	31 85       	ldd	r19, Z+9	; 0x09
    1f20:	d9 01       	movw	r26, r18
    1f22:	c8 01       	movw	r24, r16
    1f24:	91 70       	andi	r25, 0x01	; 1
    1f26:	a0 70       	andi	r26, 0x00	; 0
    1f28:	b0 70       	andi	r27, 0x00	; 0
    1f2a:	00 97       	sbiw	r24, 0x00	; 0
    1f2c:	a1 05       	cpc	r26, r1
    1f2e:	b1 05       	cpc	r27, r1
    1f30:	09 f0       	breq	.+2      	; 0x1f34 <f_read+0xbe>
    1f32:	c1 c0       	rjmp	.+386    	; 0x20b6 <f_read+0x240>
    1f34:	80 81       	ld	r24, Z
    1f36:	91 81       	ldd	r25, Z+1	; 0x01
    1f38:	b9 01       	movw	r22, r18
    1f3a:	a8 01       	movw	r20, r16
    1f3c:	a9 e0       	ldi	r26, 0x09	; 9
    1f3e:	76 95       	lsr	r23
    1f40:	67 95       	ror	r22
    1f42:	57 95       	ror	r21
    1f44:	47 95       	ror	r20
    1f46:	aa 95       	dec	r26
    1f48:	d1 f7       	brne	.-12     	; 0x1f3e <f_read+0xc8>
    1f4a:	dc 01       	movw	r26, r24
    1f4c:	12 96       	adiw	r26, 0x02	; 2
    1f4e:	cc 90       	ld	r12, X
    1f50:	12 97       	sbiw	r26, 0x02	; 2
    1f52:	ca 94       	dec	r12
    1f54:	c4 22       	and	r12, r20
    1f56:	a1 f5       	brne	.+104    	; 0x1fc0 <f_read+0x14a>
    1f58:	01 15       	cp	r16, r1
    1f5a:	11 05       	cpc	r17, r1
    1f5c:	21 05       	cpc	r18, r1
    1f5e:	31 05       	cpc	r19, r1
    1f60:	29 f4       	brne	.+10     	; 0x1f6c <f_read+0xf6>
    1f62:	86 85       	ldd	r24, Z+14	; 0x0e
    1f64:	97 85       	ldd	r25, Z+15	; 0x0f
    1f66:	a0 89       	ldd	r26, Z+16	; 0x10
    1f68:	b1 89       	ldd	r27, Z+17	; 0x11
    1f6a:	0a c0       	rjmp	.+20     	; 0x1f80 <f_read+0x10a>
    1f6c:	eb 81       	ldd	r30, Y+3	; 0x03
    1f6e:	fc 81       	ldd	r31, Y+4	; 0x04
    1f70:	42 89       	ldd	r20, Z+18	; 0x12
    1f72:	53 89       	ldd	r21, Z+19	; 0x13
    1f74:	64 89       	ldd	r22, Z+20	; 0x14
    1f76:	75 89       	ldd	r23, Z+21	; 0x15
    1f78:	0e 94 b3 07 	call	0xf66	; 0xf66 <get_fat>
    1f7c:	dc 01       	movw	r26, r24
    1f7e:	cb 01       	movw	r24, r22
    1f80:	82 30       	cpi	r24, 0x02	; 2
    1f82:	91 05       	cpc	r25, r1
    1f84:	a1 05       	cpc	r26, r1
    1f86:	b1 05       	cpc	r27, r1
    1f88:	50 f4       	brcc	.+20     	; 0x1f9e <f_read+0x128>
    1f8a:	ab 81       	ldd	r26, Y+3	; 0x03
    1f8c:	bc 81       	ldd	r27, Y+4	; 0x04
    1f8e:	14 96       	adiw	r26, 0x04	; 4
    1f90:	8c 91       	ld	r24, X
    1f92:	14 97       	sbiw	r26, 0x04	; 4
    1f94:	80 68       	ori	r24, 0x80	; 128
    1f96:	14 96       	adiw	r26, 0x04	; 4
    1f98:	8c 93       	st	X, r24
    1f9a:	14 97       	sbiw	r26, 0x04	; 4
    1f9c:	2a c0       	rjmp	.+84     	; 0x1ff2 <f_read+0x17c>
    1f9e:	8f 3f       	cpi	r24, 0xFF	; 255
    1fa0:	ef ef       	ldi	r30, 0xFF	; 255
    1fa2:	9e 07       	cpc	r25, r30
    1fa4:	ef ef       	ldi	r30, 0xFF	; 255
    1fa6:	ae 07       	cpc	r26, r30
    1fa8:	ef ef       	ldi	r30, 0xFF	; 255
    1faa:	be 07       	cpc	r27, r30
    1fac:	19 f4       	brne	.+6      	; 0x1fb4 <f_read+0x13e>
    1fae:	ab 81       	ldd	r26, Y+3	; 0x03
    1fb0:	bc 81       	ldd	r27, Y+4	; 0x04
    1fb2:	4b c0       	rjmp	.+150    	; 0x204a <f_read+0x1d4>
    1fb4:	eb 81       	ldd	r30, Y+3	; 0x03
    1fb6:	fc 81       	ldd	r31, Y+4	; 0x04
    1fb8:	82 8b       	std	Z+18, r24	; 0x12
    1fba:	93 8b       	std	Z+19, r25	; 0x13
    1fbc:	a4 8b       	std	Z+20, r26	; 0x14
    1fbe:	b5 8b       	std	Z+21, r27	; 0x15
    1fc0:	ab 81       	ldd	r26, Y+3	; 0x03
    1fc2:	bc 81       	ldd	r27, Y+4	; 0x04
    1fc4:	0d 91       	ld	r16, X+
    1fc6:	1c 91       	ld	r17, X
    1fc8:	11 97       	sbiw	r26, 0x01	; 1
    1fca:	52 96       	adiw	r26, 0x12	; 18
    1fcc:	4d 91       	ld	r20, X+
    1fce:	5d 91       	ld	r21, X+
    1fd0:	6d 91       	ld	r22, X+
    1fd2:	7c 91       	ld	r23, X
    1fd4:	55 97       	sbiw	r26, 0x15	; 21
    1fd6:	c8 01       	movw	r24, r16
    1fd8:	0e 94 7f 07 	call	0xefe	; 0xefe <clust2sect>
    1fdc:	dc 01       	movw	r26, r24
    1fde:	cb 01       	movw	r24, r22
    1fe0:	00 97       	sbiw	r24, 0x00	; 0
    1fe2:	a1 05       	cpc	r26, r1
    1fe4:	b1 05       	cpc	r27, r1
    1fe6:	41 f4       	brne	.+16     	; 0x1ff8 <f_read+0x182>
    1fe8:	eb 81       	ldd	r30, Y+3	; 0x03
    1fea:	fc 81       	ldd	r31, Y+4	; 0x04
    1fec:	84 81       	ldd	r24, Z+4	; 0x04
    1fee:	80 68       	ori	r24, 0x80	; 128
    1ff0:	84 83       	std	Z+4, r24	; 0x04
    1ff2:	52 e0       	ldi	r21, 0x02	; 2
    1ff4:	75 2e       	mov	r7, r21
    1ff6:	bc c0       	rjmp	.+376    	; 0x2170 <f_read+0x2fa>
    1ff8:	4c 01       	movw	r8, r24
    1ffa:	5d 01       	movw	r10, r26
    1ffc:	8c 0c       	add	r8, r12
    1ffe:	91 1c       	adc	r9, r1
    2000:	a1 1c       	adc	r10, r1
    2002:	b1 1c       	adc	r11, r1
    2004:	72 01       	movw	r14, r4
    2006:	ef 2c       	mov	r14, r15
    2008:	ff 24       	eor	r15, r15
    200a:	e6 94       	lsr	r14
    200c:	e1 14       	cp	r14, r1
    200e:	f1 04       	cpc	r15, r1
    2010:	09 f4       	brne	.+2      	; 0x2014 <f_read+0x19e>
    2012:	4b c0       	rjmp	.+150    	; 0x20aa <f_read+0x234>
    2014:	d8 01       	movw	r26, r16
    2016:	12 96       	adiw	r26, 0x02	; 2
    2018:	8c 91       	ld	r24, X
    201a:	12 97       	sbiw	r26, 0x02	; 2
    201c:	dd 24       	eor	r13, r13
    201e:	97 01       	movw	r18, r14
    2020:	2c 0d       	add	r18, r12
    2022:	3d 1d       	adc	r19, r13
    2024:	90 e0       	ldi	r25, 0x00	; 0
    2026:	82 17       	cp	r24, r18
    2028:	93 07       	cpc	r25, r19
    202a:	18 f4       	brcc	.+6      	; 0x2032 <f_read+0x1bc>
    202c:	7c 01       	movw	r14, r24
    202e:	ec 18       	sub	r14, r12
    2030:	fd 08       	sbc	r15, r13
    2032:	f8 01       	movw	r30, r16
    2034:	81 81       	ldd	r24, Z+1	; 0x01
    2036:	b1 01       	movw	r22, r2
    2038:	a5 01       	movw	r20, r10
    203a:	94 01       	movw	r18, r8
    203c:	0e 2d       	mov	r16, r14
    203e:	0e 94 02 22 	call	0x4404	; 0x4404 <disk_read>
    2042:	ab 81       	ldd	r26, Y+3	; 0x03
    2044:	bc 81       	ldd	r27, Y+4	; 0x04
    2046:	88 23       	and	r24, r24
    2048:	41 f0       	breq	.+16     	; 0x205a <f_read+0x1e4>
    204a:	14 96       	adiw	r26, 0x04	; 4
    204c:	8c 91       	ld	r24, X
    204e:	14 97       	sbiw	r26, 0x04	; 4
    2050:	80 68       	ori	r24, 0x80	; 128
    2052:	14 96       	adiw	r26, 0x04	; 4
    2054:	8c 93       	st	X, r24
    2056:	14 97       	sbiw	r26, 0x04	; 4
    2058:	47 c0       	rjmp	.+142    	; 0x20e8 <f_read+0x272>
    205a:	ed 91       	ld	r30, X+
    205c:	fc 91       	ld	r31, X
    205e:	11 97       	sbiw	r26, 0x01	; 1
    2060:	84 81       	ldd	r24, Z+4	; 0x04
    2062:	88 23       	and	r24, r24
    2064:	e9 f0       	breq	.+58     	; 0x20a0 <f_read+0x22a>
    2066:	42 a5       	lds	r20, 0x62
    2068:	53 a5       	lds	r21, 0x63
    206a:	64 a5       	lds	r22, 0x64
    206c:	75 a5       	lds	r23, 0x65
    206e:	48 19       	sub	r20, r8
    2070:	59 09       	sbc	r21, r9
    2072:	6a 09       	sbc	r22, r10
    2074:	7b 09       	sbc	r23, r11
    2076:	c7 01       	movw	r24, r14
    2078:	a0 e0       	ldi	r26, 0x00	; 0
    207a:	b0 e0       	ldi	r27, 0x00	; 0
    207c:	48 17       	cp	r20, r24
    207e:	59 07       	cpc	r21, r25
    2080:	6a 07       	cpc	r22, r26
    2082:	7b 07       	cpc	r23, r27
    2084:	68 f4       	brcc	.+26     	; 0x20a0 <f_read+0x22a>
    2086:	ca 01       	movw	r24, r20
    2088:	98 2f       	mov	r25, r24
    208a:	88 27       	eor	r24, r24
    208c:	99 0f       	add	r25, r25
    208e:	bf 01       	movw	r22, r30
    2090:	62 5d       	subi	r22, 0xD2	; 210
    2092:	7f 4f       	sbci	r23, 0xFF	; 255
    2094:	82 0d       	add	r24, r2
    2096:	93 1d       	adc	r25, r3
    2098:	40 e0       	ldi	r20, 0x00	; 0
    209a:	52 e0       	ldi	r21, 0x02	; 2
    209c:	0e 94 fd 03 	call	0x7fa	; 0x7fa <mem_cpy>
    20a0:	87 01       	movw	r16, r14
    20a2:	10 2f       	mov	r17, r16
    20a4:	00 27       	eor	r16, r16
    20a6:	11 0f       	add	r17, r17
    20a8:	3d c0       	rjmp	.+122    	; 0x2124 <f_read+0x2ae>
    20aa:	eb 81       	ldd	r30, Y+3	; 0x03
    20ac:	fc 81       	ldd	r31, Y+4	; 0x04
    20ae:	86 8a       	std	Z+22, r8	; 0x16
    20b0:	97 8a       	std	Z+23, r9	; 0x17
    20b2:	a0 8e       	std	Z+24, r10	; 0x18
    20b4:	b1 8e       	std	Z+25, r11	; 0x19
    20b6:	ab 81       	ldd	r26, Y+3	; 0x03
    20b8:	bc 81       	ldd	r27, Y+4	; 0x04
    20ba:	16 96       	adiw	r26, 0x06	; 6
    20bc:	cd 90       	ld	r12, X+
    20be:	dd 90       	ld	r13, X+
    20c0:	ed 90       	ld	r14, X+
    20c2:	fc 90       	ld	r15, X
    20c4:	19 97       	sbiw	r26, 0x09	; 9
    20c6:	56 96       	adiw	r26, 0x16	; 22
    20c8:	4d 91       	ld	r20, X+
    20ca:	5d 91       	ld	r21, X+
    20cc:	6d 91       	ld	r22, X+
    20ce:	7c 91       	ld	r23, X
    20d0:	59 97       	sbiw	r26, 0x19	; 25
    20d2:	8d 91       	ld	r24, X+
    20d4:	9c 91       	ld	r25, X
    20d6:	0e 94 1b 04 	call	0x836	; 0x836 <move_window>
    20da:	88 23       	and	r24, r24
    20dc:	41 f0       	breq	.+16     	; 0x20ee <f_read+0x278>
    20de:	eb 81       	ldd	r30, Y+3	; 0x03
    20e0:	fc 81       	ldd	r31, Y+4	; 0x04
    20e2:	84 81       	ldd	r24, Z+4	; 0x04
    20e4:	80 68       	ori	r24, 0x80	; 128
    20e6:	84 83       	std	Z+4, r24	; 0x04
    20e8:	77 24       	eor	r7, r7
    20ea:	73 94       	inc	r7
    20ec:	41 c0       	rjmp	.+130    	; 0x2170 <f_read+0x2fa>
    20ee:	c6 01       	movw	r24, r12
    20f0:	91 70       	andi	r25, 0x01	; 1
    20f2:	20 e0       	ldi	r18, 0x00	; 0
    20f4:	32 e0       	ldi	r19, 0x02	; 2
    20f6:	28 1b       	sub	r18, r24
    20f8:	39 0b       	sbc	r19, r25
    20fa:	82 01       	movw	r16, r4
    20fc:	24 15       	cp	r18, r4
    20fe:	35 05       	cpc	r19, r5
    2100:	08 f4       	brcc	.+2      	; 0x2104 <f_read+0x28e>
    2102:	89 01       	movw	r16, r18
    2104:	ab 81       	ldd	r26, Y+3	; 0x03
    2106:	bc 81       	ldd	r27, Y+4	; 0x04
    2108:	16 96       	adiw	r26, 0x06	; 6
    210a:	8d 91       	ld	r24, X+
    210c:	9c 91       	ld	r25, X
    210e:	17 97       	sbiw	r26, 0x07	; 7
    2110:	91 70       	andi	r25, 0x01	; 1
    2112:	8e 96       	adiw	r24, 0x2e	; 46
    2114:	6d 91       	ld	r22, X+
    2116:	7c 91       	ld	r23, X
    2118:	68 0f       	add	r22, r24
    211a:	79 1f       	adc	r23, r25
    211c:	c1 01       	movw	r24, r2
    211e:	a8 01       	movw	r20, r16
    2120:	0e 94 fd 03 	call	0x7fa	; 0x7fa <mem_cpy>
    2124:	20 0e       	add	r2, r16
    2126:	31 1e       	adc	r3, r17
    2128:	a8 01       	movw	r20, r16
    212a:	60 e0       	ldi	r22, 0x00	; 0
    212c:	70 e0       	ldi	r23, 0x00	; 0
    212e:	eb 81       	ldd	r30, Y+3	; 0x03
    2130:	fc 81       	ldd	r31, Y+4	; 0x04
    2132:	86 81       	ldd	r24, Z+6	; 0x06
    2134:	97 81       	ldd	r25, Z+7	; 0x07
    2136:	a0 85       	ldd	r26, Z+8	; 0x08
    2138:	b1 85       	ldd	r27, Z+9	; 0x09
    213a:	84 0f       	add	r24, r20
    213c:	95 1f       	adc	r25, r21
    213e:	a6 1f       	adc	r26, r22
    2140:	b7 1f       	adc	r27, r23
    2142:	86 83       	std	Z+6, r24	; 0x06
    2144:	97 83       	std	Z+7, r25	; 0x07
    2146:	a0 87       	std	Z+8, r26	; 0x08
    2148:	b1 87       	std	Z+9, r27	; 0x09
    214a:	a9 81       	ldd	r26, Y+1	; 0x01
    214c:	ba 81       	ldd	r27, Y+2	; 0x02
    214e:	8d 91       	ld	r24, X+
    2150:	9c 91       	ld	r25, X
    2152:	11 97       	sbiw	r26, 0x01	; 1
    2154:	80 0f       	add	r24, r16
    2156:	91 1f       	adc	r25, r17
    2158:	11 96       	adiw	r26, 0x01	; 1
    215a:	9c 93       	st	X, r25
    215c:	8e 93       	st	-X, r24
    215e:	40 1a       	sub	r4, r16
    2160:	51 0a       	sbc	r5, r17
    2162:	41 14       	cp	r4, r1
    2164:	51 04       	cpc	r5, r1
    2166:	09 f0       	breq	.+2      	; 0x216a <f_read+0x2f4>
    2168:	d5 ce       	rjmp	.-598    	; 0x1f14 <f_read+0x9e>
    216a:	02 c0       	rjmp	.+4      	; 0x2170 <f_read+0x2fa>
    216c:	97 e0       	ldi	r25, 0x07	; 7
    216e:	79 2e       	mov	r7, r25
    2170:	87 2d       	mov	r24, r7
    2172:	0f 90       	pop	r0
    2174:	0f 90       	pop	r0
    2176:	0f 90       	pop	r0
    2178:	0f 90       	pop	r0
    217a:	df 91       	pop	r29
    217c:	cf 91       	pop	r28
    217e:	1f 91       	pop	r17
    2180:	0f 91       	pop	r16
    2182:	ff 90       	pop	r15
    2184:	ef 90       	pop	r14
    2186:	df 90       	pop	r13
    2188:	cf 90       	pop	r12
    218a:	bf 90       	pop	r11
    218c:	af 90       	pop	r10
    218e:	9f 90       	pop	r9
    2190:	8f 90       	pop	r8
    2192:	7f 90       	pop	r7
    2194:	5f 90       	pop	r5
    2196:	4f 90       	pop	r4
    2198:	3f 90       	pop	r3
    219a:	2f 90       	pop	r2
    219c:	08 95       	ret

0000219e <f_write>:
    219e:	2f 92       	push	r2
    21a0:	3f 92       	push	r3
    21a2:	4f 92       	push	r4
    21a4:	5f 92       	push	r5
    21a6:	6f 92       	push	r6
    21a8:	7f 92       	push	r7
    21aa:	8f 92       	push	r8
    21ac:	9f 92       	push	r9
    21ae:	af 92       	push	r10
    21b0:	bf 92       	push	r11
    21b2:	cf 92       	push	r12
    21b4:	df 92       	push	r13
    21b6:	ef 92       	push	r14
    21b8:	ff 92       	push	r15
    21ba:	0f 93       	push	r16
    21bc:	1f 93       	push	r17
    21be:	cf 93       	push	r28
    21c0:	df 93       	push	r29
    21c2:	00 d0       	rcall	.+0      	; 0x21c4 <f_write+0x26>
    21c4:	00 d0       	rcall	.+0      	; 0x21c6 <f_write+0x28>
    21c6:	cd b7       	in	r28, 0x3d	; 61
    21c8:	de b7       	in	r29, 0x3e	; 62
    21ca:	9c 83       	std	Y+4, r25	; 0x04
    21cc:	8b 83       	std	Y+3, r24	; 0x03
    21ce:	06 2f       	mov	r16, r22
    21d0:	e7 2e       	mov	r14, r23
    21d2:	2a 01       	movw	r4, r20
    21d4:	3a 83       	std	Y+2, r19	; 0x02
    21d6:	29 83       	std	Y+1, r18	; 0x01
    21d8:	d9 01       	movw	r26, r18
    21da:	1d 92       	st	X+, r1
    21dc:	1c 92       	st	X, r1
    21de:	fc 01       	movw	r30, r24
    21e0:	62 81       	ldd	r22, Z+2	; 0x02
    21e2:	73 81       	ldd	r23, Z+3	; 0x03
    21e4:	80 81       	ld	r24, Z
    21e6:	91 81       	ldd	r25, Z+1	; 0x01
    21e8:	0e 94 94 04 	call	0x928	; 0x928 <validate>
    21ec:	78 2e       	mov	r7, r24
    21ee:	88 23       	and	r24, r24
    21f0:	09 f0       	breq	.+2      	; 0x21f4 <f_write+0x56>
    21f2:	c5 c1       	rjmp	.+906    	; 0x257e <f_write+0x3e0>
    21f4:	ab 81       	ldd	r26, Y+3	; 0x03
    21f6:	bc 81       	ldd	r27, Y+4	; 0x04
    21f8:	14 96       	adiw	r26, 0x04	; 4
    21fa:	8c 91       	ld	r24, X
    21fc:	14 97       	sbiw	r26, 0x04	; 4
    21fe:	87 fd       	sbrc	r24, 7
    2200:	be c0       	rjmp	.+380    	; 0x237e <f_write+0x1e0>
    2202:	81 ff       	sbrs	r24, 1
    2204:	ba c1       	rjmp	.+884    	; 0x257a <f_write+0x3dc>
    2206:	1a 96       	adiw	r26, 0x0a	; 10
    2208:	4d 91       	ld	r20, X+
    220a:	5d 91       	ld	r21, X+
    220c:	6d 91       	ld	r22, X+
    220e:	7c 91       	ld	r23, X
    2210:	1d 97       	sbiw	r26, 0x0d	; 13
    2212:	c2 01       	movw	r24, r4
    2214:	a0 e0       	ldi	r26, 0x00	; 0
    2216:	b0 e0       	ldi	r27, 0x00	; 0
    2218:	84 0f       	add	r24, r20
    221a:	95 1f       	adc	r25, r21
    221c:	a6 1f       	adc	r26, r22
    221e:	b7 1f       	adc	r27, r23
    2220:	84 17       	cp	r24, r20
    2222:	95 07       	cpc	r25, r21
    2224:	a6 07       	cpc	r26, r22
    2226:	b7 07       	cpc	r27, r23
    2228:	10 f4       	brcc	.+4      	; 0x222e <f_write+0x90>
    222a:	44 24       	eor	r4, r4
    222c:	55 24       	eor	r5, r5
    222e:	20 2e       	mov	r2, r16
    2230:	3e 2c       	mov	r3, r14
    2232:	66 24       	eor	r6, r6
    2234:	63 94       	inc	r6
    2236:	80 c1       	rjmp	.+768    	; 0x2538 <f_write+0x39a>
    2238:	eb 81       	ldd	r30, Y+3	; 0x03
    223a:	fc 81       	ldd	r31, Y+4	; 0x04
    223c:	46 81       	ldd	r20, Z+6	; 0x06
    223e:	57 81       	ldd	r21, Z+7	; 0x07
    2240:	60 85       	ldd	r22, Z+8	; 0x08
    2242:	71 85       	ldd	r23, Z+9	; 0x09
    2244:	db 01       	movw	r26, r22
    2246:	ca 01       	movw	r24, r20
    2248:	91 70       	andi	r25, 0x01	; 1
    224a:	a0 70       	andi	r26, 0x00	; 0
    224c:	b0 70       	andi	r27, 0x00	; 0
    224e:	00 97       	sbiw	r24, 0x00	; 0
    2250:	a1 05       	cpc	r26, r1
    2252:	b1 05       	cpc	r27, r1
    2254:	09 f0       	breq	.+2      	; 0x2258 <f_write+0xba>
    2256:	15 c1       	rjmp	.+554    	; 0x2482 <f_write+0x2e4>
    2258:	20 81       	ld	r18, Z
    225a:	31 81       	ldd	r19, Z+1	; 0x01
    225c:	db 01       	movw	r26, r22
    225e:	ca 01       	movw	r24, r20
    2260:	19 e0       	ldi	r17, 0x09	; 9
    2262:	b6 95       	lsr	r27
    2264:	a7 95       	ror	r26
    2266:	97 95       	ror	r25
    2268:	87 95       	ror	r24
    226a:	1a 95       	dec	r17
    226c:	d1 f7       	brne	.-12     	; 0x2262 <f_write+0xc4>
    226e:	f9 01       	movw	r30, r18
    2270:	c2 80       	ldd	r12, Z+2	; 0x02
    2272:	ca 94       	dec	r12
    2274:	c8 22       	and	r12, r24
    2276:	09 f0       	breq	.+2      	; 0x227a <f_write+0xdc>
    2278:	49 c0       	rjmp	.+146    	; 0x230c <f_write+0x16e>
    227a:	41 15       	cp	r20, r1
    227c:	51 05       	cpc	r21, r1
    227e:	61 05       	cpc	r22, r1
    2280:	71 05       	cpc	r23, r1
    2282:	c9 f4       	brne	.+50     	; 0x22b6 <f_write+0x118>
    2284:	eb 81       	ldd	r30, Y+3	; 0x03
    2286:	fc 81       	ldd	r31, Y+4	; 0x04
    2288:	86 85       	ldd	r24, Z+14	; 0x0e
    228a:	97 85       	ldd	r25, Z+15	; 0x0f
    228c:	a0 89       	ldd	r26, Z+16	; 0x10
    228e:	b1 89       	ldd	r27, Z+17	; 0x11
    2290:	00 97       	sbiw	r24, 0x00	; 0
    2292:	a1 05       	cpc	r26, r1
    2294:	b1 05       	cpc	r27, r1
    2296:	09 f5       	brne	.+66     	; 0x22da <f_write+0x13c>
    2298:	c9 01       	movw	r24, r18
    229a:	40 e0       	ldi	r20, 0x00	; 0
    229c:	50 e0       	ldi	r21, 0x00	; 0
    229e:	ba 01       	movw	r22, r20
    22a0:	0e 94 e4 09 	call	0x13c8	; 0x13c8 <create_chain>
    22a4:	dc 01       	movw	r26, r24
    22a6:	cb 01       	movw	r24, r22
    22a8:	eb 81       	ldd	r30, Y+3	; 0x03
    22aa:	fc 81       	ldd	r31, Y+4	; 0x04
    22ac:	86 87       	std	Z+14, r24	; 0x0e
    22ae:	97 87       	std	Z+15, r25	; 0x0f
    22b0:	a0 8b       	std	Z+16, r26	; 0x10
    22b2:	b1 8b       	std	Z+17, r27	; 0x11
    22b4:	0d c0       	rjmp	.+26     	; 0x22d0 <f_write+0x132>
    22b6:	ab 81       	ldd	r26, Y+3	; 0x03
    22b8:	bc 81       	ldd	r27, Y+4	; 0x04
    22ba:	52 96       	adiw	r26, 0x12	; 18
    22bc:	4d 91       	ld	r20, X+
    22be:	5d 91       	ld	r21, X+
    22c0:	6d 91       	ld	r22, X+
    22c2:	7c 91       	ld	r23, X
    22c4:	55 97       	sbiw	r26, 0x15	; 21
    22c6:	c9 01       	movw	r24, r18
    22c8:	0e 94 e4 09 	call	0x13c8	; 0x13c8 <create_chain>
    22cc:	dc 01       	movw	r26, r24
    22ce:	cb 01       	movw	r24, r22
    22d0:	00 97       	sbiw	r24, 0x00	; 0
    22d2:	a1 05       	cpc	r26, r1
    22d4:	b1 05       	cpc	r27, r1
    22d6:	09 f4       	brne	.+2      	; 0x22da <f_write+0x13c>
    22d8:	33 c1       	rjmp	.+614    	; 0x2540 <f_write+0x3a2>
    22da:	81 30       	cpi	r24, 0x01	; 1
    22dc:	91 05       	cpc	r25, r1
    22de:	a1 05       	cpc	r26, r1
    22e0:	b1 05       	cpc	r27, r1
    22e2:	31 f4       	brne	.+12     	; 0x22f0 <f_write+0x152>
    22e4:	eb 81       	ldd	r30, Y+3	; 0x03
    22e6:	fc 81       	ldd	r31, Y+4	; 0x04
    22e8:	84 81       	ldd	r24, Z+4	; 0x04
    22ea:	80 68       	ori	r24, 0x80	; 128
    22ec:	84 83       	std	Z+4, r24	; 0x04
    22ee:	47 c0       	rjmp	.+142    	; 0x237e <f_write+0x1e0>
    22f0:	8f 3f       	cpi	r24, 0xFF	; 255
    22f2:	ff ef       	ldi	r31, 0xFF	; 255
    22f4:	9f 07       	cpc	r25, r31
    22f6:	ff ef       	ldi	r31, 0xFF	; 255
    22f8:	af 07       	cpc	r26, r31
    22fa:	ff ef       	ldi	r31, 0xFF	; 255
    22fc:	bf 07       	cpc	r27, r31
    22fe:	11 f1       	breq	.+68     	; 0x2344 <f_write+0x1a6>
    2300:	eb 81       	ldd	r30, Y+3	; 0x03
    2302:	fc 81       	ldd	r31, Y+4	; 0x04
    2304:	82 8b       	std	Z+18, r24	; 0x12
    2306:	93 8b       	std	Z+19, r25	; 0x13
    2308:	a4 8b       	std	Z+20, r26	; 0x14
    230a:	b5 8b       	std	Z+21, r27	; 0x15
    230c:	ab 81       	ldd	r26, Y+3	; 0x03
    230e:	bc 81       	ldd	r27, Y+4	; 0x04
    2310:	8d 91       	ld	r24, X+
    2312:	9c 91       	ld	r25, X
    2314:	11 97       	sbiw	r26, 0x01	; 1
    2316:	fc 01       	movw	r30, r24
    2318:	42 a5       	lds	r20, 0x62
    231a:	53 a5       	lds	r21, 0x63
    231c:	64 a5       	lds	r22, 0x64
    231e:	75 a5       	lds	r23, 0x65
    2320:	56 96       	adiw	r26, 0x16	; 22
    2322:	0d 91       	ld	r16, X+
    2324:	1d 91       	ld	r17, X+
    2326:	2d 91       	ld	r18, X+
    2328:	3c 91       	ld	r19, X
    232a:	59 97       	sbiw	r26, 0x19	; 25
    232c:	40 17       	cp	r20, r16
    232e:	51 07       	cpc	r21, r17
    2330:	62 07       	cpc	r22, r18
    2332:	73 07       	cpc	r23, r19
    2334:	51 f4       	brne	.+20     	; 0x234a <f_write+0x1ac>
    2336:	40 e0       	ldi	r20, 0x00	; 0
    2338:	50 e0       	ldi	r21, 0x00	; 0
    233a:	ba 01       	movw	r22, r20
    233c:	0e 94 1b 04 	call	0x836	; 0x836 <move_window>
    2340:	88 23       	and	r24, r24
    2342:	19 f0       	breq	.+6      	; 0x234a <f_write+0x1ac>
    2344:	ab 81       	ldd	r26, Y+3	; 0x03
    2346:	bc 81       	ldd	r27, Y+4	; 0x04
    2348:	88 c0       	rjmp	.+272    	; 0x245a <f_write+0x2bc>
    234a:	eb 81       	ldd	r30, Y+3	; 0x03
    234c:	fc 81       	ldd	r31, Y+4	; 0x04
    234e:	00 81       	ld	r16, Z
    2350:	11 81       	ldd	r17, Z+1	; 0x01
    2352:	42 89       	ldd	r20, Z+18	; 0x12
    2354:	53 89       	ldd	r21, Z+19	; 0x13
    2356:	64 89       	ldd	r22, Z+20	; 0x14
    2358:	75 89       	ldd	r23, Z+21	; 0x15
    235a:	c8 01       	movw	r24, r16
    235c:	0e 94 7f 07 	call	0xefe	; 0xefe <clust2sect>
    2360:	dc 01       	movw	r26, r24
    2362:	cb 01       	movw	r24, r22
    2364:	00 97       	sbiw	r24, 0x00	; 0
    2366:	a1 05       	cpc	r26, r1
    2368:	b1 05       	cpc	r27, r1
    236a:	61 f4       	brne	.+24     	; 0x2384 <f_write+0x1e6>
    236c:	ab 81       	ldd	r26, Y+3	; 0x03
    236e:	bc 81       	ldd	r27, Y+4	; 0x04
    2370:	14 96       	adiw	r26, 0x04	; 4
    2372:	8c 91       	ld	r24, X
    2374:	14 97       	sbiw	r26, 0x04	; 4
    2376:	80 68       	ori	r24, 0x80	; 128
    2378:	14 96       	adiw	r26, 0x04	; 4
    237a:	8c 93       	st	X, r24
    237c:	14 97       	sbiw	r26, 0x04	; 4
    237e:	32 e0       	ldi	r19, 0x02	; 2
    2380:	73 2e       	mov	r7, r19
    2382:	fd c0       	rjmp	.+506    	; 0x257e <f_write+0x3e0>
    2384:	4c 01       	movw	r8, r24
    2386:	5d 01       	movw	r10, r26
    2388:	8c 0c       	add	r8, r12
    238a:	91 1c       	adc	r9, r1
    238c:	a1 1c       	adc	r10, r1
    238e:	b1 1c       	adc	r11, r1
    2390:	72 01       	movw	r14, r4
    2392:	ef 2c       	mov	r14, r15
    2394:	ff 24       	eor	r15, r15
    2396:	e6 94       	lsr	r14
    2398:	e1 14       	cp	r14, r1
    239a:	f1 04       	cpc	r15, r1
    239c:	09 f4       	brne	.+2      	; 0x23a0 <f_write+0x202>
    239e:	44 c0       	rjmp	.+136    	; 0x2428 <f_write+0x28a>
    23a0:	f8 01       	movw	r30, r16
    23a2:	82 81       	ldd	r24, Z+2	; 0x02
    23a4:	dd 24       	eor	r13, r13
    23a6:	97 01       	movw	r18, r14
    23a8:	2c 0d       	add	r18, r12
    23aa:	3d 1d       	adc	r19, r13
    23ac:	90 e0       	ldi	r25, 0x00	; 0
    23ae:	82 17       	cp	r24, r18
    23b0:	93 07       	cpc	r25, r19
    23b2:	18 f4       	brcc	.+6      	; 0x23ba <f_write+0x21c>
    23b4:	7c 01       	movw	r14, r24
    23b6:	ec 18       	sub	r14, r12
    23b8:	fd 08       	sbc	r15, r13
    23ba:	d8 01       	movw	r26, r16
    23bc:	11 96       	adiw	r26, 0x01	; 1
    23be:	8c 91       	ld	r24, X
    23c0:	b1 01       	movw	r22, r2
    23c2:	a5 01       	movw	r20, r10
    23c4:	94 01       	movw	r18, r8
    23c6:	0e 2d       	mov	r16, r14
    23c8:	0e 94 54 22 	call	0x44a8	; 0x44a8 <disk_write>
    23cc:	88 23       	and	r24, r24
    23ce:	09 f0       	breq	.+2      	; 0x23d2 <f_write+0x234>
    23d0:	6c c0       	rjmp	.+216    	; 0x24aa <f_write+0x30c>
    23d2:	ab 81       	ldd	r26, Y+3	; 0x03
    23d4:	bc 81       	ldd	r27, Y+4	; 0x04
    23d6:	ed 91       	ld	r30, X+
    23d8:	fc 91       	ld	r31, X
    23da:	42 a5       	lds	r20, 0x62
    23dc:	53 a5       	lds	r21, 0x63
    23de:	64 a5       	lds	r22, 0x64
    23e0:	75 a5       	lds	r23, 0x65
    23e2:	48 19       	sub	r20, r8
    23e4:	59 09       	sbc	r21, r9
    23e6:	6a 09       	sbc	r22, r10
    23e8:	7b 09       	sbc	r23, r11
    23ea:	c7 01       	movw	r24, r14
    23ec:	a0 e0       	ldi	r26, 0x00	; 0
    23ee:	b0 e0       	ldi	r27, 0x00	; 0
    23f0:	48 17       	cp	r20, r24
    23f2:	59 07       	cpc	r21, r25
    23f4:	6a 07       	cpc	r22, r26
    23f6:	7b 07       	cpc	r23, r27
    23f8:	90 f4       	brcc	.+36     	; 0x241e <f_write+0x280>
    23fa:	ba 01       	movw	r22, r20
    23fc:	76 2f       	mov	r23, r22
    23fe:	66 27       	eor	r22, r22
    2400:	77 0f       	add	r23, r23
    2402:	62 0d       	add	r22, r2
    2404:	73 1d       	adc	r23, r3
    2406:	cf 01       	movw	r24, r30
    2408:	8e 96       	adiw	r24, 0x2e	; 46
    240a:	40 e0       	ldi	r20, 0x00	; 0
    240c:	52 e0       	ldi	r21, 0x02	; 2
    240e:	0e 94 fd 03 	call	0x7fa	; 0x7fa <mem_cpy>
    2412:	ab 81       	ldd	r26, Y+3	; 0x03
    2414:	bc 81       	ldd	r27, Y+4	; 0x04
    2416:	ed 91       	ld	r30, X+
    2418:	fc 91       	ld	r31, X
    241a:	11 97       	sbiw	r26, 0x01	; 1
    241c:	14 82       	std	Z+4, r1	; 0x04
    241e:	87 01       	movw	r16, r14
    2420:	10 2f       	mov	r17, r16
    2422:	00 27       	eor	r16, r16
    2424:	11 0f       	add	r17, r17
    2426:	69 c0       	rjmp	.+210    	; 0x24fa <f_write+0x35c>
    2428:	eb 81       	ldd	r30, Y+3	; 0x03
    242a:	fc 81       	ldd	r31, Y+4	; 0x04
    242c:	86 81       	ldd	r24, Z+6	; 0x06
    242e:	97 81       	ldd	r25, Z+7	; 0x07
    2430:	a0 85       	ldd	r26, Z+8	; 0x08
    2432:	b1 85       	ldd	r27, Z+9	; 0x09
    2434:	42 85       	ldd	r20, Z+10	; 0x0a
    2436:	53 85       	ldd	r21, Z+11	; 0x0b
    2438:	64 85       	ldd	r22, Z+12	; 0x0c
    243a:	75 85       	ldd	r23, Z+13	; 0x0d
    243c:	84 17       	cp	r24, r20
    243e:	95 07       	cpc	r25, r21
    2440:	a6 07       	cpc	r26, r22
    2442:	b7 07       	cpc	r27, r23
    2444:	c0 f0       	brcs	.+48     	; 0x2476 <f_write+0x2d8>
    2446:	c8 01       	movw	r24, r16
    2448:	40 e0       	ldi	r20, 0x00	; 0
    244a:	50 e0       	ldi	r21, 0x00	; 0
    244c:	ba 01       	movw	r22, r20
    244e:	0e 94 1b 04 	call	0x836	; 0x836 <move_window>
    2452:	ab 81       	ldd	r26, Y+3	; 0x03
    2454:	bc 81       	ldd	r27, Y+4	; 0x04
    2456:	88 23       	and	r24, r24
    2458:	41 f0       	breq	.+16     	; 0x246a <f_write+0x2cc>
    245a:	14 96       	adiw	r26, 0x04	; 4
    245c:	8c 91       	ld	r24, X
    245e:	14 97       	sbiw	r26, 0x04	; 4
    2460:	80 68       	ori	r24, 0x80	; 128
    2462:	14 96       	adiw	r26, 0x04	; 4
    2464:	8c 93       	st	X, r24
    2466:	14 97       	sbiw	r26, 0x04	; 4
    2468:	25 c0       	rjmp	.+74     	; 0x24b4 <f_write+0x316>
    246a:	ed 91       	ld	r30, X+
    246c:	fc 91       	ld	r31, X
    246e:	82 a6       	lds	r24, 0xb2
    2470:	93 a6       	lds	r25, 0xb3
    2472:	a4 a6       	lds	r26, 0xb4
    2474:	b5 a6       	lds	r27, 0xb5
    2476:	eb 81       	ldd	r30, Y+3	; 0x03
    2478:	fc 81       	ldd	r31, Y+4	; 0x04
    247a:	86 8a       	std	Z+22, r8	; 0x16
    247c:	97 8a       	std	Z+23, r9	; 0x17
    247e:	a0 8e       	std	Z+24, r10	; 0x18
    2480:	b1 8e       	std	Z+25, r11	; 0x19
    2482:	ab 81       	ldd	r26, Y+3	; 0x03
    2484:	bc 81       	ldd	r27, Y+4	; 0x04
    2486:	16 96       	adiw	r26, 0x06	; 6
    2488:	cd 90       	ld	r12, X+
    248a:	dd 90       	ld	r13, X+
    248c:	ed 90       	ld	r14, X+
    248e:	fc 90       	ld	r15, X
    2490:	19 97       	sbiw	r26, 0x09	; 9
    2492:	56 96       	adiw	r26, 0x16	; 22
    2494:	4d 91       	ld	r20, X+
    2496:	5d 91       	ld	r21, X+
    2498:	6d 91       	ld	r22, X+
    249a:	7c 91       	ld	r23, X
    249c:	59 97       	sbiw	r26, 0x19	; 25
    249e:	8d 91       	ld	r24, X+
    24a0:	9c 91       	ld	r25, X
    24a2:	0e 94 1b 04 	call	0x836	; 0x836 <move_window>
    24a6:	88 23       	and	r24, r24
    24a8:	41 f0       	breq	.+16     	; 0x24ba <f_write+0x31c>
    24aa:	eb 81       	ldd	r30, Y+3	; 0x03
    24ac:	fc 81       	ldd	r31, Y+4	; 0x04
    24ae:	84 81       	ldd	r24, Z+4	; 0x04
    24b0:	80 68       	ori	r24, 0x80	; 128
    24b2:	84 83       	std	Z+4, r24	; 0x04
    24b4:	77 24       	eor	r7, r7
    24b6:	73 94       	inc	r7
    24b8:	62 c0       	rjmp	.+196    	; 0x257e <f_write+0x3e0>
    24ba:	c6 01       	movw	r24, r12
    24bc:	91 70       	andi	r25, 0x01	; 1
    24be:	20 e0       	ldi	r18, 0x00	; 0
    24c0:	32 e0       	ldi	r19, 0x02	; 2
    24c2:	28 1b       	sub	r18, r24
    24c4:	39 0b       	sbc	r19, r25
    24c6:	82 01       	movw	r16, r4
    24c8:	24 15       	cp	r18, r4
    24ca:	35 05       	cpc	r19, r5
    24cc:	08 f4       	brcc	.+2      	; 0x24d0 <f_write+0x332>
    24ce:	89 01       	movw	r16, r18
    24d0:	ab 81       	ldd	r26, Y+3	; 0x03
    24d2:	bc 81       	ldd	r27, Y+4	; 0x04
    24d4:	16 96       	adiw	r26, 0x06	; 6
    24d6:	8d 91       	ld	r24, X+
    24d8:	9c 91       	ld	r25, X
    24da:	17 97       	sbiw	r26, 0x07	; 7
    24dc:	91 70       	andi	r25, 0x01	; 1
    24de:	8e 96       	adiw	r24, 0x2e	; 46
    24e0:	2d 91       	ld	r18, X+
    24e2:	3c 91       	ld	r19, X
    24e4:	82 0f       	add	r24, r18
    24e6:	93 1f       	adc	r25, r19
    24e8:	b1 01       	movw	r22, r2
    24ea:	a8 01       	movw	r20, r16
    24ec:	0e 94 fd 03 	call	0x7fa	; 0x7fa <mem_cpy>
    24f0:	ab 81       	ldd	r26, Y+3	; 0x03
    24f2:	bc 81       	ldd	r27, Y+4	; 0x04
    24f4:	ed 91       	ld	r30, X+
    24f6:	fc 91       	ld	r31, X
    24f8:	64 82       	std	Z+4, r6	; 0x04
    24fa:	20 0e       	add	r2, r16
    24fc:	31 1e       	adc	r3, r17
    24fe:	a8 01       	movw	r20, r16
    2500:	60 e0       	ldi	r22, 0x00	; 0
    2502:	70 e0       	ldi	r23, 0x00	; 0
    2504:	eb 81       	ldd	r30, Y+3	; 0x03
    2506:	fc 81       	ldd	r31, Y+4	; 0x04
    2508:	86 81       	ldd	r24, Z+6	; 0x06
    250a:	97 81       	ldd	r25, Z+7	; 0x07
    250c:	a0 85       	ldd	r26, Z+8	; 0x08
    250e:	b1 85       	ldd	r27, Z+9	; 0x09
    2510:	84 0f       	add	r24, r20
    2512:	95 1f       	adc	r25, r21
    2514:	a6 1f       	adc	r26, r22
    2516:	b7 1f       	adc	r27, r23
    2518:	86 83       	std	Z+6, r24	; 0x06
    251a:	97 83       	std	Z+7, r25	; 0x07
    251c:	a0 87       	std	Z+8, r26	; 0x08
    251e:	b1 87       	std	Z+9, r27	; 0x09
    2520:	a9 81       	ldd	r26, Y+1	; 0x01
    2522:	ba 81       	ldd	r27, Y+2	; 0x02
    2524:	8d 91       	ld	r24, X+
    2526:	9c 91       	ld	r25, X
    2528:	11 97       	sbiw	r26, 0x01	; 1
    252a:	80 0f       	add	r24, r16
    252c:	91 1f       	adc	r25, r17
    252e:	11 96       	adiw	r26, 0x01	; 1
    2530:	9c 93       	st	X, r25
    2532:	8e 93       	st	-X, r24
    2534:	40 1a       	sub	r4, r16
    2536:	51 0a       	sbc	r5, r17
    2538:	41 14       	cp	r4, r1
    253a:	51 04       	cpc	r5, r1
    253c:	09 f0       	breq	.+2      	; 0x2540 <f_write+0x3a2>
    253e:	7c ce       	rjmp	.-776    	; 0x2238 <f_write+0x9a>
    2540:	eb 81       	ldd	r30, Y+3	; 0x03
    2542:	fc 81       	ldd	r31, Y+4	; 0x04
    2544:	86 81       	ldd	r24, Z+6	; 0x06
    2546:	97 81       	ldd	r25, Z+7	; 0x07
    2548:	a0 85       	ldd	r26, Z+8	; 0x08
    254a:	b1 85       	ldd	r27, Z+9	; 0x09
    254c:	42 85       	ldd	r20, Z+10	; 0x0a
    254e:	53 85       	ldd	r21, Z+11	; 0x0b
    2550:	64 85       	ldd	r22, Z+12	; 0x0c
    2552:	75 85       	ldd	r23, Z+13	; 0x0d
    2554:	48 17       	cp	r20, r24
    2556:	59 07       	cpc	r21, r25
    2558:	6a 07       	cpc	r22, r26
    255a:	7b 07       	cpc	r23, r27
    255c:	20 f4       	brcc	.+8      	; 0x2566 <f_write+0x3c8>
    255e:	82 87       	std	Z+10, r24	; 0x0a
    2560:	93 87       	std	Z+11, r25	; 0x0b
    2562:	a4 87       	std	Z+12, r26	; 0x0c
    2564:	b5 87       	std	Z+13, r27	; 0x0d
    2566:	ab 81       	ldd	r26, Y+3	; 0x03
    2568:	bc 81       	ldd	r27, Y+4	; 0x04
    256a:	14 96       	adiw	r26, 0x04	; 4
    256c:	8c 91       	ld	r24, X
    256e:	14 97       	sbiw	r26, 0x04	; 4
    2570:	80 62       	ori	r24, 0x20	; 32
    2572:	14 96       	adiw	r26, 0x04	; 4
    2574:	8c 93       	st	X, r24
    2576:	14 97       	sbiw	r26, 0x04	; 4
    2578:	02 c0       	rjmp	.+4      	; 0x257e <f_write+0x3e0>
    257a:	b7 e0       	ldi	r27, 0x07	; 7
    257c:	7b 2e       	mov	r7, r27
    257e:	87 2d       	mov	r24, r7
    2580:	0f 90       	pop	r0
    2582:	0f 90       	pop	r0
    2584:	0f 90       	pop	r0
    2586:	0f 90       	pop	r0
    2588:	df 91       	pop	r29
    258a:	cf 91       	pop	r28
    258c:	1f 91       	pop	r17
    258e:	0f 91       	pop	r16
    2590:	ff 90       	pop	r15
    2592:	ef 90       	pop	r14
    2594:	df 90       	pop	r13
    2596:	cf 90       	pop	r12
    2598:	bf 90       	pop	r11
    259a:	af 90       	pop	r10
    259c:	9f 90       	pop	r9
    259e:	8f 90       	pop	r8
    25a0:	7f 90       	pop	r7
    25a2:	6f 90       	pop	r6
    25a4:	5f 90       	pop	r5
    25a6:	4f 90       	pop	r4
    25a8:	3f 90       	pop	r3
    25aa:	2f 90       	pop	r2
    25ac:	08 95       	ret

000025ae <f_sync>:
    25ae:	0f 93       	push	r16
    25b0:	1f 93       	push	r17
    25b2:	cf 93       	push	r28
    25b4:	df 93       	push	r29
    25b6:	ec 01       	movw	r28, r24
    25b8:	6a 81       	ldd	r22, Y+2	; 0x02
    25ba:	7b 81       	ldd	r23, Y+3	; 0x03
    25bc:	88 81       	ld	r24, Y
    25be:	99 81       	ldd	r25, Y+1	; 0x01
    25c0:	0e 94 94 04 	call	0x928	; 0x928 <validate>
    25c4:	98 2f       	mov	r25, r24
    25c6:	88 23       	and	r24, r24
    25c8:	09 f0       	breq	.+2      	; 0x25cc <f_sync+0x1e>
    25ca:	9b c0       	rjmp	.+310    	; 0x2702 <f_sync+0x154>
    25cc:	8c 81       	ldd	r24, Y+4	; 0x04
    25ce:	85 ff       	sbrs	r24, 5
    25d0:	98 c0       	rjmp	.+304    	; 0x2702 <f_sync+0x154>
    25d2:	4a 8d       	ldd	r20, Y+26	; 0x1a
    25d4:	5b 8d       	ldd	r21, Y+27	; 0x1b
    25d6:	6c 8d       	ldd	r22, Y+28	; 0x1c
    25d8:	7d 8d       	ldd	r23, Y+29	; 0x1d
    25da:	88 81       	ld	r24, Y
    25dc:	99 81       	ldd	r25, Y+1	; 0x01
    25de:	0e 94 1b 04 	call	0x836	; 0x836 <move_window>
    25e2:	98 2f       	mov	r25, r24
    25e4:	88 23       	and	r24, r24
    25e6:	09 f0       	breq	.+2      	; 0x25ea <f_sync+0x3c>
    25e8:	8c c0       	rjmp	.+280    	; 0x2702 <f_sync+0x154>
    25ea:	0e 8d       	ldd	r16, Y+30	; 0x1e
    25ec:	1f 8d       	ldd	r17, Y+31	; 0x1f
    25ee:	f8 01       	movw	r30, r16
    25f0:	83 85       	ldd	r24, Z+11	; 0x0b
    25f2:	80 62       	ori	r24, 0x20	; 32
    25f4:	83 87       	std	Z+11, r24	; 0x0b
    25f6:	8a 85       	ldd	r24, Y+10	; 0x0a
    25f8:	9b 85       	ldd	r25, Y+11	; 0x0b
    25fa:	ac 85       	ldd	r26, Y+12	; 0x0c
    25fc:	bd 85       	ldd	r27, Y+13	; 0x0d
    25fe:	84 8f       	std	Z+28, r24	; 0x1c
    2600:	95 8f       	std	Z+29, r25	; 0x1d
    2602:	a6 8f       	std	Z+30, r26	; 0x1e
    2604:	b7 8f       	std	Z+31, r27	; 0x1f
    2606:	8e 85       	ldd	r24, Y+14	; 0x0e
    2608:	9f 85       	ldd	r25, Y+15	; 0x0f
    260a:	a8 89       	ldd	r26, Y+16	; 0x10
    260c:	b9 89       	ldd	r27, Y+17	; 0x11
    260e:	93 8f       	std	Z+27, r25	; 0x1b
    2610:	82 8f       	std	Z+26, r24	; 0x1a
    2612:	b5 8b       	std	Z+21, r27	; 0x15
    2614:	a4 8b       	std	Z+20, r26	; 0x14
    2616:	0e 94 11 1a 	call	0x3422	; 0x3422 <get_fattime>
    261a:	dc 01       	movw	r26, r24
    261c:	cb 01       	movw	r24, r22
    261e:	f8 01       	movw	r30, r16
    2620:	86 8b       	std	Z+22, r24	; 0x16
    2622:	97 8b       	std	Z+23, r25	; 0x17
    2624:	a0 8f       	std	Z+24, r26	; 0x18
    2626:	b1 8f       	std	Z+25, r27	; 0x19
    2628:	8c 81       	ldd	r24, Y+4	; 0x04
    262a:	8f 7d       	andi	r24, 0xDF	; 223
    262c:	8c 83       	std	Y+4, r24	; 0x04
    262e:	e8 81       	ld	r30, Y
    2630:	f9 81       	ldd	r31, Y+1	; 0x01
    2632:	81 e0       	ldi	r24, 0x01	; 1
    2634:	84 83       	std	Z+4, r24	; 0x04
    2636:	09 90       	ld	r0, Y+
    2638:	d8 81       	ld	r29, Y
    263a:	c0 2d       	mov	r28, r0
    263c:	ce 01       	movw	r24, r28
    263e:	40 e0       	ldi	r20, 0x00	; 0
    2640:	50 e0       	ldi	r21, 0x00	; 0
    2642:	ba 01       	movw	r22, r20
    2644:	0e 94 1b 04 	call	0x836	; 0x836 <move_window>
    2648:	98 2f       	mov	r25, r24
    264a:	88 23       	and	r24, r24
    264c:	09 f0       	breq	.+2      	; 0x2650 <f_sync+0xa2>
    264e:	59 c0       	rjmp	.+178    	; 0x2702 <f_sync+0x154>
    2650:	88 81       	ld	r24, Y
    2652:	83 30       	cpi	r24, 0x03	; 3
    2654:	09 f0       	breq	.+2      	; 0x2658 <f_sync+0xaa>
    2656:	4b c0       	rjmp	.+150    	; 0x26ee <f_sync+0x140>
    2658:	8d 81       	ldd	r24, Y+5	; 0x05
    265a:	88 23       	and	r24, r24
    265c:	09 f4       	brne	.+2      	; 0x2660 <f_sync+0xb2>
    265e:	47 c0       	rjmp	.+142    	; 0x26ee <f_sync+0x140>
    2660:	1a a6       	lds	r17, 0xba
    2662:	1b a6       	lds	r17, 0xbb
    2664:	1c a6       	lds	r17, 0xbc
    2666:	1d a6       	lds	r17, 0xbd
    2668:	be 01       	movw	r22, r28
    266a:	62 5d       	subi	r22, 0xD2	; 210
    266c:	7f 4f       	sbci	r23, 0xFF	; 255
    266e:	fb 01       	movw	r30, r22
    2670:	81 e0       	ldi	r24, 0x01	; 1
    2672:	92 e0       	ldi	r25, 0x02	; 2
    2674:	01 c0       	rjmp	.+2      	; 0x2678 <f_sync+0xca>
    2676:	11 92       	st	Z+, r1
    2678:	01 97       	sbiw	r24, 0x01	; 1
    267a:	e9 f7       	brne	.-6      	; 0x2676 <f_sync+0xc8>
    267c:	fe 01       	movw	r30, r28
    267e:	e4 5d       	subi	r30, 0xD4	; 212
    2680:	fd 4f       	sbci	r31, 0xFD	; 253
    2682:	85 e5       	ldi	r24, 0x55	; 85
    2684:	9a ea       	ldi	r25, 0xAA	; 170
    2686:	91 83       	std	Z+1, r25	; 0x01
    2688:	80 83       	st	Z, r24
    268a:	82 e5       	ldi	r24, 0x52	; 82
    268c:	92 e5       	ldi	r25, 0x52	; 82
    268e:	a1 e6       	ldi	r26, 0x61	; 97
    2690:	b1 e4       	ldi	r27, 0x41	; 65
    2692:	8e a7       	lds	r24, 0x7e
    2694:	9f a7       	lds	r25, 0x7f
    2696:	a8 ab       	sts	0x58, r26
    2698:	b9 ab       	sts	0x59, r27
    269a:	fe 01       	movw	r30, r28
    269c:	ee 5e       	subi	r30, 0xEE	; 238
    269e:	fd 4f       	sbci	r31, 0xFD	; 253
    26a0:	82 e7       	ldi	r24, 0x72	; 114
    26a2:	92 e7       	ldi	r25, 0x72	; 114
    26a4:	a1 e4       	ldi	r26, 0x41	; 65
    26a6:	b1 e6       	ldi	r27, 0x61	; 97
    26a8:	80 83       	st	Z, r24
    26aa:	91 83       	std	Z+1, r25	; 0x01
    26ac:	a2 83       	std	Z+2, r26	; 0x02
    26ae:	b3 83       	std	Z+3, r27	; 0x03
    26b0:	fe 01       	movw	r30, r28
    26b2:	ea 5e       	subi	r30, 0xEA	; 234
    26b4:	fd 4f       	sbci	r31, 0xFD	; 253
    26b6:	8e 85       	ldd	r24, Y+14	; 0x0e
    26b8:	9f 85       	ldd	r25, Y+15	; 0x0f
    26ba:	a8 89       	ldd	r26, Y+16	; 0x10
    26bc:	b9 89       	ldd	r27, Y+17	; 0x11
    26be:	80 83       	st	Z, r24
    26c0:	91 83       	std	Z+1, r25	; 0x01
    26c2:	a2 83       	std	Z+2, r26	; 0x02
    26c4:	b3 83       	std	Z+3, r27	; 0x03
    26c6:	fe 01       	movw	r30, r28
    26c8:	e6 5e       	subi	r30, 0xE6	; 230
    26ca:	fd 4f       	sbci	r31, 0xFD	; 253
    26cc:	8a 85       	ldd	r24, Y+10	; 0x0a
    26ce:	9b 85       	ldd	r25, Y+11	; 0x0b
    26d0:	ac 85       	ldd	r26, Y+12	; 0x0c
    26d2:	bd 85       	ldd	r27, Y+13	; 0x0d
    26d4:	80 83       	st	Z, r24
    26d6:	91 83       	std	Z+1, r25	; 0x01
    26d8:	a2 83       	std	Z+2, r26	; 0x02
    26da:	b3 83       	std	Z+3, r27	; 0x03
    26dc:	2a 89       	ldd	r18, Y+18	; 0x12
    26de:	3b 89       	ldd	r19, Y+19	; 0x13
    26e0:	4c 89       	ldd	r20, Y+20	; 0x14
    26e2:	5d 89       	ldd	r21, Y+21	; 0x15
    26e4:	89 81       	ldd	r24, Y+1	; 0x01
    26e6:	01 e0       	ldi	r16, 0x01	; 1
    26e8:	0e 94 54 22 	call	0x44a8	; 0x44a8 <disk_write>
    26ec:	1d 82       	std	Y+5, r1	; 0x05
    26ee:	89 81       	ldd	r24, Y+1	; 0x01
    26f0:	63 e0       	ldi	r22, 0x03	; 3
    26f2:	40 e0       	ldi	r20, 0x00	; 0
    26f4:	50 e0       	ldi	r21, 0x00	; 0
    26f6:	0e 94 ca 22 	call	0x4594	; 0x4594 <disk_ioctl>
    26fa:	91 e0       	ldi	r25, 0x01	; 1
    26fc:	88 23       	and	r24, r24
    26fe:	09 f4       	brne	.+2      	; 0x2702 <f_sync+0x154>
    2700:	90 e0       	ldi	r25, 0x00	; 0
    2702:	89 2f       	mov	r24, r25
    2704:	df 91       	pop	r29
    2706:	cf 91       	pop	r28
    2708:	1f 91       	pop	r17
    270a:	0f 91       	pop	r16
    270c:	08 95       	ret

0000270e <f_close>:
    270e:	cf 93       	push	r28
    2710:	df 93       	push	r29
    2712:	ec 01       	movw	r28, r24
    2714:	0e 94 d7 12 	call	0x25ae	; 0x25ae <f_sync>
    2718:	88 23       	and	r24, r24
    271a:	11 f4       	brne	.+4      	; 0x2720 <f_close+0x12>
    271c:	19 82       	std	Y+1, r1	; 0x01
    271e:	18 82       	st	Y, r1
    2720:	df 91       	pop	r29
    2722:	cf 91       	pop	r28
    2724:	08 95       	ret

00002726 <f_lseek>:
    2726:	2f 92       	push	r2
    2728:	3f 92       	push	r3
    272a:	4f 92       	push	r4
    272c:	5f 92       	push	r5
    272e:	7f 92       	push	r7
    2730:	8f 92       	push	r8
    2732:	9f 92       	push	r9
    2734:	af 92       	push	r10
    2736:	bf 92       	push	r11
    2738:	cf 92       	push	r12
    273a:	df 92       	push	r13
    273c:	ef 92       	push	r14
    273e:	ff 92       	push	r15
    2740:	0f 93       	push	r16
    2742:	1f 93       	push	r17
    2744:	cf 93       	push	r28
    2746:	df 93       	push	r29
    2748:	00 d0       	rcall	.+0      	; 0x274a <f_lseek+0x24>
    274a:	00 d0       	rcall	.+0      	; 0x274c <f_lseek+0x26>
    274c:	00 d0       	rcall	.+0      	; 0x274e <f_lseek+0x28>
    274e:	cd b7       	in	r28, 0x3d	; 61
    2750:	de b7       	in	r29, 0x3e	; 62
    2752:	9e 83       	std	Y+6, r25	; 0x06
    2754:	8d 83       	std	Y+5, r24	; 0x05
    2756:	6a 01       	movw	r12, r20
    2758:	7b 01       	movw	r14, r22
    275a:	dc 01       	movw	r26, r24
    275c:	12 96       	adiw	r26, 0x02	; 2
    275e:	6d 91       	ld	r22, X+
    2760:	7c 91       	ld	r23, X
    2762:	13 97       	sbiw	r26, 0x03	; 3
    2764:	8d 91       	ld	r24, X+
    2766:	9c 91       	ld	r25, X
    2768:	0e 94 94 04 	call	0x928	; 0x928 <validate>
    276c:	78 2e       	mov	r7, r24
    276e:	88 23       	and	r24, r24
    2770:	09 f0       	breq	.+2      	; 0x2774 <f_lseek+0x4e>
    2772:	88 c1       	rjmp	.+784    	; 0x2a84 <f_lseek+0x35e>
    2774:	ed 81       	ldd	r30, Y+5	; 0x05
    2776:	fe 81       	ldd	r31, Y+6	; 0x06
    2778:	24 81       	ldd	r18, Z+4	; 0x04
    277a:	27 fd       	sbrc	r18, 7
    277c:	81 c1       	rjmp	.+770    	; 0x2a80 <f_lseek+0x35a>
    277e:	82 85       	ldd	r24, Z+10	; 0x0a
    2780:	93 85       	ldd	r25, Z+11	; 0x0b
    2782:	a4 85       	ldd	r26, Z+12	; 0x0c
    2784:	b5 85       	ldd	r27, Z+13	; 0x0d
    2786:	8c 15       	cp	r24, r12
    2788:	9d 05       	cpc	r25, r13
    278a:	ae 05       	cpc	r26, r14
    278c:	bf 05       	cpc	r27, r15
    278e:	20 f4       	brcc	.+8      	; 0x2798 <f_lseek+0x72>
    2790:	21 fd       	sbrc	r18, 1
    2792:	02 c0       	rjmp	.+4      	; 0x2798 <f_lseek+0x72>
    2794:	6c 01       	movw	r12, r24
    2796:	7d 01       	movw	r14, r26
    2798:	ed 81       	ldd	r30, Y+5	; 0x05
    279a:	fe 81       	ldd	r31, Y+6	; 0x06
    279c:	86 81       	ldd	r24, Z+6	; 0x06
    279e:	97 81       	ldd	r25, Z+7	; 0x07
    27a0:	a0 85       	ldd	r26, Z+8	; 0x08
    27a2:	b1 85       	ldd	r27, Z+9	; 0x09
    27a4:	16 82       	std	Z+6, r1	; 0x06
    27a6:	17 82       	std	Z+7, r1	; 0x07
    27a8:	10 86       	std	Z+8, r1	; 0x08
    27aa:	11 86       	std	Z+9, r1	; 0x09
    27ac:	c1 14       	cp	r12, r1
    27ae:	d1 04       	cpc	r13, r1
    27b0:	e1 04       	cpc	r14, r1
    27b2:	f1 04       	cpc	r15, r1
    27b4:	09 f4       	brne	.+2      	; 0x27b8 <f_lseek+0x92>
    27b6:	31 c1       	rjmp	.+610    	; 0x2a1a <f_lseek+0x2f4>
    27b8:	00 81       	ld	r16, Z
    27ba:	11 81       	ldd	r17, Z+1	; 0x01
    27bc:	f8 01       	movw	r30, r16
    27be:	82 80       	ldd	r8, Z+2	; 0x02
    27c0:	99 24       	eor	r9, r9
    27c2:	aa 24       	eor	r10, r10
    27c4:	bb 24       	eor	r11, r11
    27c6:	39 e0       	ldi	r19, 0x09	; 9
    27c8:	88 0c       	add	r8, r8
    27ca:	99 1c       	adc	r9, r9
    27cc:	aa 1c       	adc	r10, r10
    27ce:	bb 1c       	adc	r11, r11
    27d0:	3a 95       	dec	r19
    27d2:	d1 f7       	brne	.-12     	; 0x27c8 <f_lseek+0xa2>
    27d4:	00 97       	sbiw	r24, 0x00	; 0
    27d6:	a1 05       	cpc	r26, r1
    27d8:	b1 05       	cpc	r27, r1
    27da:	f1 f1       	breq	.+124    	; 0x2858 <f_lseek+0x132>
    27dc:	1c 01       	movw	r2, r24
    27de:	2d 01       	movw	r4, r26
    27e0:	08 94       	sec
    27e2:	21 08       	sbc	r2, r1
    27e4:	31 08       	sbc	r3, r1
    27e6:	41 08       	sbc	r4, r1
    27e8:	51 08       	sbc	r5, r1
    27ea:	c7 01       	movw	r24, r14
    27ec:	b6 01       	movw	r22, r12
    27ee:	61 50       	subi	r22, 0x01	; 1
    27f0:	70 40       	sbci	r23, 0x00	; 0
    27f2:	80 40       	sbci	r24, 0x00	; 0
    27f4:	90 40       	sbci	r25, 0x00	; 0
    27f6:	a5 01       	movw	r20, r10
    27f8:	94 01       	movw	r18, r8
    27fa:	0e 94 3b 2f 	call	0x5e76	; 0x5e76 <__udivmodsi4>
    27fe:	29 83       	std	Y+1, r18	; 0x01
    2800:	3a 83       	std	Y+2, r19	; 0x02
    2802:	4b 83       	std	Y+3, r20	; 0x03
    2804:	5c 83       	std	Y+4, r21	; 0x04
    2806:	c2 01       	movw	r24, r4
    2808:	b1 01       	movw	r22, r2
    280a:	a5 01       	movw	r20, r10
    280c:	94 01       	movw	r18, r8
    280e:	0e 94 3b 2f 	call	0x5e76	; 0x5e76 <__udivmodsi4>
    2812:	89 81       	ldd	r24, Y+1	; 0x01
    2814:	9a 81       	ldd	r25, Y+2	; 0x02
    2816:	ab 81       	ldd	r26, Y+3	; 0x03
    2818:	bc 81       	ldd	r27, Y+4	; 0x04
    281a:	82 17       	cp	r24, r18
    281c:	93 07       	cpc	r25, r19
    281e:	a4 07       	cpc	r26, r20
    2820:	b5 07       	cpc	r27, r21
    2822:	d0 f0       	brcs	.+52     	; 0x2858 <f_lseek+0x132>
    2824:	88 27       	eor	r24, r24
    2826:	99 27       	eor	r25, r25
    2828:	dc 01       	movw	r26, r24
    282a:	88 19       	sub	r24, r8
    282c:	99 09       	sbc	r25, r9
    282e:	aa 09       	sbc	r26, r10
    2830:	bb 09       	sbc	r27, r11
    2832:	82 21       	and	r24, r2
    2834:	93 21       	and	r25, r3
    2836:	a4 21       	and	r26, r4
    2838:	b5 21       	and	r27, r5
    283a:	ed 81       	ldd	r30, Y+5	; 0x05
    283c:	fe 81       	ldd	r31, Y+6	; 0x06
    283e:	86 83       	std	Z+6, r24	; 0x06
    2840:	97 83       	std	Z+7, r25	; 0x07
    2842:	a0 87       	std	Z+8, r26	; 0x08
    2844:	b1 87       	std	Z+9, r27	; 0x09
    2846:	c8 1a       	sub	r12, r24
    2848:	d9 0a       	sbc	r13, r25
    284a:	ea 0a       	sbc	r14, r26
    284c:	fb 0a       	sbc	r15, r27
    284e:	42 89       	ldd	r20, Z+18	; 0x12
    2850:	53 89       	ldd	r21, Z+19	; 0x13
    2852:	64 89       	ldd	r22, Z+20	; 0x14
    2854:	75 89       	ldd	r23, Z+21	; 0x15
    2856:	36 c0       	rjmp	.+108    	; 0x28c4 <f_lseek+0x19e>
    2858:	ad 81       	ldd	r26, Y+5	; 0x05
    285a:	be 81       	ldd	r27, Y+6	; 0x06
    285c:	1e 96       	adiw	r26, 0x0e	; 14
    285e:	4d 91       	ld	r20, X+
    2860:	5d 91       	ld	r21, X+
    2862:	6d 91       	ld	r22, X+
    2864:	7c 91       	ld	r23, X
    2866:	51 97       	sbiw	r26, 0x11	; 17
    2868:	41 15       	cp	r20, r1
    286a:	51 05       	cpc	r21, r1
    286c:	61 05       	cpc	r22, r1
    286e:	71 05       	cpc	r23, r1
    2870:	09 f5       	brne	.+66     	; 0x28b4 <f_lseek+0x18e>
    2872:	c8 01       	movw	r24, r16
    2874:	40 e0       	ldi	r20, 0x00	; 0
    2876:	50 e0       	ldi	r21, 0x00	; 0
    2878:	ba 01       	movw	r22, r20
    287a:	0e 94 e4 09 	call	0x13c8	; 0x13c8 <create_chain>
    287e:	ab 01       	movw	r20, r22
    2880:	bc 01       	movw	r22, r24
    2882:	41 30       	cpi	r20, 0x01	; 1
    2884:	51 05       	cpc	r21, r1
    2886:	61 05       	cpc	r22, r1
    2888:	71 05       	cpc	r23, r1
    288a:	19 f4       	brne	.+6      	; 0x2892 <f_lseek+0x16c>
    288c:	ed 81       	ldd	r30, Y+5	; 0x05
    288e:	fe 81       	ldd	r31, Y+6	; 0x06
    2890:	5f c0       	rjmp	.+190    	; 0x2950 <f_lseek+0x22a>
    2892:	4f 3f       	cpi	r20, 0xFF	; 255
    2894:	ff ef       	ldi	r31, 0xFF	; 255
    2896:	5f 07       	cpc	r21, r31
    2898:	ff ef       	ldi	r31, 0xFF	; 255
    289a:	6f 07       	cpc	r22, r31
    289c:	ff ef       	ldi	r31, 0xFF	; 255
    289e:	7f 07       	cpc	r23, r31
    28a0:	19 f4       	brne	.+6      	; 0x28a8 <f_lseek+0x182>
    28a2:	ad 81       	ldd	r26, Y+5	; 0x05
    28a4:	be 81       	ldd	r27, Y+6	; 0x06
    28a6:	36 c0       	rjmp	.+108    	; 0x2914 <f_lseek+0x1ee>
    28a8:	ed 81       	ldd	r30, Y+5	; 0x05
    28aa:	fe 81       	ldd	r31, Y+6	; 0x06
    28ac:	46 87       	std	Z+14, r20	; 0x0e
    28ae:	57 87       	std	Z+15, r21	; 0x0f
    28b0:	60 8b       	std	Z+16, r22	; 0x10
    28b2:	71 8b       	std	Z+17, r23	; 0x11
    28b4:	ad 81       	ldd	r26, Y+5	; 0x05
    28b6:	be 81       	ldd	r27, Y+6	; 0x06
    28b8:	52 96       	adiw	r26, 0x12	; 18
    28ba:	4d 93       	st	X+, r20
    28bc:	5d 93       	st	X+, r21
    28be:	6d 93       	st	X+, r22
    28c0:	7c 93       	st	X, r23
    28c2:	55 97       	sbiw	r26, 0x15	; 21
    28c4:	41 15       	cp	r20, r1
    28c6:	51 05       	cpc	r21, r1
    28c8:	61 05       	cpc	r22, r1
    28ca:	71 05       	cpc	r23, r1
    28cc:	09 f4       	brne	.+2      	; 0x28d0 <f_lseek+0x1aa>
    28ce:	a5 c0       	rjmp	.+330    	; 0x2a1a <f_lseek+0x2f4>
    28d0:	0d 81       	ldd	r16, Y+5	; 0x05
    28d2:	1e 81       	ldd	r17, Y+6	; 0x06
    28d4:	5b c0       	rjmp	.+182    	; 0x298c <f_lseek+0x266>
    28d6:	f8 01       	movw	r30, r16
    28d8:	24 81       	ldd	r18, Z+4	; 0x04
    28da:	80 81       	ld	r24, Z
    28dc:	91 81       	ldd	r25, Z+1	; 0x01
    28de:	21 ff       	sbrs	r18, 1
    28e0:	0a c0       	rjmp	.+20     	; 0x28f6 <f_lseek+0x1d0>
    28e2:	0e 94 e4 09 	call	0x13c8	; 0x13c8 <create_chain>
    28e6:	ab 01       	movw	r20, r22
    28e8:	bc 01       	movw	r22, r24
    28ea:	41 15       	cp	r20, r1
    28ec:	51 05       	cpc	r21, r1
    28ee:	61 05       	cpc	r22, r1
    28f0:	71 05       	cpc	r23, r1
    28f2:	29 f4       	brne	.+10     	; 0x28fe <f_lseek+0x1d8>
    28f4:	54 c0       	rjmp	.+168    	; 0x299e <f_lseek+0x278>
    28f6:	0e 94 b3 07 	call	0xf66	; 0xf66 <get_fat>
    28fa:	ab 01       	movw	r20, r22
    28fc:	bc 01       	movw	r22, r24
    28fe:	4f 3f       	cpi	r20, 0xFF	; 255
    2900:	ff ef       	ldi	r31, 0xFF	; 255
    2902:	5f 07       	cpc	r21, r31
    2904:	ff ef       	ldi	r31, 0xFF	; 255
    2906:	6f 07       	cpc	r22, r31
    2908:	ff ef       	ldi	r31, 0xFF	; 255
    290a:	7f 07       	cpc	r23, r31
    290c:	69 f4       	brne	.+26     	; 0x2928 <f_lseek+0x202>
    290e:	1e 83       	std	Y+6, r17	; 0x06
    2910:	0d 83       	std	Y+5, r16	; 0x05
    2912:	d8 01       	movw	r26, r16
    2914:	14 96       	adiw	r26, 0x04	; 4
    2916:	8c 91       	ld	r24, X
    2918:	14 97       	sbiw	r26, 0x04	; 4
    291a:	80 68       	ori	r24, 0x80	; 128
    291c:	14 96       	adiw	r26, 0x04	; 4
    291e:	8c 93       	st	X, r24
    2920:	14 97       	sbiw	r26, 0x04	; 4
    2922:	77 24       	eor	r7, r7
    2924:	73 94       	inc	r7
    2926:	ae c0       	rjmp	.+348    	; 0x2a84 <f_lseek+0x35e>
    2928:	42 30       	cpi	r20, 0x02	; 2
    292a:	51 05       	cpc	r21, r1
    292c:	61 05       	cpc	r22, r1
    292e:	71 05       	cpc	r23, r1
    2930:	60 f0       	brcs	.+24     	; 0x294a <f_lseek+0x224>
    2932:	d8 01       	movw	r26, r16
    2934:	ed 91       	ld	r30, X+
    2936:	fc 91       	ld	r31, X
    2938:	86 89       	ldd	r24, Z+22	; 0x16
    293a:	97 89       	ldd	r25, Z+23	; 0x17
    293c:	a0 8d       	ldd	r26, Z+24	; 0x18
    293e:	b1 8d       	ldd	r27, Z+25	; 0x19
    2940:	48 17       	cp	r20, r24
    2942:	59 07       	cpc	r21, r25
    2944:	6a 07       	cpc	r22, r26
    2946:	7b 07       	cpc	r23, r27
    2948:	38 f0       	brcs	.+14     	; 0x2958 <f_lseek+0x232>
    294a:	1e 83       	std	Y+6, r17	; 0x06
    294c:	0d 83       	std	Y+5, r16	; 0x05
    294e:	f8 01       	movw	r30, r16
    2950:	84 81       	ldd	r24, Z+4	; 0x04
    2952:	80 68       	ori	r24, 0x80	; 128
    2954:	84 83       	std	Z+4, r24	; 0x04
    2956:	94 c0       	rjmp	.+296    	; 0x2a80 <f_lseek+0x35a>
    2958:	d8 01       	movw	r26, r16
    295a:	52 96       	adiw	r26, 0x12	; 18
    295c:	4d 93       	st	X+, r20
    295e:	5d 93       	st	X+, r21
    2960:	6d 93       	st	X+, r22
    2962:	7c 93       	st	X, r23
    2964:	55 97       	sbiw	r26, 0x15	; 21
    2966:	16 96       	adiw	r26, 0x06	; 6
    2968:	8d 91       	ld	r24, X+
    296a:	9d 91       	ld	r25, X+
    296c:	0d 90       	ld	r0, X+
    296e:	bc 91       	ld	r27, X
    2970:	a0 2d       	mov	r26, r0
    2972:	88 0d       	add	r24, r8
    2974:	99 1d       	adc	r25, r9
    2976:	aa 1d       	adc	r26, r10
    2978:	bb 1d       	adc	r27, r11
    297a:	f8 01       	movw	r30, r16
    297c:	86 83       	std	Z+6, r24	; 0x06
    297e:	97 83       	std	Z+7, r25	; 0x07
    2980:	a0 87       	std	Z+8, r26	; 0x08
    2982:	b1 87       	std	Z+9, r27	; 0x09
    2984:	c8 18       	sub	r12, r8
    2986:	d9 08       	sbc	r13, r9
    2988:	ea 08       	sbc	r14, r10
    298a:	fb 08       	sbc	r15, r11
    298c:	8c 14       	cp	r8, r12
    298e:	9d 04       	cpc	r9, r13
    2990:	ae 04       	cpc	r10, r14
    2992:	bf 04       	cpc	r11, r15
    2994:	08 f4       	brcc	.+2      	; 0x2998 <f_lseek+0x272>
    2996:	9f cf       	rjmp	.-194    	; 0x28d6 <f_lseek+0x1b0>
    2998:	1e 83       	std	Y+6, r17	; 0x06
    299a:	0d 83       	std	Y+5, r16	; 0x05
    299c:	04 c0       	rjmp	.+8      	; 0x29a6 <f_lseek+0x280>
    299e:	1e 83       	std	Y+6, r17	; 0x06
    29a0:	0d 83       	std	Y+5, r16	; 0x05
    29a2:	75 01       	movw	r14, r10
    29a4:	64 01       	movw	r12, r8
    29a6:	ed 81       	ldd	r30, Y+5	; 0x05
    29a8:	fe 81       	ldd	r31, Y+6	; 0x06
    29aa:	86 81       	ldd	r24, Z+6	; 0x06
    29ac:	97 81       	ldd	r25, Z+7	; 0x07
    29ae:	a0 85       	ldd	r26, Z+8	; 0x08
    29b0:	b1 85       	ldd	r27, Z+9	; 0x09
    29b2:	8c 0d       	add	r24, r12
    29b4:	9d 1d       	adc	r25, r13
    29b6:	ae 1d       	adc	r26, r14
    29b8:	bf 1d       	adc	r27, r15
    29ba:	86 83       	std	Z+6, r24	; 0x06
    29bc:	97 83       	std	Z+7, r25	; 0x07
    29be:	a0 87       	std	Z+8, r26	; 0x08
    29c0:	b1 87       	std	Z+9, r27	; 0x09
    29c2:	d7 01       	movw	r26, r14
    29c4:	c6 01       	movw	r24, r12
    29c6:	91 70       	andi	r25, 0x01	; 1
    29c8:	a0 70       	andi	r26, 0x00	; 0
    29ca:	b0 70       	andi	r27, 0x00	; 0
    29cc:	00 97       	sbiw	r24, 0x00	; 0
    29ce:	a1 05       	cpc	r26, r1
    29d0:	b1 05       	cpc	r27, r1
    29d2:	19 f1       	breq	.+70     	; 0x2a1a <f_lseek+0x2f4>
    29d4:	80 81       	ld	r24, Z
    29d6:	91 81       	ldd	r25, Z+1	; 0x01
    29d8:	0e 94 7f 07 	call	0xefe	; 0xefe <clust2sect>
    29dc:	ab 01       	movw	r20, r22
    29de:	bc 01       	movw	r22, r24
    29e0:	41 15       	cp	r20, r1
    29e2:	51 05       	cpc	r21, r1
    29e4:	61 05       	cpc	r22, r1
    29e6:	71 05       	cpc	r23, r1
    29e8:	51 f4       	brne	.+20     	; 0x29fe <f_lseek+0x2d8>
    29ea:	ad 81       	ldd	r26, Y+5	; 0x05
    29ec:	be 81       	ldd	r27, Y+6	; 0x06
    29ee:	14 96       	adiw	r26, 0x04	; 4
    29f0:	8c 91       	ld	r24, X
    29f2:	14 97       	sbiw	r26, 0x04	; 4
    29f4:	80 68       	ori	r24, 0x80	; 128
    29f6:	14 96       	adiw	r26, 0x04	; 4
    29f8:	8c 93       	st	X, r24
    29fa:	14 97       	sbiw	r26, 0x04	; 4
    29fc:	41 c0       	rjmp	.+130    	; 0x2a80 <f_lseek+0x35a>
    29fe:	d7 01       	movw	r26, r14
    2a00:	c6 01       	movw	r24, r12
    2a02:	29 e0       	ldi	r18, 0x09	; 9
    2a04:	b6 95       	lsr	r27
    2a06:	a7 95       	ror	r26
    2a08:	97 95       	ror	r25
    2a0a:	87 95       	ror	r24
    2a0c:	2a 95       	dec	r18
    2a0e:	d1 f7       	brne	.-12     	; 0x2a04 <f_lseek+0x2de>
    2a10:	84 0f       	add	r24, r20
    2a12:	95 1f       	adc	r25, r21
    2a14:	a6 1f       	adc	r26, r22
    2a16:	b7 1f       	adc	r27, r23
    2a18:	03 c0       	rjmp	.+6      	; 0x2a20 <f_lseek+0x2fa>
    2a1a:	80 e0       	ldi	r24, 0x00	; 0
    2a1c:	90 e0       	ldi	r25, 0x00	; 0
    2a1e:	dc 01       	movw	r26, r24
    2a20:	ed 81       	ldd	r30, Y+5	; 0x05
    2a22:	fe 81       	ldd	r31, Y+6	; 0x06
    2a24:	06 81       	ldd	r16, Z+6	; 0x06
    2a26:	17 81       	ldd	r17, Z+7	; 0x07
    2a28:	20 85       	ldd	r18, Z+8	; 0x08
    2a2a:	31 85       	ldd	r19, Z+9	; 0x09
    2a2c:	b9 01       	movw	r22, r18
    2a2e:	a8 01       	movw	r20, r16
    2a30:	51 70       	andi	r21, 0x01	; 1
    2a32:	60 70       	andi	r22, 0x00	; 0
    2a34:	70 70       	andi	r23, 0x00	; 0
    2a36:	41 15       	cp	r20, r1
    2a38:	51 05       	cpc	r21, r1
    2a3a:	61 05       	cpc	r22, r1
    2a3c:	71 05       	cpc	r23, r1
    2a3e:	69 f0       	breq	.+26     	; 0x2a5a <f_lseek+0x334>
    2a40:	46 89       	ldd	r20, Z+22	; 0x16
    2a42:	57 89       	ldd	r21, Z+23	; 0x17
    2a44:	60 8d       	ldd	r22, Z+24	; 0x18
    2a46:	71 8d       	ldd	r23, Z+25	; 0x19
    2a48:	84 17       	cp	r24, r20
    2a4a:	95 07       	cpc	r25, r21
    2a4c:	a6 07       	cpc	r26, r22
    2a4e:	b7 07       	cpc	r27, r23
    2a50:	21 f0       	breq	.+8      	; 0x2a5a <f_lseek+0x334>
    2a52:	86 8b       	std	Z+22, r24	; 0x16
    2a54:	97 8b       	std	Z+23, r25	; 0x17
    2a56:	a0 8f       	std	Z+24, r26	; 0x18
    2a58:	b1 8f       	std	Z+25, r27	; 0x19
    2a5a:	ed 81       	ldd	r30, Y+5	; 0x05
    2a5c:	fe 81       	ldd	r31, Y+6	; 0x06
    2a5e:	82 85       	ldd	r24, Z+10	; 0x0a
    2a60:	93 85       	ldd	r25, Z+11	; 0x0b
    2a62:	a4 85       	ldd	r26, Z+12	; 0x0c
    2a64:	b5 85       	ldd	r27, Z+13	; 0x0d
    2a66:	80 17       	cp	r24, r16
    2a68:	91 07       	cpc	r25, r17
    2a6a:	a2 07       	cpc	r26, r18
    2a6c:	b3 07       	cpc	r27, r19
    2a6e:	50 f4       	brcc	.+20     	; 0x2a84 <f_lseek+0x35e>
    2a70:	02 87       	std	Z+10, r16	; 0x0a
    2a72:	13 87       	std	Z+11, r17	; 0x0b
    2a74:	24 87       	std	Z+12, r18	; 0x0c
    2a76:	35 87       	std	Z+13, r19	; 0x0d
    2a78:	84 81       	ldd	r24, Z+4	; 0x04
    2a7a:	80 62       	ori	r24, 0x20	; 32
    2a7c:	84 83       	std	Z+4, r24	; 0x04
    2a7e:	02 c0       	rjmp	.+4      	; 0x2a84 <f_lseek+0x35e>
    2a80:	02 e0       	ldi	r16, 0x02	; 2
    2a82:	70 2e       	mov	r7, r16
    2a84:	87 2d       	mov	r24, r7
    2a86:	26 96       	adiw	r28, 0x06	; 6
    2a88:	0f b6       	in	r0, 0x3f	; 63
    2a8a:	f8 94       	cli
    2a8c:	de bf       	out	0x3e, r29	; 62
    2a8e:	0f be       	out	0x3f, r0	; 63
    2a90:	cd bf       	out	0x3d, r28	; 61
    2a92:	df 91       	pop	r29
    2a94:	cf 91       	pop	r28
    2a96:	1f 91       	pop	r17
    2a98:	0f 91       	pop	r16
    2a9a:	ff 90       	pop	r15
    2a9c:	ef 90       	pop	r14
    2a9e:	df 90       	pop	r13
    2aa0:	cf 90       	pop	r12
    2aa2:	bf 90       	pop	r11
    2aa4:	af 90       	pop	r10
    2aa6:	9f 90       	pop	r9
    2aa8:	8f 90       	pop	r8
    2aaa:	7f 90       	pop	r7
    2aac:	5f 90       	pop	r5
    2aae:	4f 90       	pop	r4
    2ab0:	3f 90       	pop	r3
    2ab2:	2f 90       	pop	r2
    2ab4:	08 95       	ret

00002ab6 <f_opendir>:
    2ab6:	0f 93       	push	r16
    2ab8:	1f 93       	push	r17
    2aba:	cf 93       	push	r28
    2abc:	df 93       	push	r29
    2abe:	cd b7       	in	r28, 0x3d	; 61
    2ac0:	de b7       	in	r29, 0x3e	; 62
    2ac2:	2e 97       	sbiw	r28, 0x0e	; 14
    2ac4:	0f b6       	in	r0, 0x3f	; 63
    2ac6:	f8 94       	cli
    2ac8:	de bf       	out	0x3e, r29	; 62
    2aca:	0f be       	out	0x3f, r0	; 63
    2acc:	cd bf       	out	0x3d, r28	; 61
    2ace:	8c 01       	movw	r16, r24
    2ad0:	7e 87       	std	Y+14, r23	; 0x0e
    2ad2:	6d 87       	std	Y+13, r22	; 0x0d
    2ad4:	ce 01       	movw	r24, r28
    2ad6:	0d 96       	adiw	r24, 0x0d	; 13
    2ad8:	b8 01       	movw	r22, r16
    2ada:	40 e0       	ldi	r20, 0x00	; 0
    2adc:	0e 94 ee 04 	call	0x9dc	; 0x9dc <chk_mounted>
    2ae0:	88 23       	and	r24, r24
    2ae2:	e9 f5       	brne	.+122    	; 0x2b5e <f_opendir+0xa8>
    2ae4:	ce 01       	movw	r24, r28
    2ae6:	01 96       	adiw	r24, 0x01	; 1
    2ae8:	d8 01       	movw	r26, r16
    2aea:	55 96       	adiw	r26, 0x15	; 21
    2aec:	9c 93       	st	X, r25
    2aee:	8e 93       	st	-X, r24
    2af0:	54 97       	sbiw	r26, 0x14	; 20
    2af2:	6d 85       	ldd	r22, Y+13	; 0x0d
    2af4:	7e 85       	ldd	r23, Y+14	; 0x0e
    2af6:	c8 01       	movw	r24, r16
    2af8:	0e 94 f1 0b 	call	0x17e2	; 0x17e2 <follow_path>
    2afc:	88 23       	and	r24, r24
    2afe:	61 f5       	brne	.+88     	; 0x2b58 <f_opendir+0xa2>
    2b00:	d8 01       	movw	r26, r16
    2b02:	52 96       	adiw	r26, 0x12	; 18
    2b04:	ed 91       	ld	r30, X+
    2b06:	fc 91       	ld	r31, X
    2b08:	53 97       	sbiw	r26, 0x13	; 19
    2b0a:	30 97       	sbiw	r30, 0x00	; 0
    2b0c:	c1 f0       	breq	.+48     	; 0x2b3e <f_opendir+0x88>
    2b0e:	83 85       	ldd	r24, Z+11	; 0x0b
    2b10:	84 ff       	sbrs	r24, 4
    2b12:	24 c0       	rjmp	.+72     	; 0x2b5c <f_opendir+0xa6>
    2b14:	84 89       	ldd	r24, Z+20	; 0x14
    2b16:	95 89       	ldd	r25, Z+21	; 0x15
    2b18:	a0 e0       	ldi	r26, 0x00	; 0
    2b1a:	b0 e0       	ldi	r27, 0x00	; 0
    2b1c:	dc 01       	movw	r26, r24
    2b1e:	99 27       	eor	r25, r25
    2b20:	88 27       	eor	r24, r24
    2b22:	22 8d       	ldd	r18, Z+26	; 0x1a
    2b24:	33 8d       	ldd	r19, Z+27	; 0x1b
    2b26:	a9 01       	movw	r20, r18
    2b28:	60 e0       	ldi	r22, 0x00	; 0
    2b2a:	70 e0       	ldi	r23, 0x00	; 0
    2b2c:	84 2b       	or	r24, r20
    2b2e:	95 2b       	or	r25, r21
    2b30:	a6 2b       	or	r26, r22
    2b32:	b7 2b       	or	r27, r23
    2b34:	f8 01       	movw	r30, r16
    2b36:	86 83       	std	Z+6, r24	; 0x06
    2b38:	97 83       	std	Z+7, r25	; 0x07
    2b3a:	a0 87       	std	Z+8, r26	; 0x08
    2b3c:	b1 87       	std	Z+9, r27	; 0x09
    2b3e:	d8 01       	movw	r26, r16
    2b40:	ed 91       	ld	r30, X+
    2b42:	fc 91       	ld	r31, X
    2b44:	11 97       	sbiw	r26, 0x01	; 1
    2b46:	86 81       	ldd	r24, Z+6	; 0x06
    2b48:	97 81       	ldd	r25, Z+7	; 0x07
    2b4a:	13 96       	adiw	r26, 0x03	; 3
    2b4c:	9c 93       	st	X, r25
    2b4e:	8e 93       	st	-X, r24
    2b50:	12 97       	sbiw	r26, 0x02	; 2
    2b52:	c8 01       	movw	r24, r16
    2b54:	0e 94 7d 08 	call	0x10fa	; 0x10fa <dir_sdi.constprop.5>
    2b58:	84 30       	cpi	r24, 0x04	; 4
    2b5a:	09 f4       	brne	.+2      	; 0x2b5e <f_opendir+0xa8>
    2b5c:	85 e0       	ldi	r24, 0x05	; 5
    2b5e:	2e 96       	adiw	r28, 0x0e	; 14
    2b60:	0f b6       	in	r0, 0x3f	; 63
    2b62:	f8 94       	cli
    2b64:	de bf       	out	0x3e, r29	; 62
    2b66:	0f be       	out	0x3f, r0	; 63
    2b68:	cd bf       	out	0x3d, r28	; 61
    2b6a:	df 91       	pop	r29
    2b6c:	cf 91       	pop	r28
    2b6e:	1f 91       	pop	r17
    2b70:	0f 91       	pop	r16
    2b72:	08 95       	ret

00002b74 <f_readdir>:
    2b74:	cf 92       	push	r12
    2b76:	df 92       	push	r13
    2b78:	ff 92       	push	r15
    2b7a:	0f 93       	push	r16
    2b7c:	1f 93       	push	r17
    2b7e:	cf 93       	push	r28
    2b80:	df 93       	push	r29
    2b82:	cd b7       	in	r28, 0x3d	; 61
    2b84:	de b7       	in	r29, 0x3e	; 62
    2b86:	2c 97       	sbiw	r28, 0x0c	; 12
    2b88:	0f b6       	in	r0, 0x3f	; 63
    2b8a:	f8 94       	cli
    2b8c:	de bf       	out	0x3e, r29	; 62
    2b8e:	0f be       	out	0x3f, r0	; 63
    2b90:	cd bf       	out	0x3d, r28	; 61
    2b92:	8c 01       	movw	r16, r24
    2b94:	6b 01       	movw	r12, r22
    2b96:	dc 01       	movw	r26, r24
    2b98:	12 96       	adiw	r26, 0x02	; 2
    2b9a:	6d 91       	ld	r22, X+
    2b9c:	7c 91       	ld	r23, X
    2b9e:	13 97       	sbiw	r26, 0x03	; 3
    2ba0:	8d 91       	ld	r24, X+
    2ba2:	9c 91       	ld	r25, X
    2ba4:	0e 94 94 04 	call	0x928	; 0x928 <validate>
    2ba8:	f8 2e       	mov	r15, r24
    2baa:	88 23       	and	r24, r24
    2bac:	09 f0       	breq	.+2      	; 0x2bb0 <f_readdir+0x3c>
    2bae:	a6 c0       	rjmp	.+332    	; 0x2cfc <f_readdir+0x188>
    2bb0:	c1 14       	cp	r12, r1
    2bb2:	d1 04       	cpc	r13, r1
    2bb4:	21 f4       	brne	.+8      	; 0x2bbe <f_readdir+0x4a>
    2bb6:	c8 01       	movw	r24, r16
    2bb8:	0e 94 7d 08 	call	0x10fa	; 0x10fa <dir_sdi.constprop.5>
    2bbc:	9e c0       	rjmp	.+316    	; 0x2cfa <f_readdir+0x186>
    2bbe:	ce 01       	movw	r24, r28
    2bc0:	01 96       	adiw	r24, 0x01	; 1
    2bc2:	f8 01       	movw	r30, r16
    2bc4:	95 8b       	std	Z+21, r25	; 0x15
    2bc6:	84 8b       	std	Z+20, r24	; 0x14
    2bc8:	84 e0       	ldi	r24, 0x04	; 4
    2bca:	1e c0       	rjmp	.+60     	; 0x2c08 <f_readdir+0x94>
    2bcc:	d8 01       	movw	r26, r16
    2bce:	8d 91       	ld	r24, X+
    2bd0:	9c 91       	ld	r25, X
    2bd2:	0e 94 1b 04 	call	0x836	; 0x836 <move_window>
    2bd6:	88 23       	and	r24, r24
    2bd8:	19 f5       	brne	.+70     	; 0x2c20 <f_readdir+0xac>
    2bda:	d8 01       	movw	r26, r16
    2bdc:	52 96       	adiw	r26, 0x12	; 18
    2bde:	ed 91       	ld	r30, X+
    2be0:	fc 91       	ld	r31, X
    2be2:	53 97       	sbiw	r26, 0x13	; 19
    2be4:	80 81       	ld	r24, Z
    2be6:	88 23       	and	r24, r24
    2be8:	09 f4       	brne	.+2      	; 0x2bec <f_readdir+0x78>
    2bea:	97 c0       	rjmp	.+302    	; 0x2d1a <f_readdir+0x1a6>
    2bec:	85 3e       	cpi	r24, 0xE5	; 229
    2bee:	29 f0       	breq	.+10     	; 0x2bfa <f_readdir+0x86>
    2bf0:	8e 32       	cpi	r24, 0x2E	; 46
    2bf2:	19 f0       	breq	.+6      	; 0x2bfa <f_readdir+0x86>
    2bf4:	83 85       	ldd	r24, Z+11	; 0x0b
    2bf6:	83 ff       	sbrs	r24, 3
    2bf8:	1d c0       	rjmp	.+58     	; 0x2c34 <f_readdir+0xc0>
    2bfa:	c8 01       	movw	r24, r16
    2bfc:	60 e0       	ldi	r22, 0x00	; 0
    2bfe:	70 e0       	ldi	r23, 0x00	; 0
    2c00:	0e 94 c3 0a 	call	0x1586	; 0x1586 <dir_next>
    2c04:	88 23       	and	r24, r24
    2c06:	61 f4       	brne	.+24     	; 0x2c20 <f_readdir+0xac>
    2c08:	f8 01       	movw	r30, r16
    2c0a:	46 85       	ldd	r20, Z+14	; 0x0e
    2c0c:	57 85       	ldd	r21, Z+15	; 0x0f
    2c0e:	60 89       	ldd	r22, Z+16	; 0x10
    2c10:	71 89       	ldd	r23, Z+17	; 0x11
    2c12:	41 15       	cp	r20, r1
    2c14:	51 05       	cpc	r21, r1
    2c16:	61 05       	cpc	r22, r1
    2c18:	71 05       	cpc	r23, r1
    2c1a:	c1 f6       	brne	.-80     	; 0x2bcc <f_readdir+0x58>
    2c1c:	88 23       	and	r24, r24
    2c1e:	51 f0       	breq	.+20     	; 0x2c34 <f_readdir+0xc0>
    2c20:	d8 01       	movw	r26, r16
    2c22:	1e 96       	adiw	r26, 0x0e	; 14
    2c24:	1d 92       	st	X+, r1
    2c26:	1d 92       	st	X+, r1
    2c28:	1d 92       	st	X+, r1
    2c2a:	1c 92       	st	X, r1
    2c2c:	51 97       	sbiw	r26, 0x11	; 17
    2c2e:	84 30       	cpi	r24, 0x04	; 4
    2c30:	09 f0       	breq	.+2      	; 0x2c34 <f_readdir+0xc0>
    2c32:	63 c0       	rjmp	.+198    	; 0x2cfa <f_readdir+0x186>
    2c34:	a6 01       	movw	r20, r12
    2c36:	47 5f       	subi	r20, 0xF7	; 247
    2c38:	5f 4f       	sbci	r21, 0xFF	; 255
    2c3a:	f8 01       	movw	r30, r16
    2c3c:	86 85       	ldd	r24, Z+14	; 0x0e
    2c3e:	97 85       	ldd	r25, Z+15	; 0x0f
    2c40:	a0 89       	ldd	r26, Z+16	; 0x10
    2c42:	b1 89       	ldd	r27, Z+17	; 0x11
    2c44:	00 97       	sbiw	r24, 0x00	; 0
    2c46:	a1 05       	cpc	r26, r1
    2c48:	b1 05       	cpc	r27, r1
    2c4a:	09 f4       	brne	.+2      	; 0x2c4e <f_readdir+0xda>
    2c4c:	45 c0       	rjmp	.+138    	; 0x2cd8 <f_readdir+0x164>
    2c4e:	22 89       	ldd	r18, Z+18	; 0x12
    2c50:	33 89       	ldd	r19, Z+19	; 0x13
    2c52:	f9 01       	movw	r30, r18
    2c54:	da 01       	movw	r26, r20
    2c56:	80 e0       	ldi	r24, 0x00	; 0
    2c58:	90 e0       	ldi	r25, 0x00	; 0
    2c5a:	ad 01       	movw	r20, r26
    2c5c:	61 91       	ld	r22, Z+
    2c5e:	60 32       	cpi	r22, 0x20	; 32
    2c60:	49 f0       	breq	.+18     	; 0x2c74 <f_readdir+0x100>
    2c62:	65 30       	cpi	r22, 0x05	; 5
    2c64:	09 f4       	brne	.+2      	; 0x2c68 <f_readdir+0xf4>
    2c66:	65 ee       	ldi	r22, 0xE5	; 229
    2c68:	6d 93       	st	X+, r22
    2c6a:	ad 01       	movw	r20, r26
    2c6c:	01 96       	adiw	r24, 0x01	; 1
    2c6e:	88 30       	cpi	r24, 0x08	; 8
    2c70:	91 05       	cpc	r25, r1
    2c72:	99 f7       	brne	.-26     	; 0x2c5a <f_readdir+0xe6>
    2c74:	f9 01       	movw	r30, r18
    2c76:	80 85       	ldd	r24, Z+8	; 0x08
    2c78:	80 32       	cpi	r24, 0x20	; 32
    2c7a:	89 f0       	breq	.+34     	; 0x2c9e <f_readdir+0x12a>
    2c7c:	8e e2       	ldi	r24, 0x2E	; 46
    2c7e:	8d 93       	st	X+, r24
    2c80:	88 e0       	ldi	r24, 0x08	; 8
    2c82:	90 e0       	ldi	r25, 0x00	; 0
    2c84:	ad 01       	movw	r20, r26
    2c86:	f9 01       	movw	r30, r18
    2c88:	e8 0f       	add	r30, r24
    2c8a:	f9 1f       	adc	r31, r25
    2c8c:	60 81       	ld	r22, Z
    2c8e:	60 32       	cpi	r22, 0x20	; 32
    2c90:	31 f0       	breq	.+12     	; 0x2c9e <f_readdir+0x12a>
    2c92:	6d 93       	st	X+, r22
    2c94:	ad 01       	movw	r20, r26
    2c96:	01 96       	adiw	r24, 0x01	; 1
    2c98:	8b 30       	cpi	r24, 0x0B	; 11
    2c9a:	91 05       	cpc	r25, r1
    2c9c:	99 f7       	brne	.-26     	; 0x2c84 <f_readdir+0x110>
    2c9e:	d9 01       	movw	r26, r18
    2ca0:	1b 96       	adiw	r26, 0x0b	; 11
    2ca2:	8c 91       	ld	r24, X
    2ca4:	1b 97       	sbiw	r26, 0x0b	; 11
    2ca6:	f6 01       	movw	r30, r12
    2ca8:	80 87       	std	Z+8, r24	; 0x08
    2caa:	5c 96       	adiw	r26, 0x1c	; 28
    2cac:	8d 91       	ld	r24, X+
    2cae:	9d 91       	ld	r25, X+
    2cb0:	0d 90       	ld	r0, X+
    2cb2:	bc 91       	ld	r27, X
    2cb4:	a0 2d       	mov	r26, r0
    2cb6:	80 83       	st	Z, r24
    2cb8:	91 83       	std	Z+1, r25	; 0x01
    2cba:	a2 83       	std	Z+2, r26	; 0x02
    2cbc:	b3 83       	std	Z+3, r27	; 0x03
    2cbe:	d9 01       	movw	r26, r18
    2cc0:	58 96       	adiw	r26, 0x18	; 24
    2cc2:	8d 91       	ld	r24, X+
    2cc4:	9c 91       	ld	r25, X
    2cc6:	59 97       	sbiw	r26, 0x19	; 25
    2cc8:	95 83       	std	Z+5, r25	; 0x05
    2cca:	84 83       	std	Z+4, r24	; 0x04
    2ccc:	56 96       	adiw	r26, 0x16	; 22
    2cce:	8d 91       	ld	r24, X+
    2cd0:	9c 91       	ld	r25, X
    2cd2:	57 97       	sbiw	r26, 0x17	; 23
    2cd4:	97 83       	std	Z+7, r25	; 0x07
    2cd6:	86 83       	std	Z+6, r24	; 0x06
    2cd8:	fa 01       	movw	r30, r20
    2cda:	10 82       	st	Z, r1
    2cdc:	c8 01       	movw	r24, r16
    2cde:	60 e0       	ldi	r22, 0x00	; 0
    2ce0:	70 e0       	ldi	r23, 0x00	; 0
    2ce2:	0e 94 c3 0a 	call	0x1586	; 0x1586 <dir_next>
    2ce6:	84 30       	cpi	r24, 0x04	; 4
    2ce8:	41 f4       	brne	.+16     	; 0x2cfa <f_readdir+0x186>
    2cea:	d8 01       	movw	r26, r16
    2cec:	1e 96       	adiw	r26, 0x0e	; 14
    2cee:	1d 92       	st	X+, r1
    2cf0:	1d 92       	st	X+, r1
    2cf2:	1d 92       	st	X+, r1
    2cf4:	1c 92       	st	X, r1
    2cf6:	51 97       	sbiw	r26, 0x11	; 17
    2cf8:	01 c0       	rjmp	.+2      	; 0x2cfc <f_readdir+0x188>
    2cfa:	f8 2e       	mov	r15, r24
    2cfc:	8f 2d       	mov	r24, r15
    2cfe:	2c 96       	adiw	r28, 0x0c	; 12
    2d00:	0f b6       	in	r0, 0x3f	; 63
    2d02:	f8 94       	cli
    2d04:	de bf       	out	0x3e, r29	; 62
    2d06:	0f be       	out	0x3f, r0	; 63
    2d08:	cd bf       	out	0x3d, r28	; 61
    2d0a:	df 91       	pop	r29
    2d0c:	cf 91       	pop	r28
    2d0e:	1f 91       	pop	r17
    2d10:	0f 91       	pop	r16
    2d12:	ff 90       	pop	r15
    2d14:	df 90       	pop	r13
    2d16:	cf 90       	pop	r12
    2d18:	08 95       	ret
    2d1a:	84 e0       	ldi	r24, 0x04	; 4
    2d1c:	81 cf       	rjmp	.-254    	; 0x2c20 <f_readdir+0xac>

00002d1e <f_gets>:
    2d1e:	8f 92       	push	r8
    2d20:	9f 92       	push	r9
    2d22:	af 92       	push	r10
    2d24:	bf 92       	push	r11
    2d26:	cf 92       	push	r12
    2d28:	df 92       	push	r13
    2d2a:	ef 92       	push	r14
    2d2c:	ff 92       	push	r15
    2d2e:	0f 93       	push	r16
    2d30:	1f 93       	push	r17
    2d32:	cf 93       	push	r28
    2d34:	df 93       	push	r29
    2d36:	00 d0       	rcall	.+0      	; 0x2d38 <f_gets+0x1a>
    2d38:	00 d0       	rcall	.+0      	; 0x2d3a <f_gets+0x1c>
    2d3a:	cd b7       	in	r28, 0x3d	; 61
    2d3c:	de b7       	in	r29, 0x3e	; 62
    2d3e:	5c 01       	movw	r10, r24
    2d40:	7b 01       	movw	r14, r22
    2d42:	4a 01       	movw	r8, r20
    2d44:	6c 01       	movw	r12, r24
    2d46:	00 e0       	ldi	r16, 0x00	; 0
    2d48:	10 e0       	ldi	r17, 0x00	; 0
    2d4a:	08 94       	sec
    2d4c:	e1 08       	sbc	r14, r1
    2d4e:	f1 08       	sbc	r15, r1
    2d50:	18 c0       	rjmp	.+48     	; 0x2d82 <f_gets+0x64>
    2d52:	c4 01       	movw	r24, r8
    2d54:	be 01       	movw	r22, r28
    2d56:	6d 5f       	subi	r22, 0xFD	; 253
    2d58:	7f 4f       	sbci	r23, 0xFF	; 255
    2d5a:	41 e0       	ldi	r20, 0x01	; 1
    2d5c:	50 e0       	ldi	r21, 0x00	; 0
    2d5e:	9e 01       	movw	r18, r28
    2d60:	2f 5f       	subi	r18, 0xFF	; 255
    2d62:	3f 4f       	sbci	r19, 0xFF	; 255
    2d64:	0e 94 3b 0f 	call	0x1e76	; 0x1e76 <f_read>
    2d68:	89 81       	ldd	r24, Y+1	; 0x01
    2d6a:	9a 81       	ldd	r25, Y+2	; 0x02
    2d6c:	81 30       	cpi	r24, 0x01	; 1
    2d6e:	91 05       	cpc	r25, r1
    2d70:	59 f4       	brne	.+22     	; 0x2d88 <f_gets+0x6a>
    2d72:	8b 81       	ldd	r24, Y+3	; 0x03
    2d74:	f6 01       	movw	r30, r12
    2d76:	81 93       	st	Z+, r24
    2d78:	6f 01       	movw	r12, r30
    2d7a:	0f 5f       	subi	r16, 0xFF	; 255
    2d7c:	1f 4f       	sbci	r17, 0xFF	; 255
    2d7e:	8a 30       	cpi	r24, 0x0A	; 10
    2d80:	19 f0       	breq	.+6      	; 0x2d88 <f_gets+0x6a>
    2d82:	0e 15       	cp	r16, r14
    2d84:	1f 05       	cpc	r17, r15
    2d86:	2c f3       	brlt	.-54     	; 0x2d52 <f_gets+0x34>
    2d88:	f6 01       	movw	r30, r12
    2d8a:	10 82       	st	Z, r1
    2d8c:	01 15       	cp	r16, r1
    2d8e:	11 05       	cpc	r17, r1
    2d90:	11 f4       	brne	.+4      	; 0x2d96 <f_gets+0x78>
    2d92:	aa 24       	eor	r10, r10
    2d94:	bb 24       	eor	r11, r11
    2d96:	c5 01       	movw	r24, r10
    2d98:	0f 90       	pop	r0
    2d9a:	0f 90       	pop	r0
    2d9c:	0f 90       	pop	r0
    2d9e:	0f 90       	pop	r0
    2da0:	df 91       	pop	r29
    2da2:	cf 91       	pop	r28
    2da4:	1f 91       	pop	r17
    2da6:	0f 91       	pop	r16
    2da8:	ff 90       	pop	r15
    2daa:	ef 90       	pop	r14
    2dac:	df 90       	pop	r13
    2dae:	cf 90       	pop	r12
    2db0:	bf 90       	pop	r11
    2db2:	af 90       	pop	r10
    2db4:	9f 90       	pop	r9
    2db6:	8f 90       	pop	r8
    2db8:	08 95       	ret

00002dba <f_putc>:
    2dba:	cf 93       	push	r28
    2dbc:	df 93       	push	r29
    2dbe:	00 d0       	rcall	.+0      	; 0x2dc0 <f_putc+0x6>
    2dc0:	00 d0       	rcall	.+0      	; 0x2dc2 <f_putc+0x8>
    2dc2:	0f 92       	push	r0
    2dc4:	cd b7       	in	r28, 0x3d	; 61
    2dc6:	de b7       	in	r29, 0x3e	; 62
    2dc8:	8b 83       	std	Y+3, r24	; 0x03
    2dca:	cb 01       	movw	r24, r22
    2dcc:	be 01       	movw	r22, r28
    2dce:	6d 5f       	subi	r22, 0xFD	; 253
    2dd0:	7f 4f       	sbci	r23, 0xFF	; 255
    2dd2:	41 e0       	ldi	r20, 0x01	; 1
    2dd4:	50 e0       	ldi	r21, 0x00	; 0
    2dd6:	9e 01       	movw	r18, r28
    2dd8:	2f 5f       	subi	r18, 0xFF	; 255
    2dda:	3f 4f       	sbci	r19, 0xFF	; 255
    2ddc:	0e 94 cf 10 	call	0x219e	; 0x219e <f_write>
    2de0:	89 81       	ldd	r24, Y+1	; 0x01
    2de2:	9a 81       	ldd	r25, Y+2	; 0x02
    2de4:	81 30       	cpi	r24, 0x01	; 1
    2de6:	91 05       	cpc	r25, r1
    2de8:	19 f4       	brne	.+6      	; 0x2df0 <f_putc+0x36>
    2dea:	81 e0       	ldi	r24, 0x01	; 1
    2dec:	90 e0       	ldi	r25, 0x00	; 0
    2dee:	02 c0       	rjmp	.+4      	; 0x2df4 <f_putc+0x3a>
    2df0:	8f ef       	ldi	r24, 0xFF	; 255
    2df2:	9f ef       	ldi	r25, 0xFF	; 255
    2df4:	0f 90       	pop	r0
    2df6:	0f 90       	pop	r0
    2df8:	0f 90       	pop	r0
    2dfa:	0f 90       	pop	r0
    2dfc:	0f 90       	pop	r0
    2dfe:	df 91       	pop	r29
    2e00:	cf 91       	pop	r28
    2e02:	08 95       	ret

00002e04 <f_puts>:
    2e04:	ef 92       	push	r14
    2e06:	ff 92       	push	r15
    2e08:	0f 93       	push	r16
    2e0a:	1f 93       	push	r17
    2e0c:	cf 93       	push	r28
    2e0e:	df 93       	push	r29
    2e10:	7b 01       	movw	r14, r22
    2e12:	8c 01       	movw	r16, r24
    2e14:	c0 e0       	ldi	r28, 0x00	; 0
    2e16:	d0 e0       	ldi	r29, 0x00	; 0
    2e18:	08 c0       	rjmp	.+16     	; 0x2e2a <f_puts+0x26>
    2e1a:	b7 01       	movw	r22, r14
    2e1c:	0e 94 dd 16 	call	0x2dba	; 0x2dba <f_putc>
    2e20:	2f ef       	ldi	r18, 0xFF	; 255
    2e22:	8f 3f       	cpi	r24, 0xFF	; 255
    2e24:	92 07       	cpc	r25, r18
    2e26:	39 f0       	breq	.+14     	; 0x2e36 <f_puts+0x32>
    2e28:	21 96       	adiw	r28, 0x01	; 1
    2e2a:	f8 01       	movw	r30, r16
    2e2c:	81 91       	ld	r24, Z+
    2e2e:	8f 01       	movw	r16, r30
    2e30:	88 23       	and	r24, r24
    2e32:	99 f7       	brne	.-26     	; 0x2e1a <f_puts+0x16>
    2e34:	02 c0       	rjmp	.+4      	; 0x2e3a <f_puts+0x36>
    2e36:	cf ef       	ldi	r28, 0xFF	; 255
    2e38:	df ef       	ldi	r29, 0xFF	; 255
    2e3a:	ce 01       	movw	r24, r28
    2e3c:	df 91       	pop	r29
    2e3e:	cf 91       	pop	r28
    2e40:	1f 91       	pop	r17
    2e42:	0f 91       	pop	r16
    2e44:	ff 90       	pop	r15
    2e46:	ef 90       	pop	r14
    2e48:	08 95       	ret

00002e4a <f_printf>:
    2e4a:	2f 92       	push	r2
    2e4c:	3f 92       	push	r3
    2e4e:	4f 92       	push	r4
    2e50:	5f 92       	push	r5
    2e52:	6f 92       	push	r6
    2e54:	7f 92       	push	r7
    2e56:	8f 92       	push	r8
    2e58:	9f 92       	push	r9
    2e5a:	af 92       	push	r10
    2e5c:	bf 92       	push	r11
    2e5e:	cf 92       	push	r12
    2e60:	df 92       	push	r13
    2e62:	ef 92       	push	r14
    2e64:	ff 92       	push	r15
    2e66:	0f 93       	push	r16
    2e68:	1f 93       	push	r17
    2e6a:	cf 93       	push	r28
    2e6c:	df 93       	push	r29
    2e6e:	cd b7       	in	r28, 0x3d	; 61
    2e70:	de b7       	in	r29, 0x3e	; 62
    2e72:	67 97       	sbiw	r28, 0x17	; 23
    2e74:	0f b6       	in	r0, 0x3f	; 63
    2e76:	f8 94       	cli
    2e78:	de bf       	out	0x3e, r29	; 62
    2e7a:	0f be       	out	0x3f, r0	; 63
    2e7c:	cd bf       	out	0x3d, r28	; 61
    2e7e:	ee a5       	lds	r30, 0x6e
    2e80:	ff a5       	lds	r31, 0x6f
    2e82:	20 e3       	ldi	r18, 0x30	; 48
    2e84:	c2 2e       	mov	r12, r18
    2e86:	d1 2c       	mov	r13, r1
    2e88:	cc 0e       	add	r12, r28
    2e8a:	dd 1e       	adc	r13, r29
    2e8c:	20 e0       	ldi	r18, 0x00	; 0
    2e8e:	30 e0       	ldi	r19, 0x00	; 0
    2e90:	88 24       	eor	r8, r8
    2e92:	99 24       	eor	r9, r9
    2e94:	01 c0       	rjmp	.+2      	; 0x2e98 <f_printf+0x4e>
    2e96:	f1 01       	movw	r30, r2
    2e98:	df 01       	movw	r26, r30
    2e9a:	8d 91       	ld	r24, X+
    2e9c:	1d 01       	movw	r2, r26
    2e9e:	88 23       	and	r24, r24
    2ea0:	09 f4       	brne	.+2      	; 0x2ea4 <f_printf+0x5a>
    2ea2:	99 c1       	rjmp	.+818    	; 0x31d6 <f_printf+0x38c>
    2ea4:	85 32       	cpi	r24, 0x25	; 37
    2ea6:	69 f0       	breq	.+26     	; 0x2ec2 <f_printf+0x78>
    2ea8:	6c a5       	lds	r22, 0x6c
    2eaa:	7d a5       	lds	r23, 0x6d
    2eac:	0e 94 dd 16 	call	0x2dba	; 0x2dba <f_putc>
    2eb0:	9c 01       	movw	r18, r24
    2eb2:	bf ef       	ldi	r27, 0xFF	; 255
    2eb4:	8f 3f       	cpi	r24, 0xFF	; 255
    2eb6:	9b 07       	cpc	r25, r27
    2eb8:	09 f4       	brne	.+2      	; 0x2ebc <f_printf+0x72>
    2eba:	86 c1       	rjmp	.+780    	; 0x31c8 <f_printf+0x37e>
    2ebc:	21 e0       	ldi	r18, 0x01	; 1
    2ebe:	30 e0       	ldi	r19, 0x00	; 0
    2ec0:	83 c1       	rjmp	.+774    	; 0x31c8 <f_printf+0x37e>
    2ec2:	11 81       	ldd	r17, Z+1	; 0x01
    2ec4:	10 33       	cpi	r17, 0x30	; 48
    2ec6:	41 f4       	brne	.+16     	; 0x2ed8 <f_printf+0x8e>
    2ec8:	12 81       	ldd	r17, Z+2	; 0x02
    2eca:	93 e0       	ldi	r25, 0x03	; 3
    2ecc:	29 2e       	mov	r2, r25
    2ece:	31 2c       	mov	r3, r1
    2ed0:	2e 0e       	add	r2, r30
    2ed2:	3f 1e       	adc	r3, r31
    2ed4:	01 e0       	ldi	r16, 0x01	; 1
    2ed6:	10 c0       	rjmp	.+32     	; 0x2ef8 <f_printf+0xae>
    2ed8:	1d 32       	cpi	r17, 0x2D	; 45
    2eda:	39 f0       	breq	.+14     	; 0x2eea <f_printf+0xa0>
    2edc:	82 e0       	ldi	r24, 0x02	; 2
    2ede:	28 2e       	mov	r2, r24
    2ee0:	31 2c       	mov	r3, r1
    2ee2:	2e 0e       	add	r2, r30
    2ee4:	3f 1e       	adc	r3, r31
    2ee6:	00 e0       	ldi	r16, 0x00	; 0
    2ee8:	07 c0       	rjmp	.+14     	; 0x2ef8 <f_printf+0xae>
    2eea:	12 81       	ldd	r17, Z+2	; 0x02
    2eec:	03 e0       	ldi	r16, 0x03	; 3
    2eee:	20 2e       	mov	r2, r16
    2ef0:	31 2c       	mov	r3, r1
    2ef2:	2e 0e       	add	r2, r30
    2ef4:	3f 1e       	adc	r3, r31
    2ef6:	02 e0       	ldi	r16, 0x02	; 2
    2ef8:	66 24       	eor	r6, r6
    2efa:	77 24       	eor	r7, r7
    2efc:	f1 01       	movw	r30, r2
    2efe:	a9 01       	movw	r20, r18
    2f00:	93 01       	movw	r18, r6
    2f02:	0f c0       	rjmp	.+30     	; 0x2f22 <f_printf+0xd8>
    2f04:	c9 01       	movw	r24, r18
    2f06:	88 0f       	add	r24, r24
    2f08:	99 1f       	adc	r25, r25
    2f0a:	b3 e0       	ldi	r27, 0x03	; 3
    2f0c:	22 0f       	add	r18, r18
    2f0e:	33 1f       	adc	r19, r19
    2f10:	ba 95       	dec	r27
    2f12:	e1 f7       	brne	.-8      	; 0x2f0c <f_printf+0xc2>
    2f14:	28 0f       	add	r18, r24
    2f16:	39 1f       	adc	r19, r25
    2f18:	21 0f       	add	r18, r17
    2f1a:	31 1d       	adc	r19, r1
    2f1c:	20 53       	subi	r18, 0x30	; 48
    2f1e:	30 40       	sbci	r19, 0x00	; 0
    2f20:	11 91       	ld	r17, Z+
    2f22:	81 2f       	mov	r24, r17
    2f24:	80 53       	subi	r24, 0x30	; 48
    2f26:	8a 30       	cpi	r24, 0x0A	; 10
    2f28:	68 f3       	brcs	.-38     	; 0x2f04 <f_printf+0xba>
    2f2a:	1f 01       	movw	r2, r30
    2f2c:	39 01       	movw	r6, r18
    2f2e:	9a 01       	movw	r18, r20
    2f30:	1c 36       	cpi	r17, 0x6C	; 108
    2f32:	11 f0       	breq	.+4      	; 0x2f38 <f_printf+0xee>
    2f34:	1c 34       	cpi	r17, 0x4C	; 76
    2f36:	21 f4       	brne	.+8      	; 0x2f40 <f_printf+0xf6>
    2f38:	04 60       	ori	r16, 0x04	; 4
    2f3a:	f1 01       	movw	r30, r2
    2f3c:	11 91       	ld	r17, Z+
    2f3e:	1f 01       	movw	r2, r30
    2f40:	11 23       	and	r17, r17
    2f42:	09 f4       	brne	.+2      	; 0x2f46 <f_printf+0xfc>
    2f44:	48 c1       	rjmp	.+656    	; 0x31d6 <f_printf+0x38c>
    2f46:	81 2f       	mov	r24, r17
    2f48:	81 56       	subi	r24, 0x61	; 97
    2f4a:	31 2f       	mov	r19, r17
    2f4c:	8a 31       	cpi	r24, 0x1A	; 26
    2f4e:	08 f4       	brcc	.+2      	; 0x2f52 <f_printf+0x108>
    2f50:	30 52       	subi	r19, 0x20	; 32
    2f52:	3f 34       	cpi	r19, 0x4F	; 79
    2f54:	09 f4       	brne	.+2      	; 0x2f58 <f_printf+0x10e>
    2f56:	74 c0       	rjmp	.+232    	; 0x3040 <f_printf+0x1f6>
    2f58:	30 35       	cpi	r19, 0x50	; 80
    2f5a:	48 f4       	brcc	.+18     	; 0x2f6e <f_printf+0x124>
    2f5c:	33 34       	cpi	r19, 0x43	; 67
    2f5e:	09 f4       	brne	.+2      	; 0x2f62 <f_printf+0x118>
    2f60:	58 c0       	rjmp	.+176    	; 0x3012 <f_printf+0x1c8>
    2f62:	34 34       	cpi	r19, 0x44	; 68
    2f64:	69 f0       	breq	.+26     	; 0x2f80 <f_printf+0x136>
    2f66:	32 34       	cpi	r19, 0x42	; 66
    2f68:	09 f0       	breq	.+2      	; 0x2f6c <f_printf+0x122>
    2f6a:	61 c0       	rjmp	.+194    	; 0x302e <f_printf+0x1e4>
    2f6c:	67 c0       	rjmp	.+206    	; 0x303c <f_printf+0x1f2>
    2f6e:	35 35       	cpi	r19, 0x55	; 85
    2f70:	39 f0       	breq	.+14     	; 0x2f80 <f_printf+0x136>
    2f72:	38 35       	cpi	r19, 0x58	; 88
    2f74:	09 f4       	brne	.+2      	; 0x2f78 <f_printf+0x12e>
    2f76:	59 c0       	rjmp	.+178    	; 0x302a <f_printf+0x1e0>
    2f78:	33 35       	cpi	r19, 0x53	; 83
    2f7a:	09 f0       	breq	.+2      	; 0x2f7e <f_printf+0x134>
    2f7c:	58 c0       	rjmp	.+176    	; 0x302e <f_printf+0x1e4>
    2f7e:	02 c0       	rjmp	.+4      	; 0x2f84 <f_printf+0x13a>
    2f80:	2a e0       	ldi	r18, 0x0A	; 10
    2f82:	5f c0       	rjmp	.+190    	; 0x3042 <f_printf+0x1f8>
    2f84:	f6 01       	movw	r30, r12
    2f86:	42 e0       	ldi	r20, 0x02	; 2
    2f88:	50 e0       	ldi	r21, 0x00	; 0
    2f8a:	c4 0e       	add	r12, r20
    2f8c:	d5 1e       	adc	r13, r21
    2f8e:	a0 80       	ld	r10, Z
    2f90:	b1 80       	ldd	r11, Z+1	; 0x01
    2f92:	f5 01       	movw	r30, r10
    2f94:	ee 24       	eor	r14, r14
    2f96:	ff 24       	eor	r15, r15
    2f98:	03 c0       	rjmp	.+6      	; 0x2fa0 <f_printf+0x156>
    2f9a:	08 94       	sec
    2f9c:	e1 1c       	adc	r14, r1
    2f9e:	f1 1c       	adc	r15, r1
    2fa0:	81 91       	ld	r24, Z+
    2fa2:	88 23       	and	r24, r24
    2fa4:	d1 f7       	brne	.-12     	; 0x2f9a <f_printf+0x150>
    2fa6:	01 ff       	sbrs	r16, 1
    2fa8:	0c c0       	rjmp	.+24     	; 0x2fc2 <f_printf+0x178>
    2faa:	00 e0       	ldi	r16, 0x00	; 0
    2fac:	10 e0       	ldi	r17, 0x00	; 0
    2fae:	13 c0       	rjmp	.+38     	; 0x2fd6 <f_printf+0x18c>
    2fb0:	80 e2       	ldi	r24, 0x20	; 32
    2fb2:	6c a5       	lds	r22, 0x6c
    2fb4:	7d a5       	lds	r23, 0x6d
    2fb6:	0e 94 dd 16 	call	0x2dba	; 0x2dba <f_putc>
    2fba:	08 0f       	add	r16, r24
    2fbc:	19 1f       	adc	r17, r25
    2fbe:	72 01       	movw	r14, r4
    2fc0:	02 c0       	rjmp	.+4      	; 0x2fc6 <f_printf+0x17c>
    2fc2:	00 e0       	ldi	r16, 0x00	; 0
    2fc4:	10 e0       	ldi	r17, 0x00	; 0
    2fc6:	27 01       	movw	r4, r14
    2fc8:	08 94       	sec
    2fca:	41 1c       	adc	r4, r1
    2fcc:	51 1c       	adc	r5, r1
    2fce:	e6 14       	cp	r14, r6
    2fd0:	f7 04       	cpc	r15, r7
    2fd2:	70 f3       	brcs	.-36     	; 0x2fb0 <f_printf+0x166>
    2fd4:	72 01       	movw	r14, r4
    2fd6:	c5 01       	movw	r24, r10
    2fd8:	6c a5       	lds	r22, 0x6c
    2fda:	7d a5       	lds	r23, 0x6d
    2fdc:	0e 94 02 17 	call	0x2e04	; 0x2e04 <f_puts>
    2fe0:	9c 01       	movw	r18, r24
    2fe2:	08 0f       	add	r16, r24
    2fe4:	19 1f       	adc	r17, r25
    2fe6:	0b c0       	rjmp	.+22     	; 0x2ffe <f_printf+0x1b4>
    2fe8:	80 e2       	ldi	r24, 0x20	; 32
    2fea:	6c a5       	lds	r22, 0x6c
    2fec:	7d a5       	lds	r23, 0x6d
    2fee:	0e 94 dd 16 	call	0x2dba	; 0x2dba <f_putc>
    2ff2:	9c 01       	movw	r18, r24
    2ff4:	08 0f       	add	r16, r24
    2ff6:	19 1f       	adc	r17, r25
    2ff8:	08 94       	sec
    2ffa:	e1 1c       	adc	r14, r1
    2ffc:	f1 1c       	adc	r15, r1
    2ffe:	e6 14       	cp	r14, r6
    3000:	f7 04       	cpc	r15, r7
    3002:	90 f3       	brcs	.-28     	; 0x2fe8 <f_printf+0x19e>
    3004:	5f ef       	ldi	r21, 0xFF	; 255
    3006:	2f 3f       	cpi	r18, 0xFF	; 255
    3008:	35 07       	cpc	r19, r21
    300a:	09 f4       	brne	.+2      	; 0x300e <f_printf+0x1c4>
    300c:	dd c0       	rjmp	.+442    	; 0x31c8 <f_printf+0x37e>
    300e:	98 01       	movw	r18, r16
    3010:	db c0       	rjmp	.+438    	; 0x31c8 <f_printf+0x37e>
    3012:	86 01       	movw	r16, r12
    3014:	0e 5f       	subi	r16, 0xFE	; 254
    3016:	1f 4f       	sbci	r17, 0xFF	; 255
    3018:	d6 01       	movw	r26, r12
    301a:	8c 91       	ld	r24, X
    301c:	6c a5       	lds	r22, 0x6c
    301e:	7d a5       	lds	r23, 0x6d
    3020:	0e 94 dd 16 	call	0x2dba	; 0x2dba <f_putc>
    3024:	9c 01       	movw	r18, r24
    3026:	68 01       	movw	r12, r16
    3028:	cf c0       	rjmp	.+414    	; 0x31c8 <f_printf+0x37e>
    302a:	20 e1       	ldi	r18, 0x10	; 16
    302c:	0a c0       	rjmp	.+20     	; 0x3042 <f_printf+0x1f8>
    302e:	81 2f       	mov	r24, r17
    3030:	6c a5       	lds	r22, 0x6c
    3032:	7d a5       	lds	r23, 0x6d
    3034:	0e 94 dd 16 	call	0x2dba	; 0x2dba <f_putc>
    3038:	9c 01       	movw	r18, r24
    303a:	c6 c0       	rjmp	.+396    	; 0x31c8 <f_printf+0x37e>
    303c:	22 e0       	ldi	r18, 0x02	; 2
    303e:	01 c0       	rjmp	.+2      	; 0x3042 <f_printf+0x1f8>
    3040:	28 e0       	ldi	r18, 0x08	; 8
    3042:	02 ff       	sbrs	r16, 2
    3044:	0c c0       	rjmp	.+24     	; 0x305e <f_printf+0x214>
    3046:	f6 01       	movw	r30, r12
    3048:	44 e0       	ldi	r20, 0x04	; 4
    304a:	50 e0       	ldi	r21, 0x00	; 0
    304c:	c4 0e       	add	r12, r20
    304e:	d5 1e       	adc	r13, r21
    3050:	80 81       	ld	r24, Z
    3052:	91 81       	ldd	r25, Z+1	; 0x01
    3054:	a2 81       	ldd	r26, Z+2	; 0x02
    3056:	b3 81       	ldd	r27, Z+3	; 0x03
    3058:	34 34       	cpi	r19, 0x44	; 68
    305a:	01 f5       	brne	.+64     	; 0x309c <f_printf+0x252>
    305c:	15 c0       	rjmp	.+42     	; 0x3088 <f_printf+0x23e>
    305e:	a6 01       	movw	r20, r12
    3060:	4e 5f       	subi	r20, 0xFE	; 254
    3062:	5f 4f       	sbci	r21, 0xFF	; 255
    3064:	34 34       	cpi	r19, 0x44	; 68
    3066:	49 f4       	brne	.+18     	; 0x307a <f_printf+0x230>
    3068:	d6 01       	movw	r26, r12
    306a:	8d 91       	ld	r24, X+
    306c:	9c 91       	ld	r25, X
    306e:	aa 27       	eor	r26, r26
    3070:	97 fd       	sbrc	r25, 7
    3072:	a0 95       	com	r26
    3074:	ba 2f       	mov	r27, r26
    3076:	6a 01       	movw	r12, r20
    3078:	07 c0       	rjmp	.+14     	; 0x3088 <f_printf+0x23e>
    307a:	f6 01       	movw	r30, r12
    307c:	80 81       	ld	r24, Z
    307e:	91 81       	ldd	r25, Z+1	; 0x01
    3080:	a0 e0       	ldi	r26, 0x00	; 0
    3082:	b0 e0       	ldi	r27, 0x00	; 0
    3084:	6a 01       	movw	r12, r20
    3086:	0a c0       	rjmp	.+20     	; 0x309c <f_printf+0x252>
    3088:	b7 ff       	sbrs	r27, 7
    308a:	08 c0       	rjmp	.+16     	; 0x309c <f_printf+0x252>
    308c:	b0 95       	com	r27
    308e:	a0 95       	com	r26
    3090:	90 95       	com	r25
    3092:	81 95       	neg	r24
    3094:	9f 4f       	sbci	r25, 0xFF	; 255
    3096:	af 4f       	sbci	r26, 0xFF	; 255
    3098:	bf 4f       	sbci	r27, 0xFF	; 255
    309a:	08 60       	ori	r16, 0x08	; 8
    309c:	ae 01       	movw	r20, r28
    309e:	4f 5f       	subi	r20, 0xFF	; 255
    30a0:	5f 4f       	sbci	r21, 0xFF	; 255
    30a2:	5a 8b       	std	Y+18, r21	; 0x12
    30a4:	49 8b       	std	Y+17, r20	; 0x11
    30a6:	44 24       	eor	r4, r4
    30a8:	55 24       	eor	r5, r5
    30aa:	42 2f       	mov	r20, r18
    30ac:	50 e0       	ldi	r21, 0x00	; 0
    30ae:	60 e0       	ldi	r22, 0x00	; 0
    30b0:	70 e0       	ldi	r23, 0x00	; 0
    30b2:	4b 8b       	std	Y+19, r20	; 0x13
    30b4:	5c 8b       	std	Y+20, r21	; 0x14
    30b6:	6d 8b       	std	Y+21, r22	; 0x15
    30b8:	7e 8b       	std	Y+22, r23	; 0x16
    30ba:	01 c0       	rjmp	.+2      	; 0x30be <f_printf+0x274>
    30bc:	27 01       	movw	r4, r14
    30be:	bc 01       	movw	r22, r24
    30c0:	cd 01       	movw	r24, r26
    30c2:	2b 89       	ldd	r18, Y+19	; 0x13
    30c4:	3c 89       	ldd	r19, Y+20	; 0x14
    30c6:	4d 89       	ldd	r20, Y+21	; 0x15
    30c8:	5e 89       	ldd	r21, Y+22	; 0x16
    30ca:	0e 94 3b 2f 	call	0x5e76	; 0x5e76 <__udivmodsi4>
    30ce:	49 01       	movw	r8, r18
    30d0:	5a 01       	movw	r10, r20
    30d2:	da 01       	movw	r26, r20
    30d4:	c9 01       	movw	r24, r18
    30d6:	6a 30       	cpi	r22, 0x0A	; 10
    30d8:	30 f0       	brcs	.+12     	; 0x30e6 <f_printf+0x29c>
    30da:	18 37       	cpi	r17, 0x78	; 120
    30dc:	11 f4       	brne	.+4      	; 0x30e2 <f_printf+0x298>
    30de:	27 e2       	ldi	r18, 0x27	; 39
    30e0:	01 c0       	rjmp	.+2      	; 0x30e4 <f_printf+0x29a>
    30e2:	27 e0       	ldi	r18, 0x07	; 7
    30e4:	62 0f       	add	r22, r18
    30e6:	60 5d       	subi	r22, 0xD0	; 208
    30e8:	e9 89       	ldd	r30, Y+17	; 0x11
    30ea:	fa 89       	ldd	r31, Y+18	; 0x12
    30ec:	61 93       	st	Z+, r22
    30ee:	fa 8b       	std	Y+18, r31	; 0x12
    30f0:	e9 8b       	std	Y+17, r30	; 0x11
    30f2:	72 01       	movw	r14, r4
    30f4:	08 94       	sec
    30f6:	e1 1c       	adc	r14, r1
    30f8:	f1 1c       	adc	r15, r1
    30fa:	81 14       	cp	r8, r1
    30fc:	91 04       	cpc	r9, r1
    30fe:	a1 04       	cpc	r10, r1
    3100:	b1 04       	cpc	r11, r1
    3102:	39 f0       	breq	.+14     	; 0x3112 <f_printf+0x2c8>
    3104:	f0 e1       	ldi	r31, 0x10	; 16
    3106:	ef 16       	cp	r14, r31
    3108:	f1 04       	cpc	r15, r1
    310a:	c1 f6       	brne	.-80     	; 0x30bc <f_printf+0x272>
    310c:	7f e0       	ldi	r23, 0x0F	; 15
    310e:	47 2e       	mov	r4, r23
    3110:	51 2c       	mov	r5, r1
    3112:	80 2f       	mov	r24, r16
    3114:	90 e0       	ldi	r25, 0x00	; 0
    3116:	03 ff       	sbrs	r16, 3
    3118:	0d c0       	rjmp	.+26     	; 0x3134 <f_printf+0x2ea>
    311a:	e1 e0       	ldi	r30, 0x01	; 1
    311c:	f0 e0       	ldi	r31, 0x00	; 0
    311e:	ec 0f       	add	r30, r28
    3120:	fd 1f       	adc	r31, r29
    3122:	ee 0d       	add	r30, r14
    3124:	ff 1d       	adc	r31, r15
    3126:	2d e2       	ldi	r18, 0x2D	; 45
    3128:	20 83       	st	Z, r18
    312a:	62 e0       	ldi	r22, 0x02	; 2
    312c:	e6 2e       	mov	r14, r22
    312e:	f1 2c       	mov	r15, r1
    3130:	e4 0c       	add	r14, r4
    3132:	f5 1c       	adc	r15, r5
    3134:	80 ff       	sbrs	r24, 0
    3136:	02 c0       	rjmp	.+4      	; 0x313c <f_printf+0x2f2>
    3138:	20 e3       	ldi	r18, 0x30	; 48
    313a:	01 c0       	rjmp	.+2      	; 0x313e <f_printf+0x2f4>
    313c:	20 e2       	ldi	r18, 0x20	; 32
    313e:	87 01       	movw	r16, r14
    3140:	88 24       	eor	r8, r8
    3142:	99 24       	eor	r9, r9
    3144:	52 e0       	ldi	r21, 0x02	; 2
    3146:	45 2e       	mov	r4, r21
    3148:	51 2c       	mov	r5, r1
    314a:	48 22       	and	r4, r24
    314c:	59 22       	and	r5, r25
    314e:	0a c0       	rjmp	.+20     	; 0x3164 <f_printf+0x31a>
    3150:	82 2f       	mov	r24, r18
    3152:	6c a5       	lds	r22, 0x6c
    3154:	7d a5       	lds	r23, 0x6d
    3156:	2f 8b       	std	Y+23, r18	; 0x17
    3158:	0e 94 dd 16 	call	0x2dba	; 0x2dba <f_putc>
    315c:	88 0e       	add	r8, r24
    315e:	99 1e       	adc	r9, r25
    3160:	85 01       	movw	r16, r10
    3162:	2f 89       	ldd	r18, Y+23	; 0x17
    3164:	41 14       	cp	r4, r1
    3166:	51 04       	cpc	r5, r1
    3168:	41 f4       	brne	.+16     	; 0x317a <f_printf+0x330>
    316a:	58 01       	movw	r10, r16
    316c:	08 94       	sec
    316e:	a1 1c       	adc	r10, r1
    3170:	b1 1c       	adc	r11, r1
    3172:	06 15       	cp	r16, r6
    3174:	17 05       	cpc	r17, r7
    3176:	60 f3       	brcs	.-40     	; 0x3150 <f_printf+0x306>
    3178:	85 01       	movw	r16, r10
    317a:	08 94       	sec
    317c:	e1 08       	sbc	r14, r1
    317e:	f1 08       	sbc	r15, r1
    3180:	e1 e0       	ldi	r30, 0x01	; 1
    3182:	f0 e0       	ldi	r31, 0x00	; 0
    3184:	ec 0f       	add	r30, r28
    3186:	fd 1f       	adc	r31, r29
    3188:	ee 0d       	add	r30, r14
    318a:	ff 1d       	adc	r31, r15
    318c:	80 81       	ld	r24, Z
    318e:	6c a5       	lds	r22, 0x6c
    3190:	7d a5       	lds	r23, 0x6d
    3192:	0e 94 dd 16 	call	0x2dba	; 0x2dba <f_putc>
    3196:	9c 01       	movw	r18, r24
    3198:	88 0e       	add	r8, r24
    319a:	99 1e       	adc	r9, r25
    319c:	e1 14       	cp	r14, r1
    319e:	f1 04       	cpc	r15, r1
    31a0:	61 f7       	brne	.-40     	; 0x317a <f_printf+0x330>
    31a2:	0a c0       	rjmp	.+20     	; 0x31b8 <f_printf+0x36e>
    31a4:	80 e2       	ldi	r24, 0x20	; 32
    31a6:	6c a5       	lds	r22, 0x6c
    31a8:	7d a5       	lds	r23, 0x6d
    31aa:	0e 94 dd 16 	call	0x2dba	; 0x2dba <f_putc>
    31ae:	9c 01       	movw	r18, r24
    31b0:	88 0e       	add	r8, r24
    31b2:	99 1e       	adc	r9, r25
    31b4:	0f 5f       	subi	r16, 0xFF	; 255
    31b6:	1f 4f       	sbci	r17, 0xFF	; 255
    31b8:	06 15       	cp	r16, r6
    31ba:	17 05       	cpc	r17, r7
    31bc:	98 f3       	brcs	.-26     	; 0x31a4 <f_printf+0x35a>
    31be:	4f ef       	ldi	r20, 0xFF	; 255
    31c0:	2f 3f       	cpi	r18, 0xFF	; 255
    31c2:	34 07       	cpc	r19, r20
    31c4:	09 f0       	breq	.+2      	; 0x31c8 <f_printf+0x37e>
    31c6:	94 01       	movw	r18, r8
    31c8:	82 0e       	add	r8, r18
    31ca:	93 1e       	adc	r9, r19
    31cc:	5f ef       	ldi	r21, 0xFF	; 255
    31ce:	2f 3f       	cpi	r18, 0xFF	; 255
    31d0:	35 07       	cpc	r19, r21
    31d2:	09 f0       	breq	.+2      	; 0x31d6 <f_printf+0x38c>
    31d4:	60 ce       	rjmp	.-832    	; 0x2e96 <f_printf+0x4c>
    31d6:	6f ef       	ldi	r22, 0xFF	; 255
    31d8:	2f 3f       	cpi	r18, 0xFF	; 255
    31da:	36 07       	cpc	r19, r22
    31dc:	09 f0       	breq	.+2      	; 0x31e0 <f_printf+0x396>
    31de:	94 01       	movw	r18, r8
    31e0:	c9 01       	movw	r24, r18
    31e2:	67 96       	adiw	r28, 0x17	; 23
    31e4:	0f b6       	in	r0, 0x3f	; 63
    31e6:	f8 94       	cli
    31e8:	de bf       	out	0x3e, r29	; 62
    31ea:	0f be       	out	0x3f, r0	; 63
    31ec:	cd bf       	out	0x3d, r28	; 61
    31ee:	df 91       	pop	r29
    31f0:	cf 91       	pop	r28
    31f2:	1f 91       	pop	r17
    31f4:	0f 91       	pop	r16
    31f6:	ff 90       	pop	r15
    31f8:	ef 90       	pop	r14
    31fa:	df 90       	pop	r13
    31fc:	cf 90       	pop	r12
    31fe:	bf 90       	pop	r11
    3200:	af 90       	pop	r10
    3202:	9f 90       	pop	r9
    3204:	8f 90       	pop	r8
    3206:	7f 90       	pop	r7
    3208:	6f 90       	pop	r6
    320a:	5f 90       	pop	r5
    320c:	4f 90       	pop	r4
    320e:	3f 90       	pop	r3
    3210:	2f 90       	pop	r2
    3212:	08 95       	ret

00003214 <__vector_5>:
    3214:	1f 92       	push	r1
    3216:	0f 92       	push	r0
    3218:	0f b6       	in	r0, 0x3f	; 63
    321a:	0f 92       	push	r0
    321c:	11 24       	eor	r1, r1
    321e:	da 98       	cbi	0x1b, 2	; 27
    3220:	0f 90       	pop	r0
    3222:	0f be       	out	0x3f, r0	; 63
    3224:	0f 90       	pop	r0
    3226:	1f 90       	pop	r1
    3228:	18 95       	reti

0000322a <__vector_9>:
    322a:	1f 92       	push	r1
    322c:	0f 92       	push	r0
    322e:	0f b6       	in	r0, 0x3f	; 63
    3230:	0f 92       	push	r0
    3232:	11 24       	eor	r1, r1
    3234:	2f 93       	push	r18
    3236:	8f 93       	push	r24
    3238:	9f 93       	push	r25
    323a:	b8 98       	cbi	0x17, 0	; 23
    323c:	80 91 8e 01 	lds	r24, 0x018E
    3240:	90 91 8f 01 	lds	r25, 0x018F
    3244:	01 96       	adiw	r24, 0x01	; 1
    3246:	90 93 8f 01 	sts	0x018F, r25
    324a:	80 93 8e 01 	sts	0x018E, r24
    324e:	23 e0       	ldi	r18, 0x03	; 3
    3250:	84 38       	cpi	r24, 0x84	; 132
    3252:	92 07       	cpc	r25, r18
    3254:	38 f0       	brcs	.+14     	; 0x3264 <__vector_9+0x3a>
    3256:	10 92 8f 01 	sts	0x018F, r1
    325a:	10 92 8e 01 	sts	0x018E, r1
    325e:	81 e0       	ldi	r24, 0x01	; 1
    3260:	80 93 04 05 	sts	0x0504, r24
    3264:	9f 91       	pop	r25
    3266:	8f 91       	pop	r24
    3268:	2f 91       	pop	r18
    326a:	0f 90       	pop	r0
    326c:	0f be       	out	0x3f, r0	; 63
    326e:	0f 90       	pop	r0
    3270:	1f 90       	pop	r1
    3272:	18 95       	reti

00003274 <__vector_11>:
    3274:	1f 92       	push	r1
    3276:	0f 92       	push	r0
    3278:	0f b6       	in	r0, 0x3f	; 63
    327a:	0f 92       	push	r0
    327c:	11 24       	eor	r1, r1
    327e:	8f 93       	push	r24
    3280:	80 91 06 05 	lds	r24, 0x0506
    3284:	88 23       	and	r24, r24
    3286:	19 f0       	breq	.+6      	; 0x328e <__vector_11+0x1a>
    3288:	81 50       	subi	r24, 0x01	; 1
    328a:	80 93 06 05 	sts	0x0506, r24
    328e:	80 91 07 05 	lds	r24, 0x0507
    3292:	88 23       	and	r24, r24
    3294:	19 f0       	breq	.+6      	; 0x329c <__vector_11+0x28>
    3296:	81 50       	subi	r24, 0x01	; 1
    3298:	80 93 07 05 	sts	0x0507, r24
    329c:	80 91 08 05 	lds	r24, 0x0508
    32a0:	88 23       	and	r24, r24
    32a2:	19 f0       	breq	.+6      	; 0x32aa <__vector_11+0x36>
    32a4:	81 50       	subi	r24, 0x01	; 1
    32a6:	80 93 08 05 	sts	0x0508, r24
    32aa:	8f 91       	pop	r24
    32ac:	0f 90       	pop	r0
    32ae:	0f be       	out	0x3f, r0	; 63
    32b0:	0f 90       	pop	r0
    32b2:	1f 90       	pop	r1
    32b4:	18 95       	reti

000032b6 <IO_Init>:
    32b6:	8f e2       	ldi	r24, 0x2F	; 47
    32b8:	84 b9       	out	0x04, r24	; 4
    32ba:	83 ec       	ldi	r24, 0xC3	; 195
    32bc:	85 b9       	out	0x05, r24	; 5
    32be:	80 e2       	ldi	r24, 0x20	; 32
    32c0:	87 b9       	out	0x07, r24	; 7
    32c2:	8c ed       	ldi	r24, 0xDC	; 220
    32c4:	88 b9       	out	0x08, r24	; 8
    32c6:	80 e5       	ldi	r24, 0x50	; 80
    32c8:	8a b9       	out	0x0a, r24	; 10
    32ca:	8b ea       	ldi	r24, 0xAB	; 171
    32cc:	8b b9       	out	0x0b, r24	; 11
    32ce:	83 e0       	ldi	r24, 0x03	; 3
    32d0:	80 93 7e 00 	sts	0x007E, r24
    32d4:	08 95       	ret

000032d6 <PCINIT_Init>:
    32d6:	80 ea       	ldi	r24, 0xA0	; 160
    32d8:	80 93 6d 00 	sts	0x006D, r24
    32dc:	1b ba       	out	0x1b, r1	; 27
    32de:	84 e0       	ldi	r24, 0x04	; 4
    32e0:	80 93 68 00 	sts	0x0068, r24
    32e4:	08 95       	ret

000032e6 <AS2_Init>:
    32e6:	10 92 70 00 	sts	0x0070, r1
    32ea:	80 e6       	ldi	r24, 0x60	; 96
    32ec:	80 93 b6 00 	sts	0x00B6, r24
    32f0:	10 92 b2 00 	sts	0x00B2, r1
    32f4:	80 91 b1 00 	lds	r24, 0x00B1
    32f8:	85 60       	ori	r24, 0x05	; 5
    32fa:	80 93 b1 00 	sts	0x00B1, r24
    32fe:	80 91 b6 00 	lds	r24, 0x00B6
    3302:	81 71       	andi	r24, 0x11	; 17
    3304:	e1 f3       	breq	.-8      	; 0x32fe <AS2_Init+0x18>
    3306:	81 e0       	ldi	r24, 0x01	; 1
    3308:	87 bb       	out	0x17, r24	; 23
    330a:	80 93 70 00 	sts	0x0070, r24
    330e:	08 95       	ret

00003310 <Timer1_Init>:
    3310:	81 ee       	ldi	r24, 0xE1	; 225
    3312:	94 e0       	ldi	r25, 0x04	; 4
    3314:	90 93 89 00 	sts	0x0089, r25
    3318:	80 93 88 00 	sts	0x0088, r24
    331c:	8a e0       	ldi	r24, 0x0A	; 10
    331e:	80 93 81 00 	sts	0x0081, r24
    3322:	ef e6       	ldi	r30, 0x6F	; 111
    3324:	f0 e0       	ldi	r31, 0x00	; 0
    3326:	80 81       	ld	r24, Z
    3328:	82 60       	ori	r24, 0x02	; 2
    332a:	80 83       	st	Z, r24
    332c:	08 95       	ret

0000332e <Timer0_Init>:
    332e:	17 bc       	out	0x27, r1	; 39
    3330:	82 e8       	ldi	r24, 0x82	; 130
    3332:	84 bd       	out	0x24, r24	; 36
    3334:	83 e0       	ldi	r24, 0x03	; 3
    3336:	85 bd       	out	0x25, r24	; 37
    3338:	08 95       	ret

0000333a <SPI_Init>:
    333a:	2a 9a       	sbi	0x05, 2	; 5
    333c:	80 e5       	ldi	r24, 0x50	; 80
    333e:	8c bd       	out	0x2c, r24	; 44
    3340:	81 e0       	ldi	r24, 0x01	; 1
    3342:	8d bd       	out	0x2d, r24	; 45
    3344:	08 95       	ret

00003346 <SPI_Stop>:
    3346:	1c bc       	out	0x2c, r1	; 44
    3348:	2a 98       	cbi	0x05, 2	; 5
    334a:	08 95       	ret

0000334c <getadc>:
    334c:	90 91 7e 00 	lds	r25, 0x007E
    3350:	21 e0       	ldi	r18, 0x01	; 1
    3352:	30 e0       	ldi	r19, 0x00	; 0
    3354:	08 2e       	mov	r0, r24
    3356:	02 c0       	rjmp	.+4      	; 0x335c <getadc+0x10>
    3358:	22 0f       	add	r18, r18
    335a:	33 1f       	adc	r19, r19
    335c:	0a 94       	dec	r0
    335e:	e2 f7       	brpl	.-8      	; 0x3358 <getadc+0xc>
    3360:	92 2b       	or	r25, r18
    3362:	90 93 7e 00 	sts	0x007E, r25
    3366:	80 64       	ori	r24, 0x40	; 64
    3368:	80 93 7c 00 	sts	0x007C, r24
    336c:	86 ec       	ldi	r24, 0xC6	; 198
    336e:	80 93 7a 00 	sts	0x007A, r24
    3372:	80 91 7a 00 	lds	r24, 0x007A
    3376:	86 fd       	sbrc	r24, 6
    3378:	fc cf       	rjmp	.-8      	; 0x3372 <getadc+0x26>
    337a:	80 91 78 00 	lds	r24, 0x0078
    337e:	90 e0       	ldi	r25, 0x00	; 0
    3380:	40 91 79 00 	lds	r20, 0x0079
    3384:	10 92 7a 00 	sts	0x007A, r1
    3388:	30 91 7e 00 	lds	r19, 0x007E
    338c:	20 95       	com	r18
    338e:	23 23       	and	r18, r19
    3390:	20 93 7e 00 	sts	0x007E, r18
    3394:	34 2f       	mov	r19, r20
    3396:	20 e0       	ldi	r18, 0x00	; 0
    3398:	82 2b       	or	r24, r18
    339a:	93 2b       	or	r25, r19
    339c:	08 95       	ret

0000339e <beep>:
    339e:	0f 93       	push	r16
    33a0:	1f 93       	push	r17
    33a2:	cf 93       	push	r28
    33a4:	df 93       	push	r29
    33a6:	0f 92       	push	r0
    33a8:	cd b7       	in	r28, 0x3d	; 61
    33aa:	de b7       	in	r29, 0x3e	; 62
    33ac:	8c 01       	movw	r16, r24
    33ae:	15 c0       	rjmp	.+42     	; 0x33da <beep+0x3c>
    33b0:	84 b5       	in	r24, 0x24	; 36
    33b2:	8f 77       	andi	r24, 0x7F	; 127
    33b4:	84 bd       	out	0x24, r24	; 36
    33b6:	84 b5       	in	r24, 0x24	; 36
    33b8:	80 64       	ori	r24, 0x40	; 64
    33ba:	84 bd       	out	0x24, r24	; 36
    33bc:	c8 01       	movw	r24, r16
    33be:	69 83       	std	Y+1, r22	; 0x01
    33c0:	0e 94 2e 01 	call	0x25c	; 0x25c <wait_ms>
    33c4:	84 b5       	in	r24, 0x24	; 36
    33c6:	80 68       	ori	r24, 0x80	; 128
    33c8:	84 bd       	out	0x24, r24	; 36
    33ca:	84 b5       	in	r24, 0x24	; 36
    33cc:	8f 7b       	andi	r24, 0xBF	; 191
    33ce:	84 bd       	out	0x24, r24	; 36
    33d0:	c8 01       	movw	r24, r16
    33d2:	0e 94 2e 01 	call	0x25c	; 0x25c <wait_ms>
    33d6:	69 81       	ldd	r22, Y+1	; 0x01
    33d8:	61 50       	subi	r22, 0x01	; 1
    33da:	66 23       	and	r22, r22
    33dc:	49 f7       	brne	.-46     	; 0x33b0 <beep+0x12>
    33de:	0f 90       	pop	r0
    33e0:	df 91       	pop	r29
    33e2:	cf 91       	pop	r28
    33e4:	1f 91       	pop	r17
    33e6:	0f 91       	pop	r16
    33e8:	08 95       	ret

000033ea <led_blink>:
    33ea:	0f 93       	push	r16
    33ec:	1f 93       	push	r17
    33ee:	cf 93       	push	r28
    33f0:	df 93       	push	r29
    33f2:	0f 92       	push	r0
    33f4:	cd b7       	in	r28, 0x3d	; 61
    33f6:	de b7       	in	r29, 0x3e	; 62
    33f8:	8c 01       	movw	r16, r24
    33fa:	0b c0       	rjmp	.+22     	; 0x3412 <led_blink+0x28>
    33fc:	5c 9a       	sbi	0x0b, 4	; 11
    33fe:	c8 01       	movw	r24, r16
    3400:	69 83       	std	Y+1, r22	; 0x01
    3402:	0e 94 2e 01 	call	0x25c	; 0x25c <wait_ms>
    3406:	5c 98       	cbi	0x0b, 4	; 11
    3408:	c8 01       	movw	r24, r16
    340a:	0e 94 2e 01 	call	0x25c	; 0x25c <wait_ms>
    340e:	69 81       	ldd	r22, Y+1	; 0x01
    3410:	61 50       	subi	r22, 0x01	; 1
    3412:	66 23       	and	r22, r22
    3414:	99 f7       	brne	.-26     	; 0x33fc <led_blink+0x12>
    3416:	0f 90       	pop	r0
    3418:	df 91       	pop	r29
    341a:	cf 91       	pop	r28
    341c:	1f 91       	pop	r17
    341e:	0f 91       	pop	r16
    3420:	08 95       	ret

00003422 <get_fattime>:
    3422:	0f 93       	push	r16
    3424:	1f 93       	push	r17
    3426:	00 91 0c 05 	lds	r16, 0x050C
    342a:	10 e0       	ldi	r17, 0x00	; 0
    342c:	20 e0       	ldi	r18, 0x00	; 0
    342e:	30 e0       	ldi	r19, 0x00	; 0
    3430:	98 01       	movw	r18, r16
    3432:	11 27       	eor	r17, r17
    3434:	00 27       	eor	r16, r16
    3436:	80 91 0d 05 	lds	r24, 0x050D
    343a:	90 e0       	ldi	r25, 0x00	; 0
    343c:	a0 e0       	ldi	r26, 0x00	; 0
    343e:	b0 e0       	ldi	r27, 0x00	; 0
    3440:	45 e1       	ldi	r20, 0x15	; 21
    3442:	88 0f       	add	r24, r24
    3444:	99 1f       	adc	r25, r25
    3446:	aa 1f       	adc	r26, r26
    3448:	bb 1f       	adc	r27, r27
    344a:	4a 95       	dec	r20
    344c:	d1 f7       	brne	.-12     	; 0x3442 <get_fattime+0x20>
    344e:	08 2b       	or	r16, r24
    3450:	19 2b       	or	r17, r25
    3452:	2a 2b       	or	r18, r26
    3454:	3b 2b       	or	r19, r27
    3456:	80 91 0b 05 	lds	r24, 0x050B
    345a:	90 e0       	ldi	r25, 0x00	; 0
    345c:	a0 e0       	ldi	r26, 0x00	; 0
    345e:	b0 e0       	ldi	r27, 0x00	; 0
    3460:	5b e0       	ldi	r21, 0x0B	; 11
    3462:	88 0f       	add	r24, r24
    3464:	99 1f       	adc	r25, r25
    3466:	aa 1f       	adc	r26, r26
    3468:	bb 1f       	adc	r27, r27
    346a:	5a 95       	dec	r21
    346c:	d1 f7       	brne	.-12     	; 0x3462 <get_fattime+0x40>
    346e:	08 2b       	or	r16, r24
    3470:	19 2b       	or	r17, r25
    3472:	2a 2b       	or	r18, r26
    3474:	3b 2b       	or	r19, r27
    3476:	80 91 0a 05 	lds	r24, 0x050A
    347a:	90 e0       	ldi	r25, 0x00	; 0
    347c:	a0 e0       	ldi	r26, 0x00	; 0
    347e:	b0 e0       	ldi	r27, 0x00	; 0
    3480:	65 e0       	ldi	r22, 0x05	; 5
    3482:	88 0f       	add	r24, r24
    3484:	99 1f       	adc	r25, r25
    3486:	aa 1f       	adc	r26, r26
    3488:	bb 1f       	adc	r27, r27
    348a:	6a 95       	dec	r22
    348c:	d1 f7       	brne	.-12     	; 0x3482 <get_fattime+0x60>
    348e:	08 2b       	or	r16, r24
    3490:	19 2b       	or	r17, r25
    3492:	2a 2b       	or	r18, r26
    3494:	3b 2b       	or	r19, r27
    3496:	e9 e0       	ldi	r30, 0x09	; 9
    3498:	f5 e0       	ldi	r31, 0x05	; 5
    349a:	80 81       	ld	r24, Z
    349c:	86 95       	lsr	r24
    349e:	90 e0       	ldi	r25, 0x00	; 0
    34a0:	a0 e0       	ldi	r26, 0x00	; 0
    34a2:	b0 e0       	ldi	r27, 0x00	; 0
    34a4:	08 2b       	or	r16, r24
    34a6:	19 2b       	or	r17, r25
    34a8:	2a 2b       	or	r18, r26
    34aa:	3b 2b       	or	r19, r27
    34ac:	85 81       	ldd	r24, Z+5	; 0x05
    34ae:	96 81       	ldd	r25, Z+6	; 0x06
    34b0:	8c 5b       	subi	r24, 0xBC	; 188
    34b2:	97 40       	sbci	r25, 0x07	; 7
    34b4:	a0 e0       	ldi	r26, 0x00	; 0
    34b6:	b0 e0       	ldi	r27, 0x00	; 0
    34b8:	79 e1       	ldi	r23, 0x19	; 25
    34ba:	88 0f       	add	r24, r24
    34bc:	99 1f       	adc	r25, r25
    34be:	aa 1f       	adc	r26, r26
    34c0:	bb 1f       	adc	r27, r27
    34c2:	7a 95       	dec	r23
    34c4:	d1 f7       	brne	.-12     	; 0x34ba <get_fattime+0x98>
    34c6:	08 2b       	or	r16, r24
    34c8:	19 2b       	or	r17, r25
    34ca:	2a 2b       	or	r18, r26
    34cc:	3b 2b       	or	r19, r27
    34ce:	b8 01       	movw	r22, r16
    34d0:	c9 01       	movw	r24, r18
    34d2:	1f 91       	pop	r17
    34d4:	0f 91       	pop	r16
    34d6:	08 95       	ret

000034d8 <lcdpower_off>:
    34d8:	21 98       	cbi	0x04, 1	; 4
    34da:	29 98       	cbi	0x05, 1	; 5
    34dc:	08 95       	ret

000034de <setMpl115a2Data>:
    34de:	cf 93       	push	r28
    34e0:	df 93       	push	r29
    34e2:	00 d0       	rcall	.+0      	; 0x34e4 <setMpl115a2Data+0x6>
    34e4:	00 d0       	rcall	.+0      	; 0x34e6 <setMpl115a2Data+0x8>
    34e6:	cd b7       	in	r28, 0x3d	; 61
    34e8:	de b7       	in	r29, 0x3e	; 62
    34ea:	ce 01       	movw	r24, r28
    34ec:	03 96       	adiw	r24, 0x03	; 3
    34ee:	be 01       	movw	r22, r28
    34f0:	6f 5f       	subi	r22, 0xFF	; 255
    34f2:	7f 4f       	sbci	r23, 0xFF	; 255
    34f4:	0e 94 30 24 	call	0x4860	; 0x4860 <mpl115a_get>
    34f8:	88 23       	and	r24, r24
    34fa:	81 f4       	brne	.+32     	; 0x351c <setMpl115a2Data+0x3e>
    34fc:	8b 81       	ldd	r24, Y+3	; 0x03
    34fe:	9c 81       	ldd	r25, Y+4	; 0x04
    3500:	64 e8       	ldi	r22, 0x84	; 132
    3502:	74 e0       	ldi	r23, 0x04	; 4
    3504:	40 e2       	ldi	r20, 0x20	; 32
    3506:	0e 94 c3 28 	call	0x5186	; 0x5186 <storeData>
    350a:	89 81       	ldd	r24, Y+1	; 0x01
    350c:	9a 81       	ldd	r25, Y+2	; 0x02
    350e:	6e ec       	ldi	r22, 0xCE	; 206
    3510:	73 e0       	ldi	r23, 0x03	; 3
    3512:	40 e2       	ldi	r20, 0x20	; 32
    3514:	0e 94 c3 28 	call	0x5186	; 0x5186 <storeData>
    3518:	81 e0       	ldi	r24, 0x01	; 1
    351a:	01 c0       	rjmp	.+2      	; 0x351e <setMpl115a2Data+0x40>
    351c:	80 e0       	ldi	r24, 0x00	; 0
    351e:	0f 90       	pop	r0
    3520:	0f 90       	pop	r0
    3522:	0f 90       	pop	r0
    3524:	0f 90       	pop	r0
    3526:	df 91       	pop	r29
    3528:	cf 91       	pop	r28
    352a:	08 95       	ret

0000352c <initMpl115a2Data>:
    352c:	cf 93       	push	r28
    352e:	c0 e2       	ldi	r28, 0x20	; 32
    3530:	0e 94 6f 1a 	call	0x34de	; 0x34de <setMpl115a2Data>
    3534:	88 23       	and	r24, r24
    3536:	41 f0       	breq	.+16     	; 0x3548 <initMpl115a2Data+0x1c>
    3538:	84 e6       	ldi	r24, 0x64	; 100
    353a:	90 e0       	ldi	r25, 0x00	; 0
    353c:	0e 94 2e 01 	call	0x25c	; 0x25c <wait_ms>
    3540:	c1 50       	subi	r28, 0x01	; 1
    3542:	b1 f7       	brne	.-20     	; 0x3530 <initMpl115a2Data+0x4>
    3544:	81 e0       	ldi	r24, 0x01	; 1
    3546:	01 c0       	rjmp	.+2      	; 0x354a <initMpl115a2Data+0x1e>
    3548:	80 e0       	ldi	r24, 0x00	; 0
    354a:	cf 91       	pop	r28
    354c:	08 95       	ret

0000354e <averageMpl115a2Data>:
    354e:	cf 92       	push	r12
    3550:	df 92       	push	r13
    3552:	ef 92       	push	r14
    3554:	ff 92       	push	r15
    3556:	0f 93       	push	r16
    3558:	1f 93       	push	r17
    355a:	cf 93       	push	r28
    355c:	df 93       	push	r29
    355e:	ec 01       	movw	r28, r24
    3560:	8b 01       	movw	r16, r22
    3562:	7a 01       	movw	r14, r20
    3564:	69 01       	movw	r12, r18
    3566:	0e 94 6f 1a 	call	0x34de	; 0x34de <setMpl115a2Data>
    356a:	88 23       	and	r24, r24
    356c:	79 f1       	breq	.+94     	; 0x35cc <averageMpl115a2Data+0x7e>
    356e:	84 e8       	ldi	r24, 0x84	; 132
    3570:	94 e0       	ldi	r25, 0x04	; 4
    3572:	60 e2       	ldi	r22, 0x20	; 32
    3574:	0e 94 d7 28 	call	0x51ae	; 0x51ae <sumData>
    3578:	20 e2       	ldi	r18, 0x20	; 32
    357a:	30 e0       	ldi	r19, 0x00	; 0
    357c:	40 e0       	ldi	r20, 0x00	; 0
    357e:	50 e0       	ldi	r21, 0x00	; 0
    3580:	0e 94 5d 2f 	call	0x5eba	; 0x5eba <__divmodsi4>
    3584:	39 83       	std	Y+1, r19	; 0x01
    3586:	28 83       	st	Y, r18
    3588:	2a e0       	ldi	r18, 0x0A	; 10
    358a:	30 e0       	ldi	r19, 0x00	; 0
    358c:	40 e0       	ldi	r20, 0x00	; 0
    358e:	50 e0       	ldi	r21, 0x00	; 0
    3590:	0e 94 5d 2f 	call	0x5eba	; 0x5eba <__divmodsi4>
    3594:	f8 01       	movw	r30, r16
    3596:	31 83       	std	Z+1, r19	; 0x01
    3598:	20 83       	st	Z, r18
    359a:	8e ec       	ldi	r24, 0xCE	; 206
    359c:	93 e0       	ldi	r25, 0x03	; 3
    359e:	60 e2       	ldi	r22, 0x20	; 32
    35a0:	0e 94 d7 28 	call	0x51ae	; 0x51ae <sumData>
    35a4:	20 e4       	ldi	r18, 0x40	; 64
    35a6:	31 e0       	ldi	r19, 0x01	; 1
    35a8:	40 e0       	ldi	r20, 0x00	; 0
    35aa:	50 e0       	ldi	r21, 0x00	; 0
    35ac:	0e 94 5d 2f 	call	0x5eba	; 0x5eba <__divmodsi4>
    35b0:	f7 01       	movw	r30, r14
    35b2:	31 83       	std	Z+1, r19	; 0x01
    35b4:	20 83       	st	Z, r18
    35b6:	24 e6       	ldi	r18, 0x64	; 100
    35b8:	30 e0       	ldi	r19, 0x00	; 0
    35ba:	40 e0       	ldi	r20, 0x00	; 0
    35bc:	50 e0       	ldi	r21, 0x00	; 0
    35be:	0e 94 5d 2f 	call	0x5eba	; 0x5eba <__divmodsi4>
    35c2:	f6 01       	movw	r30, r12
    35c4:	31 83       	std	Z+1, r19	; 0x01
    35c6:	20 83       	st	Z, r18
    35c8:	81 e0       	ldi	r24, 0x01	; 1
    35ca:	01 c0       	rjmp	.+2      	; 0x35ce <averageMpl115a2Data+0x80>
    35cc:	80 e0       	ldi	r24, 0x00	; 0
    35ce:	df 91       	pop	r29
    35d0:	cf 91       	pop	r28
    35d2:	1f 91       	pop	r17
    35d4:	0f 91       	pop	r16
    35d6:	ff 90       	pop	r15
    35d8:	ef 90       	pop	r14
    35da:	df 90       	pop	r13
    35dc:	cf 90       	pop	r12
    35de:	08 95       	ret

000035e0 <setVoltData>:
    35e0:	80 e0       	ldi	r24, 0x00	; 0
    35e2:	0e 94 a6 19 	call	0x334c	; 0x334c <getadc>
    35e6:	64 e4       	ldi	r22, 0x44	; 68
    35e8:	74 e0       	ldi	r23, 0x04	; 4
    35ea:	40 e2       	ldi	r20, 0x20	; 32
    35ec:	0e 94 c3 28 	call	0x5186	; 0x5186 <storeData>
    35f0:	08 95       	ret

000035f2 <initVoltData>:
    35f2:	cf 93       	push	r28
    35f4:	c0 e2       	ldi	r28, 0x20	; 32
    35f6:	0e 94 f0 1a 	call	0x35e0	; 0x35e0 <setVoltData>
    35fa:	c1 50       	subi	r28, 0x01	; 1
    35fc:	e1 f7       	brne	.-8      	; 0x35f6 <initVoltData+0x4>
    35fe:	cf 91       	pop	r28
    3600:	08 95       	ret

00003602 <averageVoltData>:
    3602:	0e 94 f0 1a 	call	0x35e0	; 0x35e0 <setVoltData>
    3606:	84 e4       	ldi	r24, 0x44	; 68
    3608:	94 e0       	ldi	r25, 0x04	; 4
    360a:	60 e2       	ldi	r22, 0x20	; 32
    360c:	0e 94 d7 28 	call	0x51ae	; 0x51ae <sumData>
    3610:	20 e2       	ldi	r18, 0x20	; 32
    3612:	30 e0       	ldi	r19, 0x00	; 0
    3614:	40 e0       	ldi	r20, 0x00	; 0
    3616:	50 e0       	ldi	r21, 0x00	; 0
    3618:	0e 94 5d 2f 	call	0x5eba	; 0x5eba <__divmodsi4>
    361c:	b9 01       	movw	r22, r18
    361e:	88 27       	eor	r24, r24
    3620:	77 fd       	sbrc	r23, 7
    3622:	80 95       	com	r24
    3624:	98 2f       	mov	r25, r24
    3626:	0e 94 fa 2d 	call	0x5bf4	; 0x5bf4 <__floatsisf>
    362a:	24 e8       	ldi	r18, 0x84	; 132
    362c:	3d e8       	ldi	r19, 0x8D	; 141
    362e:	4b ef       	ldi	r20, 0xFB	; 251
    3630:	54 e4       	ldi	r21, 0x44	; 68
    3632:	0e 94 5e 2e 	call	0x5cbc	; 0x5cbc <__mulsf3>
    3636:	23 ed       	ldi	r18, 0xD3	; 211
    3638:	3d e4       	ldi	r19, 0x4D	; 77
    363a:	42 e5       	ldi	r20, 0x52	; 82
    363c:	50 e4       	ldi	r21, 0x40	; 64
    363e:	0e 94 5e 2e 	call	0x5cbc	; 0x5cbc <__mulsf3>
    3642:	20 e0       	ldi	r18, 0x00	; 0
    3644:	30 e0       	ldi	r19, 0x00	; 0
    3646:	40 e8       	ldi	r20, 0x80	; 128
    3648:	5a e3       	ldi	r21, 0x3A	; 58
    364a:	0e 94 5e 2e 	call	0x5cbc	; 0x5cbc <__mulsf3>
    364e:	0e 94 c7 2d 	call	0x5b8e	; 0x5b8e <__fixsfsi>
    3652:	cb 01       	movw	r24, r22
    3654:	08 95       	ret

00003656 <setIlumData>:
    3656:	81 e0       	ldi	r24, 0x01	; 1
    3658:	0e 94 a6 19 	call	0x334c	; 0x334c <getadc>
    365c:	64 ec       	ldi	r22, 0xC4	; 196
    365e:	74 e0       	ldi	r23, 0x04	; 4
    3660:	40 e2       	ldi	r20, 0x20	; 32
    3662:	0e 94 c3 28 	call	0x5186	; 0x5186 <storeData>
    3666:	08 95       	ret

00003668 <initIlumData>:
    3668:	cf 93       	push	r28
    366a:	c0 e2       	ldi	r28, 0x20	; 32
    366c:	0e 94 2b 1b 	call	0x3656	; 0x3656 <setIlumData>
    3670:	c1 50       	subi	r28, 0x01	; 1
    3672:	e1 f7       	brne	.-8      	; 0x366c <initIlumData+0x4>
    3674:	cf 91       	pop	r28
    3676:	08 95       	ret

00003678 <averageIlumData>:
    3678:	0e 94 2b 1b 	call	0x3656	; 0x3656 <setIlumData>
    367c:	84 ec       	ldi	r24, 0xC4	; 196
    367e:	94 e0       	ldi	r25, 0x04	; 4
    3680:	60 e2       	ldi	r22, 0x20	; 32
    3682:	0e 94 d7 28 	call	0x51ae	; 0x51ae <sumData>
    3686:	20 e2       	ldi	r18, 0x20	; 32
    3688:	30 e0       	ldi	r19, 0x00	; 0
    368a:	40 e0       	ldi	r20, 0x00	; 0
    368c:	50 e0       	ldi	r21, 0x00	; 0
    368e:	0e 94 5d 2f 	call	0x5eba	; 0x5eba <__divmodsi4>
    3692:	b9 01       	movw	r22, r18
    3694:	88 27       	eor	r24, r24
    3696:	77 fd       	sbrc	r23, 7
    3698:	80 95       	com	r24
    369a:	98 2f       	mov	r25, r24
    369c:	21 e9       	ldi	r18, 0x91	; 145
    369e:	32 e0       	ldi	r19, 0x02	; 2
    36a0:	40 e0       	ldi	r20, 0x00	; 0
    36a2:	50 e0       	ldi	r21, 0x00	; 0
    36a4:	0e 94 e9 2e 	call	0x5dd2	; 0x5dd2 <__mulsi3>
    36a8:	20 e0       	ldi	r18, 0x00	; 0
    36aa:	34 e0       	ldi	r19, 0x04	; 4
    36ac:	40 e0       	ldi	r20, 0x00	; 0
    36ae:	50 e0       	ldi	r21, 0x00	; 0
    36b0:	0e 94 5d 2f 	call	0x5eba	; 0x5eba <__divmodsi4>
    36b4:	c9 01       	movw	r24, r18
    36b6:	08 95       	ret

000036b8 <mapCustomChar>:
    36b8:	ff 92       	push	r15
    36ba:	0f 93       	push	r16
    36bc:	1f 93       	push	r17
    36be:	cf 93       	push	r28
    36c0:	df 93       	push	r29
    36c2:	cd b7       	in	r28, 0x3d	; 61
    36c4:	de b7       	in	r29, 0x3e	; 62
    36c6:	28 97       	sbiw	r28, 0x08	; 8
    36c8:	0f b6       	in	r0, 0x3f	; 63
    36ca:	f8 94       	cli
    36cc:	de bf       	out	0x3e, r29	; 62
    36ce:	0f be       	out	0x3f, r0	; 63
    36d0:	cd bf       	out	0x3d, r28	; 61
    36d2:	00 e0       	ldi	r16, 0x00	; 0
    36d4:	10 e0       	ldi	r17, 0x00	; 0
    36d6:	ff 24       	eor	r15, r15
    36d8:	f9 99       	sbic	0x1f, 1	; 31
    36da:	fe cf       	rjmp	.-4      	; 0x36d8 <mapCustomChar+0x20>
    36dc:	ce 01       	movw	r24, r28
    36de:	01 96       	adiw	r24, 0x01	; 1
    36e0:	b8 01       	movw	r22, r16
    36e2:	48 e0       	ldi	r20, 0x08	; 8
    36e4:	50 e0       	ldi	r21, 0x00	; 0
    36e6:	0e 94 80 2f 	call	0x5f00	; 0x5f00 <__eerd_block_m328p>
    36ea:	f9 99       	sbic	0x1f, 1	; 31
    36ec:	fe cf       	rjmp	.-4      	; 0x36ea <mapCustomChar+0x32>
    36ee:	8f 2d       	mov	r24, r15
    36f0:	be 01       	movw	r22, r28
    36f2:	6f 5f       	subi	r22, 0xFF	; 255
    36f4:	7f 4f       	sbci	r23, 0xFF	; 255
    36f6:	0e 94 13 27 	call	0x4e26	; 0x4e26 <ST7032i_createChar>
    36fa:	f3 94       	inc	r15
    36fc:	08 5f       	subi	r16, 0xF8	; 248
    36fe:	1f 4f       	sbci	r17, 0xFF	; 255
    3700:	88 e0       	ldi	r24, 0x08	; 8
    3702:	f8 16       	cp	r15, r24
    3704:	49 f7       	brne	.-46     	; 0x36d8 <mapCustomChar+0x20>
    3706:	28 96       	adiw	r28, 0x08	; 8
    3708:	0f b6       	in	r0, 0x3f	; 63
    370a:	f8 94       	cli
    370c:	de bf       	out	0x3e, r29	; 62
    370e:	0f be       	out	0x3f, r0	; 63
    3710:	cd bf       	out	0x3d, r28	; 61
    3712:	df 91       	pop	r29
    3714:	cf 91       	pop	r28
    3716:	1f 91       	pop	r17
    3718:	0f 91       	pop	r16
    371a:	ff 90       	pop	r15
    371c:	08 95       	ret

0000371e <lcdpower_on>:
    371e:	21 9a       	sbi	0x04, 1	; 4
    3720:	29 9a       	sbi	0x05, 1	; 5
    3722:	0e 94 b7 25 	call	0x4b6e	; 0x4b6e <ST7032i_Init>
    3726:	0e 94 1a 26 	call	0x4c34	; 0x4c34 <ST7032i_Clear>
    372a:	0e 94 5c 1b 	call	0x36b8	; 0x36b8 <mapCustomChar>
    372e:	80 e0       	ldi	r24, 0x00	; 0
    3730:	60 e0       	ldi	r22, 0x00	; 0
    3732:	0e 94 2c 26 	call	0x4c58	; 0x4c58 <ST7032i_setCursor>
    3736:	08 95       	ret

00003738 <dispTime>:
    3738:	0f 93       	push	r16
    373a:	1f 93       	push	r17
    373c:	cf 93       	push	r28
    373e:	df 93       	push	r29
    3740:	cd b7       	in	r28, 0x3d	; 61
    3742:	de b7       	in	r29, 0x3e	; 62
    3744:	61 97       	sbiw	r28, 0x11	; 17
    3746:	0f b6       	in	r0, 0x3f	; 63
    3748:	f8 94       	cli
    374a:	de bf       	out	0x3e, r29	; 62
    374c:	0f be       	out	0x3f, r0	; 63
    374e:	cd bf       	out	0x3d, r28	; 61
    3750:	8d b7       	in	r24, 0x3d	; 61
    3752:	9e b7       	in	r25, 0x3e	; 62
    3754:	0a 97       	sbiw	r24, 0x0a	; 10
    3756:	0f b6       	in	r0, 0x3f	; 63
    3758:	f8 94       	cli
    375a:	9e bf       	out	0x3e, r25	; 62
    375c:	0f be       	out	0x3f, r0	; 63
    375e:	8d bf       	out	0x3d, r24	; 61
    3760:	ed b7       	in	r30, 0x3d	; 61
    3762:	fe b7       	in	r31, 0x3e	; 62
    3764:	31 96       	adiw	r30, 0x01	; 1
    3766:	8e 01       	movw	r16, r28
    3768:	0f 5f       	subi	r16, 0xFF	; 255
    376a:	1f 4f       	sbci	r17, 0xFF	; 255
    376c:	ad b7       	in	r26, 0x3d	; 61
    376e:	be b7       	in	r27, 0x3e	; 62
    3770:	12 96       	adiw	r26, 0x02	; 2
    3772:	1c 93       	st	X, r17
    3774:	0e 93       	st	-X, r16
    3776:	11 97       	sbiw	r26, 0x01	; 1
    3778:	88 e6       	ldi	r24, 0x68	; 104
    377a:	90 e0       	ldi	r25, 0x00	; 0
    377c:	93 83       	std	Z+3, r25	; 0x03
    377e:	82 83       	std	Z+2, r24	; 0x02
    3780:	80 91 0e 05 	lds	r24, 0x050E
    3784:	90 91 0f 05 	lds	r25, 0x050F
    3788:	80 5d       	subi	r24, 0xD0	; 208
    378a:	97 40       	sbci	r25, 0x07	; 7
    378c:	95 83       	std	Z+5, r25	; 0x05
    378e:	84 83       	std	Z+4, r24	; 0x04
    3790:	80 91 0d 05 	lds	r24, 0x050D
    3794:	86 83       	std	Z+6, r24	; 0x06
    3796:	17 82       	std	Z+7, r1	; 0x07
    3798:	80 91 0c 05 	lds	r24, 0x050C
    379c:	80 87       	std	Z+8, r24	; 0x08
    379e:	11 86       	std	Z+9, r1	; 0x09
    37a0:	0e 94 14 2a 	call	0x5428	; 0x5428 <xsprintf_p>
    37a4:	8d b7       	in	r24, 0x3d	; 61
    37a6:	9e b7       	in	r25, 0x3e	; 62
    37a8:	0a 96       	adiw	r24, 0x0a	; 10
    37aa:	0f b6       	in	r0, 0x3f	; 63
    37ac:	f8 94       	cli
    37ae:	9e bf       	out	0x3e, r25	; 62
    37b0:	0f be       	out	0x3f, r0	; 63
    37b2:	8d bf       	out	0x3d, r24	; 61
    37b4:	80 e0       	ldi	r24, 0x00	; 0
    37b6:	60 e0       	ldi	r22, 0x00	; 0
    37b8:	0e 94 2c 26 	call	0x4c58	; 0x4c58 <ST7032i_setCursor>
    37bc:	c8 01       	movw	r24, r16
    37be:	0e 94 6b 27 	call	0x4ed6	; 0x4ed6 <ST7032i_puts>
    37c2:	ad b7       	in	r26, 0x3d	; 61
    37c4:	be b7       	in	r27, 0x3e	; 62
    37c6:	1a 97       	sbiw	r26, 0x0a	; 10
    37c8:	0f b6       	in	r0, 0x3f	; 63
    37ca:	f8 94       	cli
    37cc:	be bf       	out	0x3e, r27	; 62
    37ce:	0f be       	out	0x3f, r0	; 63
    37d0:	ad bf       	out	0x3d, r26	; 61
    37d2:	ed b7       	in	r30, 0x3d	; 61
    37d4:	fe b7       	in	r31, 0x3e	; 62
    37d6:	31 96       	adiw	r30, 0x01	; 1
    37d8:	12 96       	adiw	r26, 0x02	; 2
    37da:	1c 93       	st	X, r17
    37dc:	0e 93       	st	-X, r16
    37de:	11 97       	sbiw	r26, 0x01	; 1
    37e0:	87 e7       	ldi	r24, 0x77	; 119
    37e2:	90 e0       	ldi	r25, 0x00	; 0
    37e4:	93 83       	std	Z+3, r25	; 0x03
    37e6:	82 83       	std	Z+2, r24	; 0x02
    37e8:	80 91 0b 05 	lds	r24, 0x050B
    37ec:	84 83       	std	Z+4, r24	; 0x04
    37ee:	15 82       	std	Z+5, r1	; 0x05
    37f0:	80 91 0a 05 	lds	r24, 0x050A
    37f4:	86 83       	std	Z+6, r24	; 0x06
    37f6:	17 82       	std	Z+7, r1	; 0x07
    37f8:	80 91 09 05 	lds	r24, 0x0509
    37fc:	80 87       	std	Z+8, r24	; 0x08
    37fe:	11 86       	std	Z+9, r1	; 0x09
    3800:	0e 94 14 2a 	call	0x5428	; 0x5428 <xsprintf_p>
    3804:	8d b7       	in	r24, 0x3d	; 61
    3806:	9e b7       	in	r25, 0x3e	; 62
    3808:	0a 96       	adiw	r24, 0x0a	; 10
    380a:	0f b6       	in	r0, 0x3f	; 63
    380c:	f8 94       	cli
    380e:	9e bf       	out	0x3e, r25	; 62
    3810:	0f be       	out	0x3f, r0	; 63
    3812:	8d bf       	out	0x3d, r24	; 61
    3814:	80 e0       	ldi	r24, 0x00	; 0
    3816:	61 e0       	ldi	r22, 0x01	; 1
    3818:	0e 94 2c 26 	call	0x4c58	; 0x4c58 <ST7032i_setCursor>
    381c:	c8 01       	movw	r24, r16
    381e:	0e 94 6b 27 	call	0x4ed6	; 0x4ed6 <ST7032i_puts>
    3822:	61 96       	adiw	r28, 0x11	; 17
    3824:	0f b6       	in	r0, 0x3f	; 63
    3826:	f8 94       	cli
    3828:	de bf       	out	0x3e, r29	; 62
    382a:	0f be       	out	0x3f, r0	; 63
    382c:	cd bf       	out	0x3d, r28	; 61
    382e:	df 91       	pop	r29
    3830:	cf 91       	pop	r28
    3832:	1f 91       	pop	r17
    3834:	0f 91       	pop	r16
    3836:	08 95       	ret

00003838 <dispAtom>:
    3838:	cf 92       	push	r12
    383a:	df 92       	push	r13
    383c:	ef 92       	push	r14
    383e:	ff 92       	push	r15
    3840:	0f 93       	push	r16
    3842:	1f 93       	push	r17
    3844:	cf 93       	push	r28
    3846:	df 93       	push	r29
    3848:	cd b7       	in	r28, 0x3d	; 61
    384a:	de b7       	in	r29, 0x3e	; 62
    384c:	61 97       	sbiw	r28, 0x11	; 17
    384e:	0f b6       	in	r0, 0x3f	; 63
    3850:	f8 94       	cli
    3852:	de bf       	out	0x3e, r29	; 62
    3854:	0f be       	out	0x3f, r0	; 63
    3856:	cd bf       	out	0x3d, r28	; 61
    3858:	6a 01       	movw	r12, r20
    385a:	79 01       	movw	r14, r18
    385c:	2d b7       	in	r18, 0x3d	; 61
    385e:	3e b7       	in	r19, 0x3e	; 62
    3860:	28 50       	subi	r18, 0x08	; 8
    3862:	30 40       	sbci	r19, 0x00	; 0
    3864:	0f b6       	in	r0, 0x3f	; 63
    3866:	f8 94       	cli
    3868:	3e bf       	out	0x3e, r19	; 62
    386a:	0f be       	out	0x3f, r0	; 63
    386c:	2d bf       	out	0x3d, r18	; 61
    386e:	ed b7       	in	r30, 0x3d	; 61
    3870:	fe b7       	in	r31, 0x3e	; 62
    3872:	31 96       	adiw	r30, 0x01	; 1
    3874:	8e 01       	movw	r16, r28
    3876:	0f 5f       	subi	r16, 0xFF	; 255
    3878:	1f 4f       	sbci	r17, 0xFF	; 255
    387a:	ad b7       	in	r26, 0x3d	; 61
    387c:	be b7       	in	r27, 0x3e	; 62
    387e:	12 96       	adiw	r26, 0x02	; 2
    3880:	1c 93       	st	X, r17
    3882:	0e 93       	st	-X, r16
    3884:	11 97       	sbiw	r26, 0x01	; 1
    3886:	26 e8       	ldi	r18, 0x86	; 134
    3888:	30 e0       	ldi	r19, 0x00	; 0
    388a:	33 83       	std	Z+3, r19	; 0x03
    388c:	22 83       	std	Z+2, r18	; 0x02
    388e:	95 83       	std	Z+5, r25	; 0x05
    3890:	84 83       	std	Z+4, r24	; 0x04
    3892:	77 83       	std	Z+7, r23	; 0x07
    3894:	66 83       	std	Z+6, r22	; 0x06
    3896:	0e 94 14 2a 	call	0x5428	; 0x5428 <xsprintf_p>
    389a:	2d b7       	in	r18, 0x3d	; 61
    389c:	3e b7       	in	r19, 0x3e	; 62
    389e:	28 5f       	subi	r18, 0xF8	; 248
    38a0:	3f 4f       	sbci	r19, 0xFF	; 255
    38a2:	0f b6       	in	r0, 0x3f	; 63
    38a4:	f8 94       	cli
    38a6:	3e bf       	out	0x3e, r19	; 62
    38a8:	0f be       	out	0x3f, r0	; 63
    38aa:	2d bf       	out	0x3d, r18	; 61
    38ac:	89 e0       	ldi	r24, 0x09	; 9
    38ae:	60 e0       	ldi	r22, 0x00	; 0
    38b0:	0e 94 2c 26 	call	0x4c58	; 0x4c58 <ST7032i_setCursor>
    38b4:	c8 01       	movw	r24, r16
    38b6:	0e 94 6b 27 	call	0x4ed6	; 0x4ed6 <ST7032i_puts>
    38ba:	81 e0       	ldi	r24, 0x01	; 1
    38bc:	60 e4       	ldi	r22, 0x40	; 64
    38be:	0e 94 95 25 	call	0x4b2a	; 0x4b2a <ST7032i_Write>
    38c2:	8d b7       	in	r24, 0x3d	; 61
    38c4:	9e b7       	in	r25, 0x3e	; 62
    38c6:	08 97       	sbiw	r24, 0x08	; 8
    38c8:	0f b6       	in	r0, 0x3f	; 63
    38ca:	f8 94       	cli
    38cc:	9e bf       	out	0x3e, r25	; 62
    38ce:	0f be       	out	0x3f, r0	; 63
    38d0:	8d bf       	out	0x3d, r24	; 61
    38d2:	ed b7       	in	r30, 0x3d	; 61
    38d4:	fe b7       	in	r31, 0x3e	; 62
    38d6:	31 96       	adiw	r30, 0x01	; 1
    38d8:	ad b7       	in	r26, 0x3d	; 61
    38da:	be b7       	in	r27, 0x3e	; 62
    38dc:	12 96       	adiw	r26, 0x02	; 2
    38de:	1c 93       	st	X, r17
    38e0:	0e 93       	st	-X, r16
    38e2:	11 97       	sbiw	r26, 0x01	; 1
    38e4:	8c e8       	ldi	r24, 0x8C	; 140
    38e6:	90 e0       	ldi	r25, 0x00	; 0
    38e8:	93 83       	std	Z+3, r25	; 0x03
    38ea:	82 83       	std	Z+2, r24	; 0x02
    38ec:	d5 82       	std	Z+5, r13	; 0x05
    38ee:	c4 82       	std	Z+4, r12	; 0x04
    38f0:	f7 82       	std	Z+7, r15	; 0x07
    38f2:	e6 82       	std	Z+6, r14	; 0x06
    38f4:	0e 94 14 2a 	call	0x5428	; 0x5428 <xsprintf_p>
    38f8:	2d b7       	in	r18, 0x3d	; 61
    38fa:	3e b7       	in	r19, 0x3e	; 62
    38fc:	28 5f       	subi	r18, 0xF8	; 248
    38fe:	3f 4f       	sbci	r19, 0xFF	; 255
    3900:	0f b6       	in	r0, 0x3f	; 63
    3902:	f8 94       	cli
    3904:	3e bf       	out	0x3e, r19	; 62
    3906:	0f be       	out	0x3f, r0	; 63
    3908:	2d bf       	out	0x3d, r18	; 61
    390a:	89 e0       	ldi	r24, 0x09	; 9
    390c:	61 e0       	ldi	r22, 0x01	; 1
    390e:	0e 94 2c 26 	call	0x4c58	; 0x4c58 <ST7032i_setCursor>
    3912:	c8 01       	movw	r24, r16
    3914:	0e 94 6b 27 	call	0x4ed6	; 0x4ed6 <ST7032i_puts>
    3918:	82 e0       	ldi	r24, 0x02	; 2
    391a:	60 e4       	ldi	r22, 0x40	; 64
    391c:	0e 94 95 25 	call	0x4b2a	; 0x4b2a <ST7032i_Write>
    3920:	61 96       	adiw	r28, 0x11	; 17
    3922:	0f b6       	in	r0, 0x3f	; 63
    3924:	f8 94       	cli
    3926:	de bf       	out	0x3e, r29	; 62
    3928:	0f be       	out	0x3f, r0	; 63
    392a:	cd bf       	out	0x3d, r28	; 61
    392c:	df 91       	pop	r29
    392e:	cf 91       	pop	r28
    3930:	1f 91       	pop	r17
    3932:	0f 91       	pop	r16
    3934:	ff 90       	pop	r15
    3936:	ef 90       	pop	r14
    3938:	df 90       	pop	r13
    393a:	cf 90       	pop	r12
    393c:	08 95       	ret

0000393e <dispMessage>:
    393e:	0f 93       	push	r16
    3940:	1f 93       	push	r17
    3942:	cf 93       	push	r28
    3944:	df 93       	push	r29
    3946:	ec 01       	movw	r28, r24
    3948:	8b 01       	movw	r16, r22
    394a:	0e 94 1a 26 	call	0x4c34	; 0x4c34 <ST7032i_Clear>
    394e:	80 e0       	ldi	r24, 0x00	; 0
    3950:	60 e0       	ldi	r22, 0x00	; 0
    3952:	0e 94 2c 26 	call	0x4c58	; 0x4c58 <ST7032i_setCursor>
    3956:	ce 01       	movw	r24, r28
    3958:	0e 94 78 27 	call	0x4ef0	; 0x4ef0 <ST7032i_puts_p>
    395c:	80 e0       	ldi	r24, 0x00	; 0
    395e:	61 e0       	ldi	r22, 0x01	; 1
    3960:	0e 94 2c 26 	call	0x4c58	; 0x4c58 <ST7032i_setCursor>
    3964:	c8 01       	movw	r24, r16
    3966:	0e 94 78 27 	call	0x4ef0	; 0x4ef0 <ST7032i_puts_p>
    396a:	df 91       	pop	r29
    396c:	cf 91       	pop	r28
    396e:	1f 91       	pop	r17
    3970:	0f 91       	pop	r16
    3972:	08 95       	ret

00003974 <dispMessage2>:
    3974:	0f 93       	push	r16
    3976:	1f 93       	push	r17
    3978:	cf 93       	push	r28
    397a:	df 93       	push	r29
    397c:	ec 01       	movw	r28, r24
    397e:	8b 01       	movw	r16, r22
    3980:	0e 94 1a 26 	call	0x4c34	; 0x4c34 <ST7032i_Clear>
    3984:	80 e0       	ldi	r24, 0x00	; 0
    3986:	60 e0       	ldi	r22, 0x00	; 0
    3988:	0e 94 2c 26 	call	0x4c58	; 0x4c58 <ST7032i_setCursor>
    398c:	ce 01       	movw	r24, r28
    398e:	0e 94 78 27 	call	0x4ef0	; 0x4ef0 <ST7032i_puts_p>
    3992:	80 e0       	ldi	r24, 0x00	; 0
    3994:	61 e0       	ldi	r22, 0x01	; 1
    3996:	0e 94 2c 26 	call	0x4c58	; 0x4c58 <ST7032i_setCursor>
    399a:	c8 01       	movw	r24, r16
    399c:	0e 94 6b 27 	call	0x4ed6	; 0x4ed6 <ST7032i_puts>
    39a0:	df 91       	pop	r29
    39a2:	cf 91       	pop	r28
    39a4:	1f 91       	pop	r17
    39a6:	0f 91       	pop	r16
    39a8:	08 95       	ret

000039aa <setConfig>:
    39aa:	3f 92       	push	r3
    39ac:	4f 92       	push	r4
    39ae:	5f 92       	push	r5
    39b0:	6f 92       	push	r6
    39b2:	7f 92       	push	r7
    39b4:	8f 92       	push	r8
    39b6:	9f 92       	push	r9
    39b8:	af 92       	push	r10
    39ba:	bf 92       	push	r11
    39bc:	cf 92       	push	r12
    39be:	df 92       	push	r13
    39c0:	ef 92       	push	r14
    39c2:	ff 92       	push	r15
    39c4:	0f 93       	push	r16
    39c6:	1f 93       	push	r17
    39c8:	cf 93       	push	r28
    39ca:	df 93       	push	r29
    39cc:	cd b7       	in	r28, 0x3d	; 61
    39ce:	de b7       	in	r29, 0x3e	; 62
    39d0:	ab 97       	sbiw	r28, 0x2b	; 43
    39d2:	0f b6       	in	r0, 0x3f	; 63
    39d4:	f8 94       	cli
    39d6:	de bf       	out	0x3e, r29	; 62
    39d8:	0f be       	out	0x3f, r0	; 63
    39da:	cd bf       	out	0x3d, r28	; 61
    39dc:	38 2e       	mov	r3, r24
    39de:	4f 9b       	sbis	0x09, 7	; 9
    39e0:	fe cf       	rjmp	.-4      	; 0x39de <setConfig+0x34>
    39e2:	4d 9b       	sbis	0x09, 5	; 9
    39e4:	fc cf       	rjmp	.-8      	; 0x39de <setConfig+0x34>
    39e6:	00 e0       	ldi	r16, 0x00	; 0
    39e8:	8b e0       	ldi	r24, 0x0B	; 11
    39ea:	e8 2e       	mov	r14, r24
    39ec:	f1 2c       	mov	r15, r1
    39ee:	ec 0e       	add	r14, r28
    39f0:	fd 1e       	adc	r15, r29
    39f2:	95 eb       	ldi	r25, 0xB5	; 181
    39f4:	a9 2e       	mov	r10, r25
    39f6:	90 e0       	ldi	r25, 0x00	; 0
    39f8:	b9 2e       	mov	r11, r25
    39fa:	2d ed       	ldi	r18, 0xDD	; 221
    39fc:	c2 2e       	mov	r12, r18
    39fe:	27 e0       	ldi	r18, 0x07	; 7
    3a00:	d2 2e       	mov	r13, r18
    3a02:	3a eb       	ldi	r19, 0xBA	; 186
    3a04:	83 2e       	mov	r8, r19
    3a06:	30 e0       	ldi	r19, 0x00	; 0
    3a08:	93 2e       	mov	r9, r19
    3a0a:	43 e9       	ldi	r20, 0x93	; 147
    3a0c:	64 2e       	mov	r6, r20
    3a0e:	40 e0       	ldi	r20, 0x00	; 0
    3a10:	74 2e       	mov	r7, r20
    3a12:	55 ea       	ldi	r21, 0xA5	; 165
    3a14:	45 2e       	mov	r4, r21
    3a16:	50 e0       	ldi	r21, 0x00	; 0
    3a18:	55 2e       	mov	r5, r21
    3a1a:	01 30       	cpi	r16, 0x01	; 1
    3a1c:	09 f4       	brne	.+2      	; 0x3a20 <setConfig+0x76>
    3a1e:	73 c0       	rjmp	.+230    	; 0x3b06 <setConfig+0x15c>
    3a20:	02 30       	cpi	r16, 0x02	; 2
    3a22:	08 f0       	brcs	.+2      	; 0x3a26 <setConfig+0x7c>
    3a24:	c7 c0       	rjmp	.+398    	; 0x3bb4 <setConfig+0x20a>
    3a26:	ce 01       	movw	r24, r28
    3a28:	01 96       	adiw	r24, 0x01	; 1
    3a2a:	0e 94 a0 01 	call	0x340	; 0x340 <DS3231S_now>
    3a2e:	0e 94 1a 26 	call	0x4c34	; 0x4c34 <ST7032i_Clear>
    3a32:	0e 94 96 26 	call	0x4d2c	; 0x4d2c <ST7032i_onBlink>
    3a36:	80 e0       	ldi	r24, 0x00	; 0
    3a38:	60 e0       	ldi	r22, 0x00	; 0
    3a3a:	0e 94 2c 26 	call	0x4c58	; 0x4c58 <ST7032i_setCursor>
    3a3e:	2d b7       	in	r18, 0x3d	; 61
    3a40:	3e b7       	in	r19, 0x3e	; 62
    3a42:	2c 50       	subi	r18, 0x0C	; 12
    3a44:	30 40       	sbci	r19, 0x00	; 0
    3a46:	0f b6       	in	r0, 0x3f	; 63
    3a48:	f8 94       	cli
    3a4a:	3e bf       	out	0x3e, r19	; 62
    3a4c:	0f be       	out	0x3f, r0	; 63
    3a4e:	2d bf       	out	0x3d, r18	; 61
    3a50:	ed b7       	in	r30, 0x3d	; 61
    3a52:	fe b7       	in	r31, 0x3e	; 62
    3a54:	31 96       	adiw	r30, 0x01	; 1
    3a56:	ad b7       	in	r26, 0x3d	; 61
    3a58:	be b7       	in	r27, 0x3e	; 62
    3a5a:	12 96       	adiw	r26, 0x02	; 2
    3a5c:	fc 92       	st	X, r15
    3a5e:	ee 92       	st	-X, r14
    3a60:	11 97       	sbiw	r26, 0x01	; 1
    3a62:	73 82       	std	Z+3, r7	; 0x03
    3a64:	62 82       	std	Z+2, r6	; 0x02
    3a66:	8e 81       	ldd	r24, Y+6	; 0x06
    3a68:	9f 81       	ldd	r25, Y+7	; 0x07
    3a6a:	95 83       	std	Z+5, r25	; 0x05
    3a6c:	84 83       	std	Z+4, r24	; 0x04
    3a6e:	8d 81       	ldd	r24, Y+5	; 0x05
    3a70:	86 83       	std	Z+6, r24	; 0x06
    3a72:	17 82       	std	Z+7, r1	; 0x07
    3a74:	8c 81       	ldd	r24, Y+4	; 0x04
    3a76:	80 87       	std	Z+8, r24	; 0x08
    3a78:	11 86       	std	Z+9, r1	; 0x09
    3a7a:	88 85       	ldd	r24, Y+8	; 0x08
    3a7c:	90 e0       	ldi	r25, 0x00	; 0
    3a7e:	88 0f       	add	r24, r24
    3a80:	99 1f       	adc	r25, r25
    3a82:	88 0f       	add	r24, r24
    3a84:	99 1f       	adc	r25, r25
    3a86:	87 5b       	subi	r24, 0xB7	; 183
    3a88:	9e 4f       	sbci	r25, 0xFE	; 254
    3a8a:	93 87       	std	Z+11, r25	; 0x0b
    3a8c:	82 87       	std	Z+10, r24	; 0x0a
    3a8e:	0e 94 14 2a 	call	0x5428	; 0x5428 <xsprintf_p>
    3a92:	2d b7       	in	r18, 0x3d	; 61
    3a94:	3e b7       	in	r19, 0x3e	; 62
    3a96:	24 5f       	subi	r18, 0xF4	; 244
    3a98:	3f 4f       	sbci	r19, 0xFF	; 255
    3a9a:	0f b6       	in	r0, 0x3f	; 63
    3a9c:	f8 94       	cli
    3a9e:	3e bf       	out	0x3e, r19	; 62
    3aa0:	0f be       	out	0x3f, r0	; 63
    3aa2:	2d bf       	out	0x3d, r18	; 61
    3aa4:	c7 01       	movw	r24, r14
    3aa6:	0e 94 6b 27 	call	0x4ed6	; 0x4ed6 <ST7032i_puts>
    3aaa:	80 e0       	ldi	r24, 0x00	; 0
    3aac:	61 e0       	ldi	r22, 0x01	; 1
    3aae:	0e 94 2c 26 	call	0x4c58	; 0x4c58 <ST7032i_setCursor>
    3ab2:	8d b7       	in	r24, 0x3d	; 61
    3ab4:	9e b7       	in	r25, 0x3e	; 62
    3ab6:	0a 97       	sbiw	r24, 0x0a	; 10
    3ab8:	0f b6       	in	r0, 0x3f	; 63
    3aba:	f8 94       	cli
    3abc:	9e bf       	out	0x3e, r25	; 62
    3abe:	0f be       	out	0x3f, r0	; 63
    3ac0:	8d bf       	out	0x3d, r24	; 61
    3ac2:	ed b7       	in	r30, 0x3d	; 61
    3ac4:	fe b7       	in	r31, 0x3e	; 62
    3ac6:	31 96       	adiw	r30, 0x01	; 1
    3ac8:	ad b7       	in	r26, 0x3d	; 61
    3aca:	be b7       	in	r27, 0x3e	; 62
    3acc:	12 96       	adiw	r26, 0x02	; 2
    3ace:	fc 92       	st	X, r15
    3ad0:	ee 92       	st	-X, r14
    3ad2:	11 97       	sbiw	r26, 0x01	; 1
    3ad4:	53 82       	std	Z+3, r5	; 0x03
    3ad6:	42 82       	std	Z+2, r4	; 0x02
    3ad8:	8b 81       	ldd	r24, Y+3	; 0x03
    3ada:	84 83       	std	Z+4, r24	; 0x04
    3adc:	15 82       	std	Z+5, r1	; 0x05
    3ade:	8a 81       	ldd	r24, Y+2	; 0x02
    3ae0:	86 83       	std	Z+6, r24	; 0x06
    3ae2:	17 82       	std	Z+7, r1	; 0x07
    3ae4:	89 81       	ldd	r24, Y+1	; 0x01
    3ae6:	80 87       	std	Z+8, r24	; 0x08
    3ae8:	11 86       	std	Z+9, r1	; 0x09
    3aea:	0e 94 14 2a 	call	0x5428	; 0x5428 <xsprintf_p>
    3aee:	2d b7       	in	r18, 0x3d	; 61
    3af0:	3e b7       	in	r19, 0x3e	; 62
    3af2:	26 5f       	subi	r18, 0xF6	; 246
    3af4:	3f 4f       	sbci	r19, 0xFF	; 255
    3af6:	0f b6       	in	r0, 0x3f	; 63
    3af8:	f8 94       	cli
    3afa:	3e bf       	out	0x3e, r19	; 62
    3afc:	0f be       	out	0x3f, r0	; 63
    3afe:	2d bf       	out	0x3d, r18	; 61
    3b00:	c7 01       	movw	r24, r14
    3b02:	0e 94 6b 27 	call	0x4ed6	; 0x4ed6 <ST7032i_puts>
    3b06:	80 e0       	ldi	r24, 0x00	; 0
    3b08:	60 e0       	ldi	r22, 0x00	; 0
    3b0a:	0e 94 2c 26 	call	0x4c58	; 0x4c58 <ST7032i_setCursor>
    3b0e:	4d 99       	sbic	0x09, 5	; 9
    3b10:	42 c0       	rjmp	.+132    	; 0x3b96 <setConfig+0x1ec>
    3b12:	82 e3       	ldi	r24, 0x32	; 50
    3b14:	90 e0       	ldi	r25, 0x00	; 0
    3b16:	61 e0       	ldi	r22, 0x01	; 1
    3b18:	0e 94 cf 19 	call	0x339e	; 0x339e <beep>
    3b1c:	8e 81       	ldd	r24, Y+6	; 0x06
    3b1e:	9f 81       	ldd	r25, Y+7	; 0x07
    3b20:	01 96       	adiw	r24, 0x01	; 1
    3b22:	9f 83       	std	Y+7, r25	; 0x07
    3b24:	8e 83       	std	Y+6, r24	; 0x06
    3b26:	38 e0       	ldi	r19, 0x08	; 8
    3b28:	84 33       	cpi	r24, 0x34	; 52
    3b2a:	93 07       	cpc	r25, r19
    3b2c:	10 f0       	brcs	.+4      	; 0x3b32 <setConfig+0x188>
    3b2e:	df 82       	std	Y+7, r13	; 0x07
    3b30:	ce 82       	std	Y+6, r12	; 0x06
    3b32:	10 e0       	ldi	r17, 0x00	; 0
    3b34:	15 c0       	rjmp	.+42     	; 0x3b60 <setConfig+0x1b6>
    3b36:	82 e3       	ldi	r24, 0x32	; 50
    3b38:	90 e0       	ldi	r25, 0x00	; 0
    3b3a:	61 e0       	ldi	r22, 0x01	; 1
    3b3c:	0e 94 cf 19 	call	0x339e	; 0x339e <beep>
    3b40:	84 e6       	ldi	r24, 0x64	; 100
    3b42:	90 e0       	ldi	r25, 0x00	; 0
    3b44:	0e 94 2e 01 	call	0x25c	; 0x25c <wait_ms>
    3b48:	81 2f       	mov	r24, r17
    3b4a:	8f 5f       	subi	r24, 0xFF	; 255
    3b4c:	12 50       	subi	r17, 0x02	; 2
    3b4e:	17 30       	cpi	r17, 0x07	; 7
    3b50:	18 f4       	brcc	.+6      	; 0x3b58 <setConfig+0x1ae>
    3b52:	df 82       	std	Y+7, r13	; 0x07
    3b54:	ce 82       	std	Y+6, r12	; 0x06
    3b56:	03 c0       	rjmp	.+6      	; 0x3b5e <setConfig+0x1b4>
    3b58:	8a 30       	cpi	r24, 0x0A	; 10
    3b5a:	08 f0       	brcs	.+2      	; 0x3b5e <setConfig+0x1b4>
    3b5c:	3f c2       	rjmp	.+1150   	; 0x3fdc <setConfig+0x632>
    3b5e:	18 2f       	mov	r17, r24
    3b60:	4d 9b       	sbis	0x09, 5	; 9
    3b62:	e9 cf       	rjmp	.-46     	; 0x3b36 <setConfig+0x18c>
    3b64:	00 d0       	rcall	.+0      	; 0x3b66 <setConfig+0x1bc>
    3b66:	00 d0       	rcall	.+0      	; 0x3b68 <setConfig+0x1be>
    3b68:	00 d0       	rcall	.+0      	; 0x3b6a <setConfig+0x1c0>
    3b6a:	ed b7       	in	r30, 0x3d	; 61
    3b6c:	fe b7       	in	r31, 0x3e	; 62
    3b6e:	31 96       	adiw	r30, 0x01	; 1
    3b70:	ad b7       	in	r26, 0x3d	; 61
    3b72:	be b7       	in	r27, 0x3e	; 62
    3b74:	12 96       	adiw	r26, 0x02	; 2
    3b76:	fc 92       	st	X, r15
    3b78:	ee 92       	st	-X, r14
    3b7a:	11 97       	sbiw	r26, 0x01	; 1
    3b7c:	b3 82       	std	Z+3, r11	; 0x03
    3b7e:	a2 82       	std	Z+2, r10	; 0x02
    3b80:	8e 81       	ldd	r24, Y+6	; 0x06
    3b82:	9f 81       	ldd	r25, Y+7	; 0x07
    3b84:	95 83       	std	Z+5, r25	; 0x05
    3b86:	84 83       	std	Z+4, r24	; 0x04
    3b88:	0e 94 14 2a 	call	0x5428	; 0x5428 <xsprintf_p>
    3b8c:	2d b7       	in	r18, 0x3d	; 61
    3b8e:	3e b7       	in	r19, 0x3e	; 62
    3b90:	2a 5f       	subi	r18, 0xFA	; 250
    3b92:	3f 4f       	sbci	r19, 0xFF	; 255
    3b94:	b0 cf       	rjmp	.-160    	; 0x3af6 <setConfig+0x14c>
    3b96:	4f 99       	sbic	0x09, 7	; 9
    3b98:	b6 cf       	rjmp	.-148    	; 0x3b06 <setConfig+0x15c>
    3b9a:	82 e3       	ldi	r24, 0x32	; 50
    3b9c:	90 e0       	ldi	r25, 0x00	; 0
    3b9e:	61 e0       	ldi	r22, 0x01	; 1
    3ba0:	0e 94 cf 19 	call	0x339e	; 0x339e <beep>
    3ba4:	04 c0       	rjmp	.+8      	; 0x3bae <setConfig+0x204>
    3ba6:	84 e6       	ldi	r24, 0x64	; 100
    3ba8:	90 e0       	ldi	r25, 0x00	; 0
    3baa:	0e 94 2e 01 	call	0x25c	; 0x25c <wait_ms>
    3bae:	4f 9b       	sbis	0x09, 7	; 9
    3bb0:	fa cf       	rjmp	.-12     	; 0x3ba6 <setConfig+0x1fc>
    3bb2:	02 e0       	ldi	r16, 0x02	; 2
    3bb4:	85 e0       	ldi	r24, 0x05	; 5
    3bb6:	60 e0       	ldi	r22, 0x00	; 0
    3bb8:	0e 94 2c 26 	call	0x4c58	; 0x4c58 <ST7032i_setCursor>
    3bbc:	4d 99       	sbic	0x09, 5	; 9
    3bbe:	45 c0       	rjmp	.+138    	; 0x3c4a <setConfig+0x2a0>
    3bc0:	82 e3       	ldi	r24, 0x32	; 50
    3bc2:	90 e0       	ldi	r25, 0x00	; 0
    3bc4:	61 e0       	ldi	r22, 0x01	; 1
    3bc6:	0e 94 cf 19 	call	0x339e	; 0x339e <beep>
    3bca:	8d 81       	ldd	r24, Y+5	; 0x05
    3bcc:	8f 5f       	subi	r24, 0xFF	; 255
    3bce:	8d 83       	std	Y+5, r24	; 0x05
    3bd0:	8d 30       	cpi	r24, 0x0D	; 13
    3bd2:	10 f0       	brcs	.+4      	; 0x3bd8 <setConfig+0x22e>
    3bd4:	81 e0       	ldi	r24, 0x01	; 1
    3bd6:	8d 83       	std	Y+5, r24	; 0x05
    3bd8:	10 e0       	ldi	r17, 0x00	; 0
    3bda:	15 c0       	rjmp	.+42     	; 0x3c06 <setConfig+0x25c>
    3bdc:	82 e3       	ldi	r24, 0x32	; 50
    3bde:	90 e0       	ldi	r25, 0x00	; 0
    3be0:	61 e0       	ldi	r22, 0x01	; 1
    3be2:	0e 94 cf 19 	call	0x339e	; 0x339e <beep>
    3be6:	84 e6       	ldi	r24, 0x64	; 100
    3be8:	90 e0       	ldi	r25, 0x00	; 0
    3bea:	0e 94 2e 01 	call	0x25c	; 0x25c <wait_ms>
    3bee:	81 2f       	mov	r24, r17
    3bf0:	8f 5f       	subi	r24, 0xFF	; 255
    3bf2:	12 50       	subi	r17, 0x02	; 2
    3bf4:	17 30       	cpi	r17, 0x07	; 7
    3bf6:	18 f4       	brcc	.+6      	; 0x3bfe <setConfig+0x254>
    3bf8:	91 e0       	ldi	r25, 0x01	; 1
    3bfa:	9d 83       	std	Y+5, r25	; 0x05
    3bfc:	03 c0       	rjmp	.+6      	; 0x3c04 <setConfig+0x25a>
    3bfe:	8a 30       	cpi	r24, 0x0A	; 10
    3c00:	08 f0       	brcs	.+2      	; 0x3c04 <setConfig+0x25a>
    3c02:	ec c1       	rjmp	.+984    	; 0x3fdc <setConfig+0x632>
    3c04:	18 2f       	mov	r17, r24
    3c06:	4d 9b       	sbis	0x09, 5	; 9
    3c08:	e9 cf       	rjmp	.-46     	; 0x3bdc <setConfig+0x232>
    3c0a:	00 d0       	rcall	.+0      	; 0x3c0c <setConfig+0x262>
    3c0c:	00 d0       	rcall	.+0      	; 0x3c0e <setConfig+0x264>
    3c0e:	00 d0       	rcall	.+0      	; 0x3c10 <setConfig+0x266>
    3c10:	ed b7       	in	r30, 0x3d	; 61
    3c12:	fe b7       	in	r31, 0x3e	; 62
    3c14:	31 96       	adiw	r30, 0x01	; 1
    3c16:	ad b7       	in	r26, 0x3d	; 61
    3c18:	be b7       	in	r27, 0x3e	; 62
    3c1a:	12 96       	adiw	r26, 0x02	; 2
    3c1c:	fc 92       	st	X, r15
    3c1e:	ee 92       	st	-X, r14
    3c20:	11 97       	sbiw	r26, 0x01	; 1
    3c22:	93 82       	std	Z+3, r9	; 0x03
    3c24:	82 82       	std	Z+2, r8	; 0x02
    3c26:	8d 81       	ldd	r24, Y+5	; 0x05
    3c28:	84 83       	std	Z+4, r24	; 0x04
    3c2a:	15 82       	std	Z+5, r1	; 0x05
    3c2c:	0e 94 14 2a 	call	0x5428	; 0x5428 <xsprintf_p>
    3c30:	2d b7       	in	r18, 0x3d	; 61
    3c32:	3e b7       	in	r19, 0x3e	; 62
    3c34:	2a 5f       	subi	r18, 0xFA	; 250
    3c36:	3f 4f       	sbci	r19, 0xFF	; 255
    3c38:	0f b6       	in	r0, 0x3f	; 63
    3c3a:	f8 94       	cli
    3c3c:	3e bf       	out	0x3e, r19	; 62
    3c3e:	0f be       	out	0x3f, r0	; 63
    3c40:	2d bf       	out	0x3d, r18	; 61
    3c42:	c7 01       	movw	r24, r14
    3c44:	0e 94 6b 27 	call	0x4ed6	; 0x4ed6 <ST7032i_puts>
    3c48:	e8 ce       	rjmp	.-560    	; 0x3a1a <setConfig+0x70>
    3c4a:	4f 99       	sbic	0x09, 7	; 9
    3c4c:	e6 ce       	rjmp	.-564    	; 0x3a1a <setConfig+0x70>
    3c4e:	82 e3       	ldi	r24, 0x32	; 50
    3c50:	90 e0       	ldi	r25, 0x00	; 0
    3c52:	61 e0       	ldi	r22, 0x01	; 1
    3c54:	0e 94 cf 19 	call	0x339e	; 0x339e <beep>
    3c58:	04 c0       	rjmp	.+8      	; 0x3c62 <setConfig+0x2b8>
    3c5a:	84 e6       	ldi	r24, 0x64	; 100
    3c5c:	90 e0       	ldi	r25, 0x00	; 0
    3c5e:	0e 94 2e 01 	call	0x25c	; 0x25c <wait_ms>
    3c62:	4f 9b       	sbis	0x09, 7	; 9
    3c64:	fa cf       	rjmp	.-12     	; 0x3c5a <setConfig+0x2b0>
    3c66:	3e e1       	ldi	r19, 0x1E	; 30
    3c68:	e3 2e       	mov	r14, r19
    3c6a:	8e 01       	movw	r16, r28
    3c6c:	05 5f       	subi	r16, 0xF5	; 245
    3c6e:	1f 4f       	sbci	r17, 0xFF	; 255
    3c70:	4f eb       	ldi	r20, 0xBF	; 191
    3c72:	a4 2e       	mov	r10, r20
    3c74:	40 e0       	ldi	r20, 0x00	; 0
    3c76:	b4 2e       	mov	r11, r20
    3c78:	5f e1       	ldi	r21, 0x1F	; 31
    3c7a:	f5 2e       	mov	r15, r21
    3c7c:	60 e9       	ldi	r22, 0x90	; 144
    3c7e:	86 2e       	mov	r8, r22
    3c80:	61 e0       	ldi	r22, 0x01	; 1
    3c82:	96 2e       	mov	r9, r22
    3c84:	7d e1       	ldi	r23, 0x1D	; 29
    3c86:	d7 2e       	mov	r13, r23
    3c88:	ec e1       	ldi	r30, 0x1C	; 28
    3c8a:	ce 2e       	mov	r12, r30
    3c8c:	88 e0       	ldi	r24, 0x08	; 8
    3c8e:	60 e0       	ldi	r22, 0x00	; 0
    3c90:	0e 94 2c 26 	call	0x4c58	; 0x4c58 <ST7032i_setCursor>
    3c94:	4d 99       	sbic	0x09, 5	; 9
    3c96:	98 c0       	rjmp	.+304    	; 0x3dc8 <setConfig+0x41e>
    3c98:	82 e3       	ldi	r24, 0x32	; 50
    3c9a:	90 e0       	ldi	r25, 0x00	; 0
    3c9c:	61 e0       	ldi	r22, 0x01	; 1
    3c9e:	0e 94 cf 19 	call	0x339e	; 0x339e <beep>
    3ca2:	2c 81       	ldd	r18, Y+4	; 0x04
    3ca4:	2f 5f       	subi	r18, 0xFF	; 255
    3ca6:	2c 83       	std	Y+4, r18	; 0x04
    3ca8:	8d 81       	ldd	r24, Y+5	; 0x05
    3caa:	86 30       	cpi	r24, 0x06	; 6
    3cac:	f9 f0       	breq	.+62     	; 0x3cec <setConfig+0x342>
    3cae:	87 30       	cpi	r24, 0x07	; 7
    3cb0:	70 f4       	brcc	.+28     	; 0x3cce <setConfig+0x324>
    3cb2:	83 30       	cpi	r24, 0x03	; 3
    3cb4:	b1 f0       	breq	.+44     	; 0x3ce2 <setConfig+0x338>
    3cb6:	84 30       	cpi	r24, 0x04	; 4
    3cb8:	28 f4       	brcc	.+10     	; 0x3cc4 <setConfig+0x31a>
    3cba:	81 30       	cpi	r24, 0x01	; 1
    3cbc:	91 f0       	breq	.+36     	; 0x3ce2 <setConfig+0x338>
    3cbe:	82 30       	cpi	r24, 0x02	; 2
    3cc0:	99 f4       	brne	.+38     	; 0x3ce8 <setConfig+0x33e>
    3cc2:	18 c0       	rjmp	.+48     	; 0x3cf4 <setConfig+0x34a>
    3cc4:	84 30       	cpi	r24, 0x04	; 4
    3cc6:	91 f0       	breq	.+36     	; 0x3cec <setConfig+0x342>
    3cc8:	85 30       	cpi	r24, 0x05	; 5
    3cca:	71 f4       	brne	.+28     	; 0x3ce8 <setConfig+0x33e>
    3ccc:	0a c0       	rjmp	.+20     	; 0x3ce2 <setConfig+0x338>
    3cce:	89 30       	cpi	r24, 0x09	; 9
    3cd0:	69 f0       	breq	.+26     	; 0x3cec <setConfig+0x342>
    3cd2:	89 30       	cpi	r24, 0x09	; 9
    3cd4:	30 f0       	brcs	.+12     	; 0x3ce2 <setConfig+0x338>
    3cd6:	8b 30       	cpi	r24, 0x0B	; 11
    3cd8:	49 f0       	breq	.+18     	; 0x3cec <setConfig+0x342>
    3cda:	8b 30       	cpi	r24, 0x0B	; 11
    3cdc:	10 f0       	brcs	.+4      	; 0x3ce2 <setConfig+0x338>
    3cde:	8c 30       	cpi	r24, 0x0C	; 12
    3ce0:	19 f4       	brne	.+6      	; 0x3ce8 <setConfig+0x33e>
    3ce2:	2f 31       	cpi	r18, 0x1F	; 31
    3ce4:	08 f0       	brcs	.+2      	; 0x3ce8 <setConfig+0x33e>
    3ce6:	fc 82       	std	Y+4, r15	; 0x04
    3ce8:	20 e0       	ldi	r18, 0x00	; 0
    3cea:	37 c0       	rjmp	.+110    	; 0x3d5a <setConfig+0x3b0>
    3cec:	2e 31       	cpi	r18, 0x1E	; 30
    3cee:	e0 f3       	brcs	.-8      	; 0x3ce8 <setConfig+0x33e>
    3cf0:	ec 82       	std	Y+4, r14	; 0x04
    3cf2:	fa cf       	rjmp	.-12     	; 0x3ce8 <setConfig+0x33e>
    3cf4:	ee 81       	ldd	r30, Y+6	; 0x06
    3cf6:	ff 81       	ldd	r31, Y+7	; 0x07
    3cf8:	cf 01       	movw	r24, r30
    3cfa:	b4 01       	movw	r22, r8
    3cfc:	0e 94 14 2f 	call	0x5e28	; 0x5e28 <__udivmodhi4>
    3d00:	00 97       	sbiw	r24, 0x00	; 0
    3d02:	61 f0       	breq	.+24     	; 0x3d1c <setConfig+0x372>
    3d04:	cf 01       	movw	r24, r30
    3d06:	83 70       	andi	r24, 0x03	; 3
    3d08:	90 70       	andi	r25, 0x00	; 0
    3d0a:	00 97       	sbiw	r24, 0x00	; 0
    3d0c:	59 f4       	brne	.+22     	; 0x3d24 <setConfig+0x37a>
    3d0e:	cf 01       	movw	r24, r30
    3d10:	64 e6       	ldi	r22, 0x64	; 100
    3d12:	70 e0       	ldi	r23, 0x00	; 0
    3d14:	0e 94 14 2f 	call	0x5e28	; 0x5e28 <__udivmodhi4>
    3d18:	00 97       	sbiw	r24, 0x00	; 0
    3d1a:	21 f0       	breq	.+8      	; 0x3d24 <setConfig+0x37a>
    3d1c:	2d 31       	cpi	r18, 0x1D	; 29
    3d1e:	20 f3       	brcs	.-56     	; 0x3ce8 <setConfig+0x33e>
    3d20:	dc 82       	std	Y+4, r13	; 0x04
    3d22:	e2 cf       	rjmp	.-60     	; 0x3ce8 <setConfig+0x33e>
    3d24:	2c 31       	cpi	r18, 0x1C	; 28
    3d26:	00 f3       	brcs	.-64     	; 0x3ce8 <setConfig+0x33e>
    3d28:	cc 82       	std	Y+4, r12	; 0x04
    3d2a:	de cf       	rjmp	.-68     	; 0x3ce8 <setConfig+0x33e>
    3d2c:	82 e3       	ldi	r24, 0x32	; 50
    3d2e:	90 e0       	ldi	r25, 0x00	; 0
    3d30:	61 e0       	ldi	r22, 0x01	; 1
    3d32:	2b a7       	lds	r18, 0x7b
    3d34:	0e 94 cf 19 	call	0x339e	; 0x339e <beep>
    3d38:	84 e6       	ldi	r24, 0x64	; 100
    3d3a:	90 e0       	ldi	r25, 0x00	; 0
    3d3c:	0e 94 2e 01 	call	0x25c	; 0x25c <wait_ms>
    3d40:	2b a5       	lds	r18, 0x6b
    3d42:	82 2f       	mov	r24, r18
    3d44:	8f 5f       	subi	r24, 0xFF	; 255
    3d46:	22 50       	subi	r18, 0x02	; 2
    3d48:	27 30       	cpi	r18, 0x07	; 7
    3d4a:	18 f4       	brcc	.+6      	; 0x3d52 <setConfig+0x3a8>
    3d4c:	91 e0       	ldi	r25, 0x01	; 1
    3d4e:	9c 83       	std	Y+4, r25	; 0x04
    3d50:	03 c0       	rjmp	.+6      	; 0x3d58 <setConfig+0x3ae>
    3d52:	8a 30       	cpi	r24, 0x0A	; 10
    3d54:	08 f0       	brcs	.+2      	; 0x3d58 <setConfig+0x3ae>
    3d56:	42 c1       	rjmp	.+644    	; 0x3fdc <setConfig+0x632>
    3d58:	28 2f       	mov	r18, r24
    3d5a:	4d 9b       	sbis	0x09, 5	; 9
    3d5c:	e7 cf       	rjmp	.-50     	; 0x3d2c <setConfig+0x382>
    3d5e:	6d 81       	ldd	r22, Y+5	; 0x05
    3d60:	4c 81       	ldd	r20, Y+4	; 0x04
    3d62:	8e 81       	ldd	r24, Y+6	; 0x06
    3d64:	9f 81       	ldd	r25, Y+7	; 0x07
    3d66:	70 e0       	ldi	r23, 0x00	; 0
    3d68:	50 e0       	ldi	r21, 0x00	; 0
    3d6a:	0e 94 f1 28 	call	0x51e2	; 0x51e2 <getWeekday>
    3d6e:	88 87       	std	Y+8, r24	; 0x08
    3d70:	ad b7       	in	r26, 0x3d	; 61
    3d72:	be b7       	in	r27, 0x3e	; 62
    3d74:	18 97       	sbiw	r26, 0x08	; 8
    3d76:	0f b6       	in	r0, 0x3f	; 63
    3d78:	f8 94       	cli
    3d7a:	be bf       	out	0x3e, r27	; 62
    3d7c:	0f be       	out	0x3f, r0	; 63
    3d7e:	ad bf       	out	0x3d, r26	; 61
    3d80:	ed b7       	in	r30, 0x3d	; 61
    3d82:	fe b7       	in	r31, 0x3e	; 62
    3d84:	31 96       	adiw	r30, 0x01	; 1
    3d86:	12 96       	adiw	r26, 0x02	; 2
    3d88:	1c 93       	st	X, r17
    3d8a:	0e 93       	st	-X, r16
    3d8c:	11 97       	sbiw	r26, 0x01	; 1
    3d8e:	b3 82       	std	Z+3, r11	; 0x03
    3d90:	a2 82       	std	Z+2, r10	; 0x02
    3d92:	9c 81       	ldd	r25, Y+4	; 0x04
    3d94:	94 83       	std	Z+4, r25	; 0x04
    3d96:	15 82       	std	Z+5, r1	; 0x05
    3d98:	90 e0       	ldi	r25, 0x00	; 0
    3d9a:	88 0f       	add	r24, r24
    3d9c:	99 1f       	adc	r25, r25
    3d9e:	88 0f       	add	r24, r24
    3da0:	99 1f       	adc	r25, r25
    3da2:	87 5b       	subi	r24, 0xB7	; 183
    3da4:	9e 4f       	sbci	r25, 0xFE	; 254
    3da6:	97 83       	std	Z+7, r25	; 0x07
    3da8:	86 83       	std	Z+6, r24	; 0x06
    3daa:	0e 94 14 2a 	call	0x5428	; 0x5428 <xsprintf_p>
    3dae:	2d b7       	in	r18, 0x3d	; 61
    3db0:	3e b7       	in	r19, 0x3e	; 62
    3db2:	28 5f       	subi	r18, 0xF8	; 248
    3db4:	3f 4f       	sbci	r19, 0xFF	; 255
    3db6:	0f b6       	in	r0, 0x3f	; 63
    3db8:	f8 94       	cli
    3dba:	3e bf       	out	0x3e, r19	; 62
    3dbc:	0f be       	out	0x3f, r0	; 63
    3dbe:	2d bf       	out	0x3d, r18	; 61
    3dc0:	c8 01       	movw	r24, r16
    3dc2:	0e 94 6b 27 	call	0x4ed6	; 0x4ed6 <ST7032i_puts>
    3dc6:	62 cf       	rjmp	.-316    	; 0x3c8c <setConfig+0x2e2>
    3dc8:	4f 99       	sbic	0x09, 7	; 9
    3dca:	60 cf       	rjmp	.-320    	; 0x3c8c <setConfig+0x2e2>
    3dcc:	82 e3       	ldi	r24, 0x32	; 50
    3dce:	90 e0       	ldi	r25, 0x00	; 0
    3dd0:	61 e0       	ldi	r22, 0x01	; 1
    3dd2:	0e 94 cf 19 	call	0x339e	; 0x339e <beep>
    3dd6:	04 c0       	rjmp	.+8      	; 0x3de0 <setConfig+0x436>
    3dd8:	84 e6       	ldi	r24, 0x64	; 100
    3dda:	90 e0       	ldi	r25, 0x00	; 0
    3ddc:	0e 94 2e 01 	call	0x25c	; 0x25c <wait_ms>
    3de0:	4f 9b       	sbis	0x09, 7	; 9
    3de2:	fa cf       	rjmp	.-12     	; 0x3dd8 <setConfig+0x42e>
    3de4:	8e 01       	movw	r16, r28
    3de6:	05 5f       	subi	r16, 0xF5	; 245
    3de8:	1f 4f       	sbci	r17, 0xFF	; 255
    3dea:	a7 ec       	ldi	r26, 0xC7	; 199
    3dec:	ea 2e       	mov	r14, r26
    3dee:	a0 e0       	ldi	r26, 0x00	; 0
    3df0:	fa 2e       	mov	r15, r26
    3df2:	80 e0       	ldi	r24, 0x00	; 0
    3df4:	61 e0       	ldi	r22, 0x01	; 1
    3df6:	0e 94 2c 26 	call	0x4c58	; 0x4c58 <ST7032i_setCursor>
    3dfa:	4d 99       	sbic	0x09, 5	; 9
    3dfc:	45 c0       	rjmp	.+138    	; 0x3e88 <setConfig+0x4de>
    3dfe:	82 e3       	ldi	r24, 0x32	; 50
    3e00:	90 e0       	ldi	r25, 0x00	; 0
    3e02:	61 e0       	ldi	r22, 0x01	; 1
    3e04:	0e 94 cf 19 	call	0x339e	; 0x339e <beep>
    3e08:	8b 81       	ldd	r24, Y+3	; 0x03
    3e0a:	8f 5f       	subi	r24, 0xFF	; 255
    3e0c:	8b 83       	std	Y+3, r24	; 0x03
    3e0e:	88 31       	cpi	r24, 0x18	; 24
    3e10:	08 f0       	brcs	.+2      	; 0x3e14 <setConfig+0x46a>
    3e12:	1b 82       	std	Y+3, r1	; 0x03
    3e14:	20 e0       	ldi	r18, 0x00	; 0
    3e16:	16 c0       	rjmp	.+44     	; 0x3e44 <setConfig+0x49a>
    3e18:	82 e3       	ldi	r24, 0x32	; 50
    3e1a:	90 e0       	ldi	r25, 0x00	; 0
    3e1c:	61 e0       	ldi	r22, 0x01	; 1
    3e1e:	2b a7       	lds	r18, 0x7b
    3e20:	0e 94 cf 19 	call	0x339e	; 0x339e <beep>
    3e24:	84 e6       	ldi	r24, 0x64	; 100
    3e26:	90 e0       	ldi	r25, 0x00	; 0
    3e28:	0e 94 2e 01 	call	0x25c	; 0x25c <wait_ms>
    3e2c:	2b a5       	lds	r18, 0x6b
    3e2e:	82 2f       	mov	r24, r18
    3e30:	8f 5f       	subi	r24, 0xFF	; 255
    3e32:	22 50       	subi	r18, 0x02	; 2
    3e34:	27 30       	cpi	r18, 0x07	; 7
    3e36:	10 f4       	brcc	.+4      	; 0x3e3c <setConfig+0x492>
    3e38:	1b 82       	std	Y+3, r1	; 0x03
    3e3a:	03 c0       	rjmp	.+6      	; 0x3e42 <setConfig+0x498>
    3e3c:	8a 30       	cpi	r24, 0x0A	; 10
    3e3e:	08 f0       	brcs	.+2      	; 0x3e42 <setConfig+0x498>
    3e40:	cd c0       	rjmp	.+410    	; 0x3fdc <setConfig+0x632>
    3e42:	28 2f       	mov	r18, r24
    3e44:	4d 9b       	sbis	0x09, 5	; 9
    3e46:	e8 cf       	rjmp	.-48     	; 0x3e18 <setConfig+0x46e>
    3e48:	00 d0       	rcall	.+0      	; 0x3e4a <setConfig+0x4a0>
    3e4a:	00 d0       	rcall	.+0      	; 0x3e4c <setConfig+0x4a2>
    3e4c:	00 d0       	rcall	.+0      	; 0x3e4e <setConfig+0x4a4>
    3e4e:	ed b7       	in	r30, 0x3d	; 61
    3e50:	fe b7       	in	r31, 0x3e	; 62
    3e52:	31 96       	adiw	r30, 0x01	; 1
    3e54:	ad b7       	in	r26, 0x3d	; 61
    3e56:	be b7       	in	r27, 0x3e	; 62
    3e58:	12 96       	adiw	r26, 0x02	; 2
    3e5a:	1c 93       	st	X, r17
    3e5c:	0e 93       	st	-X, r16
    3e5e:	11 97       	sbiw	r26, 0x01	; 1
    3e60:	f3 82       	std	Z+3, r15	; 0x03
    3e62:	e2 82       	std	Z+2, r14	; 0x02
    3e64:	8b 81       	ldd	r24, Y+3	; 0x03
    3e66:	84 83       	std	Z+4, r24	; 0x04
    3e68:	15 82       	std	Z+5, r1	; 0x05
    3e6a:	0e 94 14 2a 	call	0x5428	; 0x5428 <xsprintf_p>
    3e6e:	2d b7       	in	r18, 0x3d	; 61
    3e70:	3e b7       	in	r19, 0x3e	; 62
    3e72:	2a 5f       	subi	r18, 0xFA	; 250
    3e74:	3f 4f       	sbci	r19, 0xFF	; 255
    3e76:	0f b6       	in	r0, 0x3f	; 63
    3e78:	f8 94       	cli
    3e7a:	3e bf       	out	0x3e, r19	; 62
    3e7c:	0f be       	out	0x3f, r0	; 63
    3e7e:	2d bf       	out	0x3d, r18	; 61
    3e80:	c8 01       	movw	r24, r16
    3e82:	0e 94 6b 27 	call	0x4ed6	; 0x4ed6 <ST7032i_puts>
    3e86:	b5 cf       	rjmp	.-150    	; 0x3df2 <setConfig+0x448>
    3e88:	4f 99       	sbic	0x09, 7	; 9
    3e8a:	b3 cf       	rjmp	.-154    	; 0x3df2 <setConfig+0x448>
    3e8c:	82 e3       	ldi	r24, 0x32	; 50
    3e8e:	90 e0       	ldi	r25, 0x00	; 0
    3e90:	61 e0       	ldi	r22, 0x01	; 1
    3e92:	0e 94 cf 19 	call	0x339e	; 0x339e <beep>
    3e96:	04 c0       	rjmp	.+8      	; 0x3ea0 <setConfig+0x4f6>
    3e98:	84 e6       	ldi	r24, 0x64	; 100
    3e9a:	90 e0       	ldi	r25, 0x00	; 0
    3e9c:	0e 94 2e 01 	call	0x25c	; 0x25c <wait_ms>
    3ea0:	4f 9b       	sbis	0x09, 7	; 9
    3ea2:	fa cf       	rjmp	.-12     	; 0x3e98 <setConfig+0x4ee>
    3ea4:	8e 01       	movw	r16, r28
    3ea6:	05 5f       	subi	r16, 0xF5	; 245
    3ea8:	1f 4f       	sbci	r17, 0xFF	; 255
    3eaa:	fc ec       	ldi	r31, 0xCC	; 204
    3eac:	ef 2e       	mov	r14, r31
    3eae:	f0 e0       	ldi	r31, 0x00	; 0
    3eb0:	ff 2e       	mov	r15, r31
    3eb2:	83 e0       	ldi	r24, 0x03	; 3
    3eb4:	61 e0       	ldi	r22, 0x01	; 1
    3eb6:	0e 94 2c 26 	call	0x4c58	; 0x4c58 <ST7032i_setCursor>
    3eba:	4d 99       	sbic	0x09, 5	; 9
    3ebc:	45 c0       	rjmp	.+138    	; 0x3f48 <setConfig+0x59e>
    3ebe:	82 e3       	ldi	r24, 0x32	; 50
    3ec0:	90 e0       	ldi	r25, 0x00	; 0
    3ec2:	61 e0       	ldi	r22, 0x01	; 1
    3ec4:	0e 94 cf 19 	call	0x339e	; 0x339e <beep>
    3ec8:	8a 81       	ldd	r24, Y+2	; 0x02
    3eca:	8f 5f       	subi	r24, 0xFF	; 255
    3ecc:	8a 83       	std	Y+2, r24	; 0x02
    3ece:	8c 33       	cpi	r24, 0x3C	; 60
    3ed0:	08 f0       	brcs	.+2      	; 0x3ed4 <setConfig+0x52a>
    3ed2:	1a 82       	std	Y+2, r1	; 0x02
    3ed4:	20 e0       	ldi	r18, 0x00	; 0
    3ed6:	16 c0       	rjmp	.+44     	; 0x3f04 <setConfig+0x55a>
    3ed8:	82 e3       	ldi	r24, 0x32	; 50
    3eda:	90 e0       	ldi	r25, 0x00	; 0
    3edc:	61 e0       	ldi	r22, 0x01	; 1
    3ede:	2b a7       	lds	r18, 0x7b
    3ee0:	0e 94 cf 19 	call	0x339e	; 0x339e <beep>
    3ee4:	84 e6       	ldi	r24, 0x64	; 100
    3ee6:	90 e0       	ldi	r25, 0x00	; 0
    3ee8:	0e 94 2e 01 	call	0x25c	; 0x25c <wait_ms>
    3eec:	2b a5       	lds	r18, 0x6b
    3eee:	82 2f       	mov	r24, r18
    3ef0:	8f 5f       	subi	r24, 0xFF	; 255
    3ef2:	22 50       	subi	r18, 0x02	; 2
    3ef4:	27 30       	cpi	r18, 0x07	; 7
    3ef6:	10 f4       	brcc	.+4      	; 0x3efc <setConfig+0x552>
    3ef8:	1a 82       	std	Y+2, r1	; 0x02
    3efa:	03 c0       	rjmp	.+6      	; 0x3f02 <setConfig+0x558>
    3efc:	8a 30       	cpi	r24, 0x0A	; 10
    3efe:	08 f0       	brcs	.+2      	; 0x3f02 <setConfig+0x558>
    3f00:	6d c0       	rjmp	.+218    	; 0x3fdc <setConfig+0x632>
    3f02:	28 2f       	mov	r18, r24
    3f04:	4d 9b       	sbis	0x09, 5	; 9
    3f06:	e8 cf       	rjmp	.-48     	; 0x3ed8 <setConfig+0x52e>
    3f08:	00 d0       	rcall	.+0      	; 0x3f0a <setConfig+0x560>
    3f0a:	00 d0       	rcall	.+0      	; 0x3f0c <setConfig+0x562>
    3f0c:	00 d0       	rcall	.+0      	; 0x3f0e <setConfig+0x564>
    3f0e:	ed b7       	in	r30, 0x3d	; 61
    3f10:	fe b7       	in	r31, 0x3e	; 62
    3f12:	31 96       	adiw	r30, 0x01	; 1
    3f14:	ad b7       	in	r26, 0x3d	; 61
    3f16:	be b7       	in	r27, 0x3e	; 62
    3f18:	12 96       	adiw	r26, 0x02	; 2
    3f1a:	1c 93       	st	X, r17
    3f1c:	0e 93       	st	-X, r16
    3f1e:	11 97       	sbiw	r26, 0x01	; 1
    3f20:	f3 82       	std	Z+3, r15	; 0x03
    3f22:	e2 82       	std	Z+2, r14	; 0x02
    3f24:	8a 81       	ldd	r24, Y+2	; 0x02
    3f26:	84 83       	std	Z+4, r24	; 0x04
    3f28:	15 82       	std	Z+5, r1	; 0x05
    3f2a:	0e 94 14 2a 	call	0x5428	; 0x5428 <xsprintf_p>
    3f2e:	2d b7       	in	r18, 0x3d	; 61
    3f30:	3e b7       	in	r19, 0x3e	; 62
    3f32:	2a 5f       	subi	r18, 0xFA	; 250
    3f34:	3f 4f       	sbci	r19, 0xFF	; 255
    3f36:	0f b6       	in	r0, 0x3f	; 63
    3f38:	f8 94       	cli
    3f3a:	3e bf       	out	0x3e, r19	; 62
    3f3c:	0f be       	out	0x3f, r0	; 63
    3f3e:	2d bf       	out	0x3d, r18	; 61
    3f40:	c8 01       	movw	r24, r16
    3f42:	0e 94 6b 27 	call	0x4ed6	; 0x4ed6 <ST7032i_puts>
    3f46:	b5 cf       	rjmp	.-150    	; 0x3eb2 <setConfig+0x508>
    3f48:	4f 99       	sbic	0x09, 7	; 9
    3f4a:	b3 cf       	rjmp	.-154    	; 0x3eb2 <setConfig+0x508>
    3f4c:	82 e3       	ldi	r24, 0x32	; 50
    3f4e:	90 e0       	ldi	r25, 0x00	; 0
    3f50:	61 e0       	ldi	r22, 0x01	; 1
    3f52:	0e 94 cf 19 	call	0x339e	; 0x339e <beep>
    3f56:	04 c0       	rjmp	.+8      	; 0x3f60 <setConfig+0x5b6>
    3f58:	84 e6       	ldi	r24, 0x64	; 100
    3f5a:	90 e0       	ldi	r25, 0x00	; 0
    3f5c:	0e 94 2e 01 	call	0x25c	; 0x25c <wait_ms>
    3f60:	4f 9b       	sbis	0x09, 7	; 9
    3f62:	fa cf       	rjmp	.-12     	; 0x3f58 <setConfig+0x5ae>
    3f64:	8e 01       	movw	r16, r28
    3f66:	05 5f       	subi	r16, 0xF5	; 245
    3f68:	1f 4f       	sbci	r17, 0xFF	; 255
    3f6a:	e1 ed       	ldi	r30, 0xD1	; 209
    3f6c:	ee 2e       	mov	r14, r30
    3f6e:	e0 e0       	ldi	r30, 0x00	; 0
    3f70:	fe 2e       	mov	r15, r30
    3f72:	86 e0       	ldi	r24, 0x06	; 6
    3f74:	61 e0       	ldi	r22, 0x01	; 1
    3f76:	0e 94 2c 26 	call	0x4c58	; 0x4c58 <ST7032i_setCursor>
    3f7a:	4f 99       	sbic	0x09, 7	; 9
    3f7c:	0c c0       	rjmp	.+24     	; 0x3f96 <setConfig+0x5ec>
    3f7e:	4d 99       	sbic	0x09, 5	; 9
    3f80:	0a c0       	rjmp	.+20     	; 0x3f96 <setConfig+0x5ec>
    3f82:	82 e3       	ldi	r24, 0x32	; 50
    3f84:	90 e0       	ldi	r25, 0x00	; 0
    3f86:	61 e0       	ldi	r22, 0x01	; 1
    3f88:	0e 94 cf 19 	call	0x339e	; 0x339e <beep>
    3f8c:	4f 9b       	sbis	0x09, 7	; 9
    3f8e:	fe cf       	rjmp	.-4      	; 0x3f8c <setConfig+0x5e2>
    3f90:	4d 9b       	sbis	0x09, 5	; 9
    3f92:	fc cf       	rjmp	.-8      	; 0x3f8c <setConfig+0x5e2>
    3f94:	23 c0       	rjmp	.+70     	; 0x3fdc <setConfig+0x632>
    3f96:	4d 99       	sbic	0x09, 5	; 9
    3f98:	49 c0       	rjmp	.+146    	; 0x402c <setConfig+0x682>
    3f9a:	82 e3       	ldi	r24, 0x32	; 50
    3f9c:	90 e0       	ldi	r25, 0x00	; 0
    3f9e:	61 e0       	ldi	r22, 0x01	; 1
    3fa0:	0e 94 cf 19 	call	0x339e	; 0x339e <beep>
    3fa4:	89 81       	ldd	r24, Y+1	; 0x01
    3fa6:	8f 5f       	subi	r24, 0xFF	; 255
    3fa8:	89 83       	std	Y+1, r24	; 0x01
    3faa:	8c 33       	cpi	r24, 0x3C	; 60
    3fac:	08 f0       	brcs	.+2      	; 0x3fb0 <setConfig+0x606>
    3fae:	19 82       	std	Y+1, r1	; 0x01
    3fb0:	20 e0       	ldi	r18, 0x00	; 0
    3fb2:	1a c0       	rjmp	.+52     	; 0x3fe8 <setConfig+0x63e>
    3fb4:	82 e3       	ldi	r24, 0x32	; 50
    3fb6:	90 e0       	ldi	r25, 0x00	; 0
    3fb8:	61 e0       	ldi	r22, 0x01	; 1
    3fba:	2b a7       	lds	r18, 0x7b
    3fbc:	0e 94 cf 19 	call	0x339e	; 0x339e <beep>
    3fc0:	84 e6       	ldi	r24, 0x64	; 100
    3fc2:	90 e0       	ldi	r25, 0x00	; 0
    3fc4:	0e 94 2e 01 	call	0x25c	; 0x25c <wait_ms>
    3fc8:	2b a5       	lds	r18, 0x6b
    3fca:	82 2f       	mov	r24, r18
    3fcc:	8f 5f       	subi	r24, 0xFF	; 255
    3fce:	22 50       	subi	r18, 0x02	; 2
    3fd0:	27 30       	cpi	r18, 0x07	; 7
    3fd2:	10 f4       	brcc	.+4      	; 0x3fd8 <setConfig+0x62e>
    3fd4:	19 82       	std	Y+1, r1	; 0x01
    3fd6:	07 c0       	rjmp	.+14     	; 0x3fe6 <setConfig+0x63c>
    3fd8:	8a 30       	cpi	r24, 0x0A	; 10
    3fda:	28 f0       	brcs	.+10     	; 0x3fe6 <setConfig+0x63c>
    3fdc:	0e 94 a5 26 	call	0x4d4a	; 0x4d4a <ST7032i_offBlink>
    3fe0:	0e 94 1a 26 	call	0x4c34	; 0x4c34 <ST7032i_Clear>
    3fe4:	55 c0       	rjmp	.+170    	; 0x4090 <setConfig+0x6e6>
    3fe6:	28 2f       	mov	r18, r24
    3fe8:	4d 9b       	sbis	0x09, 5	; 9
    3fea:	e4 cf       	rjmp	.-56     	; 0x3fb4 <setConfig+0x60a>
    3fec:	00 d0       	rcall	.+0      	; 0x3fee <setConfig+0x644>
    3fee:	00 d0       	rcall	.+0      	; 0x3ff0 <setConfig+0x646>
    3ff0:	00 d0       	rcall	.+0      	; 0x3ff2 <setConfig+0x648>
    3ff2:	ed b7       	in	r30, 0x3d	; 61
    3ff4:	fe b7       	in	r31, 0x3e	; 62
    3ff6:	31 96       	adiw	r30, 0x01	; 1
    3ff8:	ad b7       	in	r26, 0x3d	; 61
    3ffa:	be b7       	in	r27, 0x3e	; 62
    3ffc:	12 96       	adiw	r26, 0x02	; 2
    3ffe:	1c 93       	st	X, r17
    4000:	0e 93       	st	-X, r16
    4002:	11 97       	sbiw	r26, 0x01	; 1
    4004:	f3 82       	std	Z+3, r15	; 0x03
    4006:	e2 82       	std	Z+2, r14	; 0x02
    4008:	89 81       	ldd	r24, Y+1	; 0x01
    400a:	84 83       	std	Z+4, r24	; 0x04
    400c:	15 82       	std	Z+5, r1	; 0x05
    400e:	0e 94 14 2a 	call	0x5428	; 0x5428 <xsprintf_p>
    4012:	2d b7       	in	r18, 0x3d	; 61
    4014:	3e b7       	in	r19, 0x3e	; 62
    4016:	2a 5f       	subi	r18, 0xFA	; 250
    4018:	3f 4f       	sbci	r19, 0xFF	; 255
    401a:	0f b6       	in	r0, 0x3f	; 63
    401c:	f8 94       	cli
    401e:	3e bf       	out	0x3e, r19	; 62
    4020:	0f be       	out	0x3f, r0	; 63
    4022:	2d bf       	out	0x3d, r18	; 61
    4024:	c8 01       	movw	r24, r16
    4026:	0e 94 6b 27 	call	0x4ed6	; 0x4ed6 <ST7032i_puts>
    402a:	a3 cf       	rjmp	.-186    	; 0x3f72 <setConfig+0x5c8>
    402c:	4f 99       	sbic	0x09, 7	; 9
    402e:	a1 cf       	rjmp	.-190    	; 0x3f72 <setConfig+0x5c8>
    4030:	82 e3       	ldi	r24, 0x32	; 50
    4032:	90 e0       	ldi	r25, 0x00	; 0
    4034:	61 e0       	ldi	r22, 0x01	; 1
    4036:	0e 94 cf 19 	call	0x339e	; 0x339e <beep>
    403a:	04 c0       	rjmp	.+8      	; 0x4044 <setConfig+0x69a>
    403c:	84 e6       	ldi	r24, 0x64	; 100
    403e:	90 e0       	ldi	r25, 0x00	; 0
    4040:	0e 94 2e 01 	call	0x25c	; 0x25c <wait_ms>
    4044:	4f 9b       	sbis	0x09, 7	; 9
    4046:	fa cf       	rjmp	.-12     	; 0x403c <setConfig+0x692>
    4048:	ce 01       	movw	r24, r28
    404a:	01 96       	adiw	r24, 0x01	; 1
    404c:	0e 94 28 02 	call	0x450	; 0x450 <DS3231S_adjust>
    4050:	0e 94 1a 26 	call	0x4c34	; 0x4c34 <ST7032i_Clear>
    4054:	0e 94 a5 26 	call	0x4d4a	; 0x4d4a <ST7032i_offBlink>
    4058:	10 92 05 05 	sts	0x0505, r1
    405c:	33 20       	and	r3, r3
    405e:	c1 f0       	breq	.+48     	; 0x4090 <setConfig+0x6e6>
    4060:	8e e0       	ldi	r24, 0x0E	; 14
    4062:	94 e0       	ldi	r25, 0x04	; 4
    4064:	0e 94 d7 12 	call	0x25ae	; 0x25ae <f_sync>
    4068:	88 23       	and	r24, r24
    406a:	71 f0       	breq	.+28     	; 0x4088 <setConfig+0x6de>
    406c:	86 ed       	ldi	r24, 0xD6	; 214
    406e:	90 e0       	ldi	r25, 0x00	; 0
    4070:	6f ed       	ldi	r22, 0xDF	; 223
    4072:	70 e0       	ldi	r23, 0x00	; 0
    4074:	0e 94 9f 1c 	call	0x393e	; 0x393e <dispMessage>
    4078:	8c e2       	ldi	r24, 0x2C	; 44
    407a:	91 e0       	ldi	r25, 0x01	; 1
    407c:	63 e0       	ldi	r22, 0x03	; 3
    407e:	0e 94 cf 19 	call	0x339e	; 0x339e <beep>
    4082:	88 e0       	ldi	r24, 0x08	; 8
    4084:	80 93 05 05 	sts	0x0505, r24
    4088:	8e e0       	ldi	r24, 0x0E	; 14
    408a:	94 e0       	ldi	r25, 0x04	; 4
    408c:	0e 94 87 13 	call	0x270e	; 0x270e <f_close>
    4090:	ab 96       	adiw	r28, 0x2b	; 43
    4092:	0f b6       	in	r0, 0x3f	; 63
    4094:	f8 94       	cli
    4096:	de bf       	out	0x3e, r29	; 62
    4098:	0f be       	out	0x3f, r0	; 63
    409a:	cd bf       	out	0x3d, r28	; 61
    409c:	df 91       	pop	r29
    409e:	cf 91       	pop	r28
    40a0:	1f 91       	pop	r17
    40a2:	0f 91       	pop	r16
    40a4:	ff 90       	pop	r15
    40a6:	ef 90       	pop	r14
    40a8:	df 90       	pop	r13
    40aa:	cf 90       	pop	r12
    40ac:	bf 90       	pop	r11
    40ae:	af 90       	pop	r10
    40b0:	9f 90       	pop	r9
    40b2:	8f 90       	pop	r8
    40b4:	7f 90       	pop	r7
    40b6:	6f 90       	pop	r6
    40b8:	5f 90       	pop	r5
    40ba:	4f 90       	pop	r4
    40bc:	3f 90       	pop	r3
    40be:	08 95       	ret

000040c0 <rcvr_spi>:
    40c0:	8f ef       	ldi	r24, 0xFF	; 255
    40c2:	8e bd       	out	0x2e, r24	; 46
    40c4:	0d b4       	in	r0, 0x2d	; 45
    40c6:	07 fe       	sbrs	r0, 7
    40c8:	fd cf       	rjmp	.-6      	; 0x40c4 <rcvr_spi+0x4>
    40ca:	8e b5       	in	r24, 0x2e	; 46
    40cc:	08 95       	ret

000040ce <wait_ready>:
    40ce:	82 e3       	ldi	r24, 0x32	; 50
    40d0:	80 93 08 05 	sts	0x0508, r24
    40d4:	0e 94 60 20 	call	0x40c0	; 0x40c0 <rcvr_spi>
    40d8:	0e 94 60 20 	call	0x40c0	; 0x40c0 <rcvr_spi>
    40dc:	8f 3f       	cpi	r24, 0xFF	; 255
    40de:	21 f0       	breq	.+8      	; 0x40e8 <wait_ready+0x1a>
    40e0:	90 91 08 05 	lds	r25, 0x0508
    40e4:	99 23       	and	r25, r25
    40e6:	c1 f7       	brne	.-16     	; 0x40d8 <wait_ready+0xa>
    40e8:	08 95       	ret

000040ea <rcvr_datablock>:
    40ea:	0f 93       	push	r16
    40ec:	1f 93       	push	r17
    40ee:	cf 93       	push	r28
    40f0:	df 93       	push	r29
    40f2:	ec 01       	movw	r28, r24
    40f4:	8b 01       	movw	r16, r22
    40f6:	8a e0       	ldi	r24, 0x0A	; 10
    40f8:	80 93 07 05 	sts	0x0507, r24
    40fc:	0e 94 60 20 	call	0x40c0	; 0x40c0 <rcvr_spi>
    4100:	8f 3f       	cpi	r24, 0xFF	; 255
    4102:	29 f4       	brne	.+10     	; 0x410e <rcvr_datablock+0x24>
    4104:	80 91 07 05 	lds	r24, 0x0507
    4108:	88 23       	and	r24, r24
    410a:	c1 f7       	brne	.-16     	; 0x40fc <rcvr_datablock+0x12>
    410c:	1a c0       	rjmp	.+52     	; 0x4142 <rcvr_datablock+0x58>
    410e:	8e 3f       	cpi	r24, 0xFE	; 254
    4110:	b9 f4       	brne	.+46     	; 0x4140 <rcvr_datablock+0x56>
    4112:	8f ef       	ldi	r24, 0xFF	; 255
    4114:	8e bd       	out	0x2e, r24	; 46
    4116:	0d b4       	in	r0, 0x2d	; 45
    4118:	07 fe       	sbrs	r0, 7
    411a:	fd cf       	rjmp	.-6      	; 0x4116 <rcvr_datablock+0x2c>
    411c:	9e b5       	in	r25, 0x2e	; 46
    411e:	98 83       	st	Y, r25
    4120:	8e bd       	out	0x2e, r24	; 46
    4122:	0d b4       	in	r0, 0x2d	; 45
    4124:	07 fe       	sbrs	r0, 7
    4126:	fd cf       	rjmp	.-6      	; 0x4122 <rcvr_datablock+0x38>
    4128:	9e b5       	in	r25, 0x2e	; 46
    412a:	99 83       	std	Y+1, r25	; 0x01
    412c:	22 96       	adiw	r28, 0x02	; 2
    412e:	02 50       	subi	r16, 0x02	; 2
    4130:	10 40       	sbci	r17, 0x00	; 0
    4132:	81 f7       	brne	.-32     	; 0x4114 <rcvr_datablock+0x2a>
    4134:	0e 94 60 20 	call	0x40c0	; 0x40c0 <rcvr_spi>
    4138:	0e 94 60 20 	call	0x40c0	; 0x40c0 <rcvr_spi>
    413c:	81 e0       	ldi	r24, 0x01	; 1
    413e:	01 c0       	rjmp	.+2      	; 0x4142 <rcvr_datablock+0x58>
    4140:	80 e0       	ldi	r24, 0x00	; 0
    4142:	df 91       	pop	r29
    4144:	cf 91       	pop	r28
    4146:	1f 91       	pop	r17
    4148:	0f 91       	pop	r16
    414a:	08 95       	ret

0000414c <xmit_datablock>:
    414c:	0f 93       	push	r16
    414e:	1f 93       	push	r17
    4150:	cf 93       	push	r28
    4152:	df 93       	push	r29
    4154:	0f 92       	push	r0
    4156:	cd b7       	in	r28, 0x3d	; 61
    4158:	de b7       	in	r29, 0x3e	; 62
    415a:	8c 01       	movw	r16, r24
    415c:	69 83       	std	Y+1, r22	; 0x01
    415e:	0e 94 67 20 	call	0x40ce	; 0x40ce <wait_ready>
    4162:	69 81       	ldd	r22, Y+1	; 0x01
    4164:	8f 3f       	cpi	r24, 0xFF	; 255
    4166:	59 f5       	brne	.+86     	; 0x41be <xmit_datablock+0x72>
    4168:	6e bd       	out	0x2e, r22	; 46
    416a:	0d b4       	in	r0, 0x2d	; 45
    416c:	07 fe       	sbrs	r0, 7
    416e:	fd cf       	rjmp	.-6      	; 0x416a <xmit_datablock+0x1e>
    4170:	6d 3f       	cpi	r22, 0xFD	; 253
    4172:	19 f1       	breq	.+70     	; 0x41ba <xmit_datablock+0x6e>
    4174:	80 e0       	ldi	r24, 0x00	; 0
    4176:	f8 01       	movw	r30, r16
    4178:	90 81       	ld	r25, Z
    417a:	9e bd       	out	0x2e, r25	; 46
    417c:	0d b4       	in	r0, 0x2d	; 45
    417e:	07 fe       	sbrs	r0, 7
    4180:	fd cf       	rjmp	.-6      	; 0x417c <xmit_datablock+0x30>
    4182:	f8 01       	movw	r30, r16
    4184:	91 81       	ldd	r25, Z+1	; 0x01
    4186:	9e bd       	out	0x2e, r25	; 46
    4188:	0e 5f       	subi	r16, 0xFE	; 254
    418a:	1f 4f       	sbci	r17, 0xFF	; 255
    418c:	0d b4       	in	r0, 0x2d	; 45
    418e:	07 fe       	sbrs	r0, 7
    4190:	fd cf       	rjmp	.-6      	; 0x418c <xmit_datablock+0x40>
    4192:	81 50       	subi	r24, 0x01	; 1
    4194:	81 f7       	brne	.-32     	; 0x4176 <xmit_datablock+0x2a>
    4196:	8f ef       	ldi	r24, 0xFF	; 255
    4198:	8e bd       	out	0x2e, r24	; 46
    419a:	0d b4       	in	r0, 0x2d	; 45
    419c:	07 fe       	sbrs	r0, 7
    419e:	fd cf       	rjmp	.-6      	; 0x419a <xmit_datablock+0x4e>
    41a0:	8f ef       	ldi	r24, 0xFF	; 255
    41a2:	8e bd       	out	0x2e, r24	; 46
    41a4:	0d b4       	in	r0, 0x2d	; 45
    41a6:	07 fe       	sbrs	r0, 7
    41a8:	fd cf       	rjmp	.-6      	; 0x41a4 <xmit_datablock+0x58>
    41aa:	0e 94 60 20 	call	0x40c0	; 0x40c0 <rcvr_spi>
    41ae:	98 2f       	mov	r25, r24
    41b0:	9f 71       	andi	r25, 0x1F	; 31
    41b2:	81 e0       	ldi	r24, 0x01	; 1
    41b4:	95 30       	cpi	r25, 0x05	; 5
    41b6:	19 f4       	brne	.+6      	; 0x41be <xmit_datablock+0x72>
    41b8:	03 c0       	rjmp	.+6      	; 0x41c0 <xmit_datablock+0x74>
    41ba:	81 e0       	ldi	r24, 0x01	; 1
    41bc:	01 c0       	rjmp	.+2      	; 0x41c0 <xmit_datablock+0x74>
    41be:	80 e0       	ldi	r24, 0x00	; 0
    41c0:	0f 90       	pop	r0
    41c2:	df 91       	pop	r29
    41c4:	cf 91       	pop	r28
    41c6:	1f 91       	pop	r17
    41c8:	0f 91       	pop	r16
    41ca:	08 95       	ret

000041cc <send_cmd>:
    41cc:	cf 92       	push	r12
    41ce:	df 92       	push	r13
    41d0:	ef 92       	push	r14
    41d2:	ff 92       	push	r15
    41d4:	cf 93       	push	r28
    41d6:	c8 2f       	mov	r28, r24
    41d8:	6a 01       	movw	r12, r20
    41da:	7b 01       	movw	r14, r22
    41dc:	0e 94 67 20 	call	0x40ce	; 0x40ce <wait_ready>
    41e0:	8f 3f       	cpi	r24, 0xFF	; 255
    41e2:	c1 f5       	brne	.+112    	; 0x4254 <send_cmd+0x88>
    41e4:	ce bd       	out	0x2e, r28	; 46
    41e6:	0d b4       	in	r0, 0x2d	; 45
    41e8:	07 fe       	sbrs	r0, 7
    41ea:	fd cf       	rjmp	.-6      	; 0x41e6 <send_cmd+0x1a>
    41ec:	8f 2d       	mov	r24, r15
    41ee:	99 27       	eor	r25, r25
    41f0:	aa 27       	eor	r26, r26
    41f2:	bb 27       	eor	r27, r27
    41f4:	8e bd       	out	0x2e, r24	; 46
    41f6:	0d b4       	in	r0, 0x2d	; 45
    41f8:	07 fe       	sbrs	r0, 7
    41fa:	fd cf       	rjmp	.-6      	; 0x41f6 <send_cmd+0x2a>
    41fc:	c7 01       	movw	r24, r14
    41fe:	aa 27       	eor	r26, r26
    4200:	bb 27       	eor	r27, r27
    4202:	8e bd       	out	0x2e, r24	; 46
    4204:	0d b4       	in	r0, 0x2d	; 45
    4206:	07 fe       	sbrs	r0, 7
    4208:	fd cf       	rjmp	.-6      	; 0x4204 <send_cmd+0x38>
    420a:	77 27       	eor	r23, r23
    420c:	6f 2d       	mov	r22, r15
    420e:	5e 2d       	mov	r21, r14
    4210:	4d 2d       	mov	r20, r13
    4212:	4e bd       	out	0x2e, r20	; 46
    4214:	0d b4       	in	r0, 0x2d	; 45
    4216:	07 fe       	sbrs	r0, 7
    4218:	fd cf       	rjmp	.-6      	; 0x4214 <send_cmd+0x48>
    421a:	ce bc       	out	0x2e, r12	; 46
    421c:	0d b4       	in	r0, 0x2d	; 45
    421e:	07 fe       	sbrs	r0, 7
    4220:	fd cf       	rjmp	.-6      	; 0x421c <send_cmd+0x50>
    4222:	c0 34       	cpi	r28, 0x40	; 64
    4224:	21 f0       	breq	.+8      	; 0x422e <send_cmd+0x62>
    4226:	c8 34       	cpi	r28, 0x48	; 72
    4228:	21 f0       	breq	.+8      	; 0x4232 <send_cmd+0x66>
    422a:	80 e0       	ldi	r24, 0x00	; 0
    422c:	03 c0       	rjmp	.+6      	; 0x4234 <send_cmd+0x68>
    422e:	85 e9       	ldi	r24, 0x95	; 149
    4230:	01 c0       	rjmp	.+2      	; 0x4234 <send_cmd+0x68>
    4232:	87 e8       	ldi	r24, 0x87	; 135
    4234:	8e bd       	out	0x2e, r24	; 46
    4236:	0d b4       	in	r0, 0x2d	; 45
    4238:	07 fe       	sbrs	r0, 7
    423a:	fd cf       	rjmp	.-6      	; 0x4236 <send_cmd+0x6a>
    423c:	cc 34       	cpi	r28, 0x4C	; 76
    423e:	11 f4       	brne	.+4      	; 0x4244 <send_cmd+0x78>
    4240:	0e 94 60 20 	call	0x40c0	; 0x40c0 <rcvr_spi>
    4244:	ca e0       	ldi	r28, 0x0A	; 10
    4246:	0e 94 60 20 	call	0x40c0	; 0x40c0 <rcvr_spi>
    424a:	87 ff       	sbrs	r24, 7
    424c:	04 c0       	rjmp	.+8      	; 0x4256 <send_cmd+0x8a>
    424e:	c1 50       	subi	r28, 0x01	; 1
    4250:	d1 f7       	brne	.-12     	; 0x4246 <send_cmd+0x7a>
    4252:	01 c0       	rjmp	.+2      	; 0x4256 <send_cmd+0x8a>
    4254:	8f ef       	ldi	r24, 0xFF	; 255
    4256:	cf 91       	pop	r28
    4258:	ff 90       	pop	r15
    425a:	ef 90       	pop	r14
    425c:	df 90       	pop	r13
    425e:	cf 90       	pop	r12
    4260:	08 95       	ret

00004262 <disk_initialize>:
    4262:	df 92       	push	r13
    4264:	ef 92       	push	r14
    4266:	ff 92       	push	r15
    4268:	0f 93       	push	r16
    426a:	1f 93       	push	r17
    426c:	cf 93       	push	r28
    426e:	df 93       	push	r29
    4270:	00 d0       	rcall	.+0      	; 0x4272 <disk_initialize+0x10>
    4272:	00 d0       	rcall	.+0      	; 0x4274 <disk_initialize+0x12>
    4274:	cd b7       	in	r28, 0x3d	; 61
    4276:	de b7       	in	r29, 0x3e	; 62
    4278:	88 23       	and	r24, r24
    427a:	09 f0       	breq	.+2      	; 0x427e <disk_initialize+0x1c>
    427c:	af c0       	rjmp	.+350    	; 0x43dc <disk_initialize+0x17a>
    427e:	0a e0       	ldi	r16, 0x0A	; 10
    4280:	0e 94 60 20 	call	0x40c0	; 0x40c0 <rcvr_spi>
    4284:	01 50       	subi	r16, 0x01	; 1
    4286:	e1 f7       	brne	.-8      	; 0x4280 <disk_initialize+0x1e>
    4288:	2a 98       	cbi	0x05, 2	; 5
    428a:	80 e4       	ldi	r24, 0x40	; 64
    428c:	40 e0       	ldi	r20, 0x00	; 0
    428e:	50 e0       	ldi	r21, 0x00	; 0
    4290:	ba 01       	movw	r22, r20
    4292:	0e 94 e6 20 	call	0x41cc	; 0x41cc <send_cmd>
    4296:	81 30       	cpi	r24, 0x01	; 1
    4298:	09 f0       	breq	.+2      	; 0x429c <disk_initialize+0x3a>
    429a:	8e c0       	rjmp	.+284    	; 0x43b8 <disk_initialize+0x156>
    429c:	84 e6       	ldi	r24, 0x64	; 100
    429e:	80 93 07 05 	sts	0x0507, r24
    42a2:	88 e4       	ldi	r24, 0x48	; 72
    42a4:	4a ea       	ldi	r20, 0xAA	; 170
    42a6:	51 e0       	ldi	r21, 0x01	; 1
    42a8:	60 e0       	ldi	r22, 0x00	; 0
    42aa:	70 e0       	ldi	r23, 0x00	; 0
    42ac:	0e 94 e6 20 	call	0x41cc	; 0x41cc <send_cmd>
    42b0:	81 30       	cpi	r24, 0x01	; 1
    42b2:	09 f0       	breq	.+2      	; 0x42b6 <disk_initialize+0x54>
    42b4:	46 c0       	rjmp	.+140    	; 0x4342 <disk_initialize+0xe0>
    42b6:	7e 01       	movw	r14, r28
    42b8:	08 94       	sec
    42ba:	e1 1c       	adc	r14, r1
    42bc:	f1 1c       	adc	r15, r1
    42be:	87 01       	movw	r16, r14
    42c0:	34 e0       	ldi	r19, 0x04	; 4
    42c2:	d3 2e       	mov	r13, r19
    42c4:	0e 94 60 20 	call	0x40c0	; 0x40c0 <rcvr_spi>
    42c8:	f8 01       	movw	r30, r16
    42ca:	81 93       	st	Z+, r24
    42cc:	8f 01       	movw	r16, r30
    42ce:	da 94       	dec	r13
    42d0:	c9 f7       	brne	.-14     	; 0x42c4 <disk_initialize+0x62>
    42d2:	8b 81       	ldd	r24, Y+3	; 0x03
    42d4:	81 30       	cpi	r24, 0x01	; 1
    42d6:	09 f0       	breq	.+2      	; 0x42da <disk_initialize+0x78>
    42d8:	6f c0       	rjmp	.+222    	; 0x43b8 <disk_initialize+0x156>
    42da:	8c 81       	ldd	r24, Y+4	; 0x04
    42dc:	8a 3a       	cpi	r24, 0xAA	; 170
    42de:	09 f0       	breq	.+2      	; 0x42e2 <disk_initialize+0x80>
    42e0:	6b c0       	rjmp	.+214    	; 0x43b8 <disk_initialize+0x156>
    42e2:	87 e7       	ldi	r24, 0x77	; 119
    42e4:	40 e0       	ldi	r20, 0x00	; 0
    42e6:	50 e0       	ldi	r21, 0x00	; 0
    42e8:	ba 01       	movw	r22, r20
    42ea:	0e 94 e6 20 	call	0x41cc	; 0x41cc <send_cmd>
    42ee:	82 30       	cpi	r24, 0x02	; 2
    42f0:	48 f4       	brcc	.+18     	; 0x4304 <disk_initialize+0xa2>
    42f2:	89 e6       	ldi	r24, 0x69	; 105
    42f4:	40 e0       	ldi	r20, 0x00	; 0
    42f6:	50 e0       	ldi	r21, 0x00	; 0
    42f8:	60 e0       	ldi	r22, 0x00	; 0
    42fa:	70 e4       	ldi	r23, 0x40	; 64
    42fc:	0e 94 e6 20 	call	0x41cc	; 0x41cc <send_cmd>
    4300:	88 23       	and	r24, r24
    4302:	21 f0       	breq	.+8      	; 0x430c <disk_initialize+0xaa>
    4304:	80 91 07 05 	lds	r24, 0x0507
    4308:	88 23       	and	r24, r24
    430a:	59 f7       	brne	.-42     	; 0x42e2 <disk_initialize+0x80>
    430c:	80 91 07 05 	lds	r24, 0x0507
    4310:	88 23       	and	r24, r24
    4312:	09 f4       	brne	.+2      	; 0x4316 <disk_initialize+0xb4>
    4314:	51 c0       	rjmp	.+162    	; 0x43b8 <disk_initialize+0x156>
    4316:	8a e7       	ldi	r24, 0x7A	; 122
    4318:	40 e0       	ldi	r20, 0x00	; 0
    431a:	50 e0       	ldi	r21, 0x00	; 0
    431c:	ba 01       	movw	r22, r20
    431e:	0e 94 e6 20 	call	0x41cc	; 0x41cc <send_cmd>
    4322:	88 23       	and	r24, r24
    4324:	09 f0       	breq	.+2      	; 0x4328 <disk_initialize+0xc6>
    4326:	48 c0       	rjmp	.+144    	; 0x43b8 <disk_initialize+0x156>
    4328:	04 e0       	ldi	r16, 0x04	; 4
    432a:	0e 94 60 20 	call	0x40c0	; 0x40c0 <rcvr_spi>
    432e:	f7 01       	movw	r30, r14
    4330:	81 93       	st	Z+, r24
    4332:	7f 01       	movw	r14, r30
    4334:	01 50       	subi	r16, 0x01	; 1
    4336:	c9 f7       	brne	.-14     	; 0x432a <disk_initialize+0xc8>
    4338:	89 81       	ldd	r24, Y+1	; 0x01
    433a:	86 ff       	sbrs	r24, 6
    433c:	3b c0       	rjmp	.+118    	; 0x43b4 <disk_initialize+0x152>
    433e:	06 e0       	ldi	r16, 0x06	; 6
    4340:	3c c0       	rjmp	.+120    	; 0x43ba <disk_initialize+0x158>
    4342:	87 e7       	ldi	r24, 0x77	; 119
    4344:	40 e0       	ldi	r20, 0x00	; 0
    4346:	50 e0       	ldi	r21, 0x00	; 0
    4348:	ba 01       	movw	r22, r20
    434a:	0e 94 e6 20 	call	0x41cc	; 0x41cc <send_cmd>
    434e:	82 30       	cpi	r24, 0x02	; 2
    4350:	50 f4       	brcc	.+20     	; 0x4366 <disk_initialize+0x104>
    4352:	89 e6       	ldi	r24, 0x69	; 105
    4354:	40 e0       	ldi	r20, 0x00	; 0
    4356:	50 e0       	ldi	r21, 0x00	; 0
    4358:	ba 01       	movw	r22, r20
    435a:	0e 94 e6 20 	call	0x41cc	; 0x41cc <send_cmd>
    435e:	82 30       	cpi	r24, 0x02	; 2
    4360:	10 f4       	brcc	.+4      	; 0x4366 <disk_initialize+0x104>
    4362:	02 e0       	ldi	r16, 0x02	; 2
    4364:	01 c0       	rjmp	.+2      	; 0x4368 <disk_initialize+0x106>
    4366:	01 e0       	ldi	r16, 0x01	; 1
    4368:	02 30       	cpi	r16, 0x02	; 2
    436a:	51 f4       	brne	.+20     	; 0x4380 <disk_initialize+0x11e>
    436c:	87 e7       	ldi	r24, 0x77	; 119
    436e:	40 e0       	ldi	r20, 0x00	; 0
    4370:	50 e0       	ldi	r21, 0x00	; 0
    4372:	ba 01       	movw	r22, r20
    4374:	0e 94 e6 20 	call	0x41cc	; 0x41cc <send_cmd>
    4378:	82 30       	cpi	r24, 0x02	; 2
    437a:	50 f4       	brcc	.+20     	; 0x4390 <disk_initialize+0x12e>
    437c:	89 e6       	ldi	r24, 0x69	; 105
    437e:	01 c0       	rjmp	.+2      	; 0x4382 <disk_initialize+0x120>
    4380:	81 e4       	ldi	r24, 0x41	; 65
    4382:	40 e0       	ldi	r20, 0x00	; 0
    4384:	50 e0       	ldi	r21, 0x00	; 0
    4386:	ba 01       	movw	r22, r20
    4388:	0e 94 e6 20 	call	0x41cc	; 0x41cc <send_cmd>
    438c:	88 23       	and	r24, r24
    438e:	21 f0       	breq	.+8      	; 0x4398 <disk_initialize+0x136>
    4390:	80 91 07 05 	lds	r24, 0x0507
    4394:	88 23       	and	r24, r24
    4396:	41 f7       	brne	.-48     	; 0x4368 <disk_initialize+0x106>
    4398:	80 91 07 05 	lds	r24, 0x0507
    439c:	88 23       	and	r24, r24
    439e:	61 f0       	breq	.+24     	; 0x43b8 <disk_initialize+0x156>
    43a0:	80 e5       	ldi	r24, 0x50	; 80
    43a2:	40 e0       	ldi	r20, 0x00	; 0
    43a4:	52 e0       	ldi	r21, 0x02	; 2
    43a6:	60 e0       	ldi	r22, 0x00	; 0
    43a8:	70 e0       	ldi	r23, 0x00	; 0
    43aa:	0e 94 e6 20 	call	0x41cc	; 0x41cc <send_cmd>
    43ae:	88 23       	and	r24, r24
    43b0:	19 f4       	brne	.+6      	; 0x43b8 <disk_initialize+0x156>
    43b2:	03 c0       	rjmp	.+6      	; 0x43ba <disk_initialize+0x158>
    43b4:	02 e0       	ldi	r16, 0x02	; 2
    43b6:	01 c0       	rjmp	.+2      	; 0x43ba <disk_initialize+0x158>
    43b8:	00 e0       	ldi	r16, 0x00	; 0
    43ba:	00 93 95 01 	sts	0x0195, r16
    43be:	2a 9a       	sbi	0x05, 2	; 5
    43c0:	0e 94 60 20 	call	0x40c0	; 0x40c0 <rcvr_spi>
    43c4:	80 91 94 01 	lds	r24, 0x0194
    43c8:	00 23       	and	r16, r16
    43ca:	11 f0       	breq	.+4      	; 0x43d0 <disk_initialize+0x16e>
    43cc:	8e 7f       	andi	r24, 0xFE	; 254
    43ce:	01 c0       	rjmp	.+2      	; 0x43d2 <disk_initialize+0x170>
    43d0:	81 60       	ori	r24, 0x01	; 1
    43d2:	80 93 94 01 	sts	0x0194, r24
    43d6:	80 91 94 01 	lds	r24, 0x0194
    43da:	01 c0       	rjmp	.+2      	; 0x43de <disk_initialize+0x17c>
    43dc:	81 e0       	ldi	r24, 0x01	; 1
    43de:	0f 90       	pop	r0
    43e0:	0f 90       	pop	r0
    43e2:	0f 90       	pop	r0
    43e4:	0f 90       	pop	r0
    43e6:	df 91       	pop	r29
    43e8:	cf 91       	pop	r28
    43ea:	1f 91       	pop	r17
    43ec:	0f 91       	pop	r16
    43ee:	ff 90       	pop	r15
    43f0:	ef 90       	pop	r14
    43f2:	df 90       	pop	r13
    43f4:	08 95       	ret

000043f6 <disk_status>:
    43f6:	88 23       	and	r24, r24
    43f8:	19 f4       	brne	.+6      	; 0x4400 <disk_status+0xa>
    43fa:	80 91 94 01 	lds	r24, 0x0194
    43fe:	08 95       	ret
    4400:	81 e0       	ldi	r24, 0x01	; 1
    4402:	08 95       	ret

00004404 <disk_read>:
    4404:	0f 93       	push	r16
    4406:	cf 93       	push	r28
    4408:	df 93       	push	r29
    440a:	eb 01       	movw	r28, r22
    440c:	ba 01       	movw	r22, r20
    440e:	a9 01       	movw	r20, r18
    4410:	88 23       	and	r24, r24
    4412:	09 f0       	breq	.+2      	; 0x4416 <disk_read+0x12>
    4414:	42 c0       	rjmp	.+132    	; 0x449a <disk_read+0x96>
    4416:	00 23       	and	r16, r16
    4418:	09 f4       	brne	.+2      	; 0x441c <disk_read+0x18>
    441a:	3f c0       	rjmp	.+126    	; 0x449a <disk_read+0x96>
    441c:	80 91 94 01 	lds	r24, 0x0194
    4420:	80 fd       	sbrc	r24, 0
    4422:	3d c0       	rjmp	.+122    	; 0x449e <disk_read+0x9a>
    4424:	80 91 95 01 	lds	r24, 0x0195
    4428:	82 fd       	sbrc	r24, 2
    442a:	07 c0       	rjmp	.+14     	; 0x443a <disk_read+0x36>
    442c:	e9 e0       	ldi	r30, 0x09	; 9
    442e:	44 0f       	add	r20, r20
    4430:	55 1f       	adc	r21, r21
    4432:	66 1f       	adc	r22, r22
    4434:	77 1f       	adc	r23, r23
    4436:	ea 95       	dec	r30
    4438:	d1 f7       	brne	.-12     	; 0x442e <disk_read+0x2a>
    443a:	2a 98       	cbi	0x05, 2	; 5
    443c:	01 30       	cpi	r16, 0x01	; 1
    443e:	69 f4       	brne	.+26     	; 0x445a <disk_read+0x56>
    4440:	81 e5       	ldi	r24, 0x51	; 81
    4442:	0e 94 e6 20 	call	0x41cc	; 0x41cc <send_cmd>
    4446:	88 23       	and	r24, r24
    4448:	01 f5       	brne	.+64     	; 0x448a <disk_read+0x86>
    444a:	ce 01       	movw	r24, r28
    444c:	60 e0       	ldi	r22, 0x00	; 0
    444e:	72 e0       	ldi	r23, 0x02	; 2
    4450:	0e 94 75 20 	call	0x40ea	; 0x40ea <rcvr_datablock>
    4454:	88 23       	and	r24, r24
    4456:	c1 f4       	brne	.+48     	; 0x4488 <disk_read+0x84>
    4458:	18 c0       	rjmp	.+48     	; 0x448a <disk_read+0x86>
    445a:	82 e5       	ldi	r24, 0x52	; 82
    445c:	0e 94 e6 20 	call	0x41cc	; 0x41cc <send_cmd>
    4460:	88 23       	and	r24, r24
    4462:	99 f4       	brne	.+38     	; 0x448a <disk_read+0x86>
    4464:	ce 01       	movw	r24, r28
    4466:	60 e0       	ldi	r22, 0x00	; 0
    4468:	72 e0       	ldi	r23, 0x02	; 2
    446a:	0e 94 75 20 	call	0x40ea	; 0x40ea <rcvr_datablock>
    446e:	88 23       	and	r24, r24
    4470:	21 f0       	breq	.+8      	; 0x447a <disk_read+0x76>
    4472:	c0 50       	subi	r28, 0x00	; 0
    4474:	de 4f       	sbci	r29, 0xFE	; 254
    4476:	01 50       	subi	r16, 0x01	; 1
    4478:	a9 f7       	brne	.-22     	; 0x4464 <disk_read+0x60>
    447a:	8c e4       	ldi	r24, 0x4C	; 76
    447c:	40 e0       	ldi	r20, 0x00	; 0
    447e:	50 e0       	ldi	r21, 0x00	; 0
    4480:	ba 01       	movw	r22, r20
    4482:	0e 94 e6 20 	call	0x41cc	; 0x41cc <send_cmd>
    4486:	01 c0       	rjmp	.+2      	; 0x448a <disk_read+0x86>
    4488:	00 e0       	ldi	r16, 0x00	; 0
    448a:	2a 9a       	sbi	0x05, 2	; 5
    448c:	0e 94 60 20 	call	0x40c0	; 0x40c0 <rcvr_spi>
    4490:	81 e0       	ldi	r24, 0x01	; 1
    4492:	00 23       	and	r16, r16
    4494:	29 f4       	brne	.+10     	; 0x44a0 <disk_read+0x9c>
    4496:	80 e0       	ldi	r24, 0x00	; 0
    4498:	03 c0       	rjmp	.+6      	; 0x44a0 <disk_read+0x9c>
    449a:	84 e0       	ldi	r24, 0x04	; 4
    449c:	01 c0       	rjmp	.+2      	; 0x44a0 <disk_read+0x9c>
    449e:	83 e0       	ldi	r24, 0x03	; 3
    44a0:	df 91       	pop	r29
    44a2:	cf 91       	pop	r28
    44a4:	0f 91       	pop	r16
    44a6:	08 95       	ret

000044a8 <disk_write>:
    44a8:	cf 92       	push	r12
    44aa:	df 92       	push	r13
    44ac:	ef 92       	push	r14
    44ae:	ff 92       	push	r15
    44b0:	0f 93       	push	r16
    44b2:	cf 93       	push	r28
    44b4:	df 93       	push	r29
    44b6:	eb 01       	movw	r28, r22
    44b8:	69 01       	movw	r12, r18
    44ba:	7a 01       	movw	r14, r20
    44bc:	88 23       	and	r24, r24
    44be:	09 f0       	breq	.+2      	; 0x44c2 <disk_write+0x1a>
    44c0:	5c c0       	rjmp	.+184    	; 0x457a <disk_write+0xd2>
    44c2:	00 23       	and	r16, r16
    44c4:	09 f4       	brne	.+2      	; 0x44c8 <disk_write+0x20>
    44c6:	59 c0       	rjmp	.+178    	; 0x457a <disk_write+0xd2>
    44c8:	80 91 94 01 	lds	r24, 0x0194
    44cc:	80 fd       	sbrc	r24, 0
    44ce:	57 c0       	rjmp	.+174    	; 0x457e <disk_write+0xd6>
    44d0:	80 91 94 01 	lds	r24, 0x0194
    44d4:	82 fd       	sbrc	r24, 2
    44d6:	55 c0       	rjmp	.+170    	; 0x4582 <disk_write+0xda>
    44d8:	80 91 95 01 	lds	r24, 0x0195
    44dc:	82 fd       	sbrc	r24, 2
    44de:	07 c0       	rjmp	.+14     	; 0x44ee <disk_write+0x46>
    44e0:	f9 e0       	ldi	r31, 0x09	; 9
    44e2:	cc 0c       	add	r12, r12
    44e4:	dd 1c       	adc	r13, r13
    44e6:	ee 1c       	adc	r14, r14
    44e8:	ff 1c       	adc	r15, r15
    44ea:	fa 95       	dec	r31
    44ec:	d1 f7       	brne	.-12     	; 0x44e2 <disk_write+0x3a>
    44ee:	2a 98       	cbi	0x05, 2	; 5
    44f0:	01 30       	cpi	r16, 0x01	; 1
    44f2:	71 f4       	brne	.+28     	; 0x4510 <disk_write+0x68>
    44f4:	88 e5       	ldi	r24, 0x58	; 88
    44f6:	b7 01       	movw	r22, r14
    44f8:	a6 01       	movw	r20, r12
    44fa:	0e 94 e6 20 	call	0x41cc	; 0x41cc <send_cmd>
    44fe:	88 23       	and	r24, r24
    4500:	a1 f5       	brne	.+104    	; 0x456a <disk_write+0xc2>
    4502:	ce 01       	movw	r24, r28
    4504:	6e ef       	ldi	r22, 0xFE	; 254
    4506:	0e 94 a6 20 	call	0x414c	; 0x414c <xmit_datablock>
    450a:	88 23       	and	r24, r24
    450c:	59 f5       	brne	.+86     	; 0x4564 <disk_write+0xbc>
    450e:	2d c0       	rjmp	.+90     	; 0x456a <disk_write+0xc2>
    4510:	80 91 95 01 	lds	r24, 0x0195
    4514:	81 ff       	sbrs	r24, 1
    4516:	0d c0       	rjmp	.+26     	; 0x4532 <disk_write+0x8a>
    4518:	87 e7       	ldi	r24, 0x77	; 119
    451a:	40 e0       	ldi	r20, 0x00	; 0
    451c:	50 e0       	ldi	r21, 0x00	; 0
    451e:	ba 01       	movw	r22, r20
    4520:	0e 94 e6 20 	call	0x41cc	; 0x41cc <send_cmd>
    4524:	40 2f       	mov	r20, r16
    4526:	50 e0       	ldi	r21, 0x00	; 0
    4528:	60 e0       	ldi	r22, 0x00	; 0
    452a:	70 e0       	ldi	r23, 0x00	; 0
    452c:	87 e5       	ldi	r24, 0x57	; 87
    452e:	0e 94 e6 20 	call	0x41cc	; 0x41cc <send_cmd>
    4532:	89 e5       	ldi	r24, 0x59	; 89
    4534:	b7 01       	movw	r22, r14
    4536:	a6 01       	movw	r20, r12
    4538:	0e 94 e6 20 	call	0x41cc	; 0x41cc <send_cmd>
    453c:	88 23       	and	r24, r24
    453e:	a9 f4       	brne	.+42     	; 0x456a <disk_write+0xc2>
    4540:	ce 01       	movw	r24, r28
    4542:	6c ef       	ldi	r22, 0xFC	; 252
    4544:	0e 94 a6 20 	call	0x414c	; 0x414c <xmit_datablock>
    4548:	88 23       	and	r24, r24
    454a:	21 f0       	breq	.+8      	; 0x4554 <disk_write+0xac>
    454c:	c0 50       	subi	r28, 0x00	; 0
    454e:	de 4f       	sbci	r29, 0xFE	; 254
    4550:	01 50       	subi	r16, 0x01	; 1
    4552:	b1 f7       	brne	.-20     	; 0x4540 <disk_write+0x98>
    4554:	80 e0       	ldi	r24, 0x00	; 0
    4556:	90 e0       	ldi	r25, 0x00	; 0
    4558:	6d ef       	ldi	r22, 0xFD	; 253
    455a:	0e 94 a6 20 	call	0x414c	; 0x414c <xmit_datablock>
    455e:	88 23       	and	r24, r24
    4560:	19 f0       	breq	.+6      	; 0x4568 <disk_write+0xc0>
    4562:	03 c0       	rjmp	.+6      	; 0x456a <disk_write+0xc2>
    4564:	00 e0       	ldi	r16, 0x00	; 0
    4566:	01 c0       	rjmp	.+2      	; 0x456a <disk_write+0xc2>
    4568:	01 e0       	ldi	r16, 0x01	; 1
    456a:	2a 9a       	sbi	0x05, 2	; 5
    456c:	0e 94 60 20 	call	0x40c0	; 0x40c0 <rcvr_spi>
    4570:	81 e0       	ldi	r24, 0x01	; 1
    4572:	00 23       	and	r16, r16
    4574:	39 f4       	brne	.+14     	; 0x4584 <disk_write+0xdc>
    4576:	80 e0       	ldi	r24, 0x00	; 0
    4578:	05 c0       	rjmp	.+10     	; 0x4584 <disk_write+0xdc>
    457a:	84 e0       	ldi	r24, 0x04	; 4
    457c:	03 c0       	rjmp	.+6      	; 0x4584 <disk_write+0xdc>
    457e:	83 e0       	ldi	r24, 0x03	; 3
    4580:	01 c0       	rjmp	.+2      	; 0x4584 <disk_write+0xdc>
    4582:	82 e0       	ldi	r24, 0x02	; 2
    4584:	df 91       	pop	r29
    4586:	cf 91       	pop	r28
    4588:	0f 91       	pop	r16
    458a:	ff 90       	pop	r15
    458c:	ef 90       	pop	r14
    458e:	df 90       	pop	r13
    4590:	cf 90       	pop	r12
    4592:	08 95       	ret

00004594 <disk_ioctl>:
    4594:	ff 92       	push	r15
    4596:	0f 93       	push	r16
    4598:	1f 93       	push	r17
    459a:	cf 93       	push	r28
    459c:	df 93       	push	r29
    459e:	cd b7       	in	r28, 0x3d	; 61
    45a0:	de b7       	in	r29, 0x3e	; 62
    45a2:	60 97       	sbiw	r28, 0x10	; 16
    45a4:	0f b6       	in	r0, 0x3f	; 63
    45a6:	f8 94       	cli
    45a8:	de bf       	out	0x3e, r29	; 62
    45aa:	0f be       	out	0x3f, r0	; 63
    45ac:	cd bf       	out	0x3d, r28	; 61
    45ae:	8a 01       	movw	r16, r20
    45b0:	88 23       	and	r24, r24
    45b2:	09 f0       	breq	.+2      	; 0x45b6 <disk_ioctl+0x22>
    45b4:	c0 c0       	rjmp	.+384    	; 0x4736 <disk_ioctl+0x1a2>
    45b6:	2a 98       	cbi	0x05, 2	; 5
    45b8:	63 30       	cpi	r22, 0x03	; 3
    45ba:	09 f4       	brne	.+2      	; 0x45be <disk_ioctl+0x2a>
    45bc:	7e c0       	rjmp	.+252    	; 0x46ba <disk_ioctl+0x126>
    45be:	64 30       	cpi	r22, 0x04	; 4
    45c0:	30 f4       	brcc	.+12     	; 0x45ce <disk_ioctl+0x3a>
    45c2:	61 30       	cpi	r22, 0x01	; 1
    45c4:	71 f0       	breq	.+28     	; 0x45e2 <disk_ioctl+0x4e>
    45c6:	62 30       	cpi	r22, 0x02	; 2
    45c8:	09 f0       	breq	.+2      	; 0x45cc <disk_ioctl+0x38>
    45ca:	ac c0       	rjmp	.+344    	; 0x4724 <disk_ioctl+0x190>
    45cc:	70 c0       	rjmp	.+224    	; 0x46ae <disk_ioctl+0x11a>
    45ce:	6b 30       	cpi	r22, 0x0B	; 11
    45d0:	09 f4       	brne	.+2      	; 0x45d4 <disk_ioctl+0x40>
    45d2:	7e c0       	rjmp	.+252    	; 0x46d0 <disk_ioctl+0x13c>
    45d4:	6c 30       	cpi	r22, 0x0C	; 12
    45d6:	09 f4       	brne	.+2      	; 0x45da <disk_ioctl+0x46>
    45d8:	8f c0       	rjmp	.+286    	; 0x46f8 <disk_ioctl+0x164>
    45da:	6a 30       	cpi	r22, 0x0A	; 10
    45dc:	09 f0       	breq	.+2      	; 0x45e0 <disk_ioctl+0x4c>
    45de:	a2 c0       	rjmp	.+324    	; 0x4724 <disk_ioctl+0x190>
    45e0:	71 c0       	rjmp	.+226    	; 0x46c4 <disk_ioctl+0x130>
    45e2:	89 e4       	ldi	r24, 0x49	; 73
    45e4:	40 e0       	ldi	r20, 0x00	; 0
    45e6:	50 e0       	ldi	r21, 0x00	; 0
    45e8:	ba 01       	movw	r22, r20
    45ea:	0e 94 e6 20 	call	0x41cc	; 0x41cc <send_cmd>
    45ee:	88 23       	and	r24, r24
    45f0:	09 f0       	breq	.+2      	; 0x45f4 <disk_ioctl+0x60>
    45f2:	9c c0       	rjmp	.+312    	; 0x472c <disk_ioctl+0x198>
    45f4:	ce 01       	movw	r24, r28
    45f6:	01 96       	adiw	r24, 0x01	; 1
    45f8:	60 e1       	ldi	r22, 0x10	; 16
    45fa:	70 e0       	ldi	r23, 0x00	; 0
    45fc:	0e 94 75 20 	call	0x40ea	; 0x40ea <rcvr_datablock>
    4600:	88 23       	and	r24, r24
    4602:	09 f4       	brne	.+2      	; 0x4606 <disk_ioctl+0x72>
    4604:	93 c0       	rjmp	.+294    	; 0x472c <disk_ioctl+0x198>
    4606:	89 81       	ldd	r24, Y+1	; 0x01
    4608:	82 95       	swap	r24
    460a:	86 95       	lsr	r24
    460c:	86 95       	lsr	r24
    460e:	83 70       	andi	r24, 0x03	; 3
    4610:	49 85       	ldd	r20, Y+9	; 0x09
    4612:	81 30       	cpi	r24, 0x01	; 1
    4614:	b1 f4       	brne	.+44     	; 0x4642 <disk_ioctl+0xae>
    4616:	8a 85       	ldd	r24, Y+10	; 0x0a
    4618:	90 e0       	ldi	r25, 0x00	; 0
    461a:	01 96       	adiw	r24, 0x01	; 1
    461c:	34 2f       	mov	r19, r20
    461e:	20 e0       	ldi	r18, 0x00	; 0
    4620:	82 0f       	add	r24, r18
    4622:	93 1f       	adc	r25, r19
    4624:	a0 e0       	ldi	r26, 0x00	; 0
    4626:	b0 e0       	ldi	r27, 0x00	; 0
    4628:	4a e0       	ldi	r20, 0x0A	; 10
    462a:	88 0f       	add	r24, r24
    462c:	99 1f       	adc	r25, r25
    462e:	aa 1f       	adc	r26, r26
    4630:	bb 1f       	adc	r27, r27
    4632:	4a 95       	dec	r20
    4634:	d1 f7       	brne	.-12     	; 0x462a <disk_ioctl+0x96>
    4636:	f8 01       	movw	r30, r16
    4638:	80 83       	st	Z, r24
    463a:	91 83       	std	Z+1, r25	; 0x01
    463c:	a2 83       	std	Z+2, r26	; 0x02
    463e:	b3 83       	std	Z+3, r27	; 0x03
    4640:	73 c0       	rjmp	.+230    	; 0x4728 <disk_ioctl+0x194>
    4642:	84 2f       	mov	r24, r20
    4644:	82 95       	swap	r24
    4646:	86 95       	lsr	r24
    4648:	86 95       	lsr	r24
    464a:	83 70       	andi	r24, 0x03	; 3
    464c:	48 85       	ldd	r20, Y+8	; 0x08
    464e:	50 e0       	ldi	r21, 0x00	; 0
    4650:	44 0f       	add	r20, r20
    4652:	55 1f       	adc	r21, r21
    4654:	44 0f       	add	r20, r20
    4656:	55 1f       	adc	r21, r21
    4658:	48 0f       	add	r20, r24
    465a:	51 1d       	adc	r21, r1
    465c:	4f 5f       	subi	r20, 0xFF	; 255
    465e:	5f 4f       	sbci	r21, 0xFF	; 255
    4660:	8f 81       	ldd	r24, Y+7	; 0x07
    4662:	90 e0       	ldi	r25, 0x00	; 0
    4664:	83 70       	andi	r24, 0x03	; 3
    4666:	90 70       	andi	r25, 0x00	; 0
    4668:	98 2f       	mov	r25, r24
    466a:	88 27       	eor	r24, r24
    466c:	99 0f       	add	r25, r25
    466e:	99 0f       	add	r25, r25
    4670:	48 0f       	add	r20, r24
    4672:	59 1f       	adc	r21, r25
    4674:	60 e0       	ldi	r22, 0x00	; 0
    4676:	70 e0       	ldi	r23, 0x00	; 0
    4678:	8e 81       	ldd	r24, Y+6	; 0x06
    467a:	8f 70       	andi	r24, 0x0F	; 15
    467c:	9b 85       	ldd	r25, Y+11	; 0x0b
    467e:	99 1f       	adc	r25, r25
    4680:	99 27       	eor	r25, r25
    4682:	99 1f       	adc	r25, r25
    4684:	89 0f       	add	r24, r25
    4686:	8e 5f       	subi	r24, 0xFE	; 254
    4688:	9a 85       	ldd	r25, Y+10	; 0x0a
    468a:	93 70       	andi	r25, 0x03	; 3
    468c:	99 0f       	add	r25, r25
    468e:	89 0f       	add	r24, r25
    4690:	90 e0       	ldi	r25, 0x00	; 0
    4692:	09 97       	sbiw	r24, 0x09	; 9
    4694:	04 c0       	rjmp	.+8      	; 0x469e <disk_ioctl+0x10a>
    4696:	44 0f       	add	r20, r20
    4698:	55 1f       	adc	r21, r21
    469a:	66 1f       	adc	r22, r22
    469c:	77 1f       	adc	r23, r23
    469e:	8a 95       	dec	r24
    46a0:	d2 f7       	brpl	.-12     	; 0x4696 <disk_ioctl+0x102>
    46a2:	f8 01       	movw	r30, r16
    46a4:	40 83       	st	Z, r20
    46a6:	51 83       	std	Z+1, r21	; 0x01
    46a8:	62 83       	std	Z+2, r22	; 0x02
    46aa:	73 83       	std	Z+3, r23	; 0x03
    46ac:	3d c0       	rjmp	.+122    	; 0x4728 <disk_ioctl+0x194>
    46ae:	80 e0       	ldi	r24, 0x00	; 0
    46b0:	92 e0       	ldi	r25, 0x02	; 2
    46b2:	fa 01       	movw	r30, r20
    46b4:	91 83       	std	Z+1, r25	; 0x01
    46b6:	80 83       	st	Z, r24
    46b8:	37 c0       	rjmp	.+110    	; 0x4728 <disk_ioctl+0x194>
    46ba:	0e 94 67 20 	call	0x40ce	; 0x40ce <wait_ready>
    46be:	8f 3f       	cpi	r24, 0xFF	; 255
    46c0:	a9 f5       	brne	.+106    	; 0x472c <disk_ioctl+0x198>
    46c2:	32 c0       	rjmp	.+100    	; 0x4728 <disk_ioctl+0x194>
    46c4:	80 91 94 01 	lds	r24, 0x0194
    46c8:	80 fd       	sbrc	r24, 0
    46ca:	37 c0       	rjmp	.+110    	; 0x473a <disk_ioctl+0x1a6>
    46cc:	89 e4       	ldi	r24, 0x49	; 73
    46ce:	05 c0       	rjmp	.+10     	; 0x46da <disk_ioctl+0x146>
    46d0:	80 91 94 01 	lds	r24, 0x0194
    46d4:	80 fd       	sbrc	r24, 0
    46d6:	31 c0       	rjmp	.+98     	; 0x473a <disk_ioctl+0x1a6>
    46d8:	8a e4       	ldi	r24, 0x4A	; 74
    46da:	40 e0       	ldi	r20, 0x00	; 0
    46dc:	50 e0       	ldi	r21, 0x00	; 0
    46de:	ba 01       	movw	r22, r20
    46e0:	0e 94 e6 20 	call	0x41cc	; 0x41cc <send_cmd>
    46e4:	88 23       	and	r24, r24
    46e6:	11 f5       	brne	.+68     	; 0x472c <disk_ioctl+0x198>
    46e8:	c8 01       	movw	r24, r16
    46ea:	60 e1       	ldi	r22, 0x10	; 16
    46ec:	70 e0       	ldi	r23, 0x00	; 0
    46ee:	0e 94 75 20 	call	0x40ea	; 0x40ea <rcvr_datablock>
    46f2:	88 23       	and	r24, r24
    46f4:	c9 f4       	brne	.+50     	; 0x4728 <disk_ioctl+0x194>
    46f6:	1a c0       	rjmp	.+52     	; 0x472c <disk_ioctl+0x198>
    46f8:	80 91 94 01 	lds	r24, 0x0194
    46fc:	80 fd       	sbrc	r24, 0
    46fe:	1d c0       	rjmp	.+58     	; 0x473a <disk_ioctl+0x1a6>
    4700:	8a e7       	ldi	r24, 0x7A	; 122
    4702:	40 e0       	ldi	r20, 0x00	; 0
    4704:	50 e0       	ldi	r21, 0x00	; 0
    4706:	ba 01       	movw	r22, r20
    4708:	0e 94 e6 20 	call	0x41cc	; 0x41cc <send_cmd>
    470c:	88 23       	and	r24, r24
    470e:	71 f4       	brne	.+28     	; 0x472c <disk_ioctl+0x198>
    4710:	a4 e0       	ldi	r26, 0x04	; 4
    4712:	fa 2e       	mov	r15, r26
    4714:	0e 94 60 20 	call	0x40c0	; 0x40c0 <rcvr_spi>
    4718:	f8 01       	movw	r30, r16
    471a:	81 93       	st	Z+, r24
    471c:	8f 01       	movw	r16, r30
    471e:	fa 94       	dec	r15
    4720:	c9 f7       	brne	.-14     	; 0x4714 <disk_ioctl+0x180>
    4722:	02 c0       	rjmp	.+4      	; 0x4728 <disk_ioctl+0x194>
    4724:	04 e0       	ldi	r16, 0x04	; 4
    4726:	03 c0       	rjmp	.+6      	; 0x472e <disk_ioctl+0x19a>
    4728:	00 e0       	ldi	r16, 0x00	; 0
    472a:	01 c0       	rjmp	.+2      	; 0x472e <disk_ioctl+0x19a>
    472c:	01 e0       	ldi	r16, 0x01	; 1
    472e:	2a 9a       	sbi	0x05, 2	; 5
    4730:	0e 94 60 20 	call	0x40c0	; 0x40c0 <rcvr_spi>
    4734:	03 c0       	rjmp	.+6      	; 0x473c <disk_ioctl+0x1a8>
    4736:	04 e0       	ldi	r16, 0x04	; 4
    4738:	01 c0       	rjmp	.+2      	; 0x473c <disk_ioctl+0x1a8>
    473a:	03 e0       	ldi	r16, 0x03	; 3
    473c:	80 2f       	mov	r24, r16
    473e:	60 96       	adiw	r28, 0x10	; 16
    4740:	0f b6       	in	r0, 0x3f	; 63
    4742:	f8 94       	cli
    4744:	de bf       	out	0x3e, r29	; 62
    4746:	0f be       	out	0x3f, r0	; 63
    4748:	cd bf       	out	0x3d, r28	; 61
    474a:	df 91       	pop	r29
    474c:	cf 91       	pop	r28
    474e:	1f 91       	pop	r17
    4750:	0f 91       	pop	r16
    4752:	ff 90       	pop	r15
    4754:	08 95       	ret

00004756 <disk_timerproc>:
    4756:	80 91 07 05 	lds	r24, 0x0507
    475a:	88 23       	and	r24, r24
    475c:	19 f0       	breq	.+6      	; 0x4764 <disk_timerproc+0xe>
    475e:	81 50       	subi	r24, 0x01	; 1
    4760:	80 93 07 05 	sts	0x0507, r24
    4764:	80 91 08 05 	lds	r24, 0x0508
    4768:	88 23       	and	r24, r24
    476a:	19 f0       	breq	.+6      	; 0x4772 <disk_timerproc+0x1c>
    476c:	81 50       	subi	r24, 0x01	; 1
    476e:	80 93 08 05 	sts	0x0508, r24
    4772:	08 95       	ret

00004774 <mpl115a_open>:
    4774:	0f 93       	push	r16
    4776:	1f 93       	push	r17
    4778:	cf 93       	push	r28
    477a:	df 93       	push	r29
    477c:	cd b7       	in	r28, 0x3d	; 61
    477e:	de b7       	in	r29, 0x3e	; 62
    4780:	2c 97       	sbiw	r28, 0x0c	; 12
    4782:	0f b6       	in	r0, 0x3f	; 63
    4784:	f8 94       	cli
    4786:	de bf       	out	0x3e, r29	; 62
    4788:	0f be       	out	0x3f, r0	; 63
    478a:	cd bf       	out	0x3d, r28	; 61
    478c:	80 91 6b 01 	lds	r24, 0x016B
    4790:	90 91 6c 01 	lds	r25, 0x016C
    4794:	00 97       	sbiw	r24, 0x00	; 0
    4796:	09 f4       	brne	.+2      	; 0x479a <mpl115a_open+0x26>
    4798:	57 c0       	rjmp	.+174    	; 0x4848 <mpl115a_open+0xd4>
    479a:	13 e0       	ldi	r17, 0x03	; 3
    479c:	04 e0       	ldi	r16, 0x04	; 4
    479e:	81 e2       	ldi	r24, 0x21	; 33
    47a0:	8a 95       	dec	r24
    47a2:	f1 f7       	brne	.-4      	; 0x47a0 <mpl115a_open+0x2c>
    47a4:	00 00       	nop
    47a6:	09 83       	std	Y+1, r16	; 0x01
    47a8:	80 e6       	ldi	r24, 0x60	; 96
    47aa:	61 e0       	ldi	r22, 0x01	; 1
    47ac:	70 e0       	ldi	r23, 0x00	; 0
    47ae:	41 e0       	ldi	r20, 0x01	; 1
    47b0:	9e 01       	movw	r18, r28
    47b2:	2f 5f       	subi	r18, 0xFF	; 255
    47b4:	3f 4f       	sbci	r19, 0xFF	; 255
    47b6:	0e 94 6c 28 	call	0x50d8	; 0x50d8 <twi_i2cWrite>
    47ba:	88 23       	and	r24, r24
    47bc:	09 f0       	breq	.+2      	; 0x47c0 <mpl115a_open+0x4c>
    47be:	40 c0       	rjmp	.+128    	; 0x4840 <mpl115a_open+0xcc>
    47c0:	80 e6       	ldi	r24, 0x60	; 96
    47c2:	6c e0       	ldi	r22, 0x0C	; 12
    47c4:	70 e0       	ldi	r23, 0x00	; 0
    47c6:	40 e0       	ldi	r20, 0x00	; 0
    47c8:	9e 01       	movw	r18, r28
    47ca:	2f 5f       	subi	r18, 0xFF	; 255
    47cc:	3f 4f       	sbci	r19, 0xFF	; 255
    47ce:	0e 94 10 28 	call	0x5020	; 0x5020 <twi_i2cRead>
    47d2:	88 23       	and	r24, r24
    47d4:	11 f0       	breq	.+4      	; 0x47da <mpl115a_open+0x66>
    47d6:	8c 59       	subi	r24, 0x9C	; 156
    47d8:	33 c0       	rjmp	.+102    	; 0x4840 <mpl115a_open+0xcc>
    47da:	99 81       	ldd	r25, Y+1	; 0x01
    47dc:	90 93 9d 01 	sts	0x019D, r25
    47e0:	9a 81       	ldd	r25, Y+2	; 0x02
    47e2:	90 93 9c 01 	sts	0x019C, r25
    47e6:	9b 81       	ldd	r25, Y+3	; 0x03
    47e8:	90 93 9b 01 	sts	0x019B, r25
    47ec:	9c 81       	ldd	r25, Y+4	; 0x04
    47ee:	90 93 9a 01 	sts	0x019A, r25
    47f2:	9d 81       	ldd	r25, Y+5	; 0x05
    47f4:	90 93 99 01 	sts	0x0199, r25
    47f8:	9e 81       	ldd	r25, Y+6	; 0x06
    47fa:	90 93 98 01 	sts	0x0198, r25
    47fe:	9f 81       	ldd	r25, Y+7	; 0x07
    4800:	90 93 97 01 	sts	0x0197, r25
    4804:	98 85       	ldd	r25, Y+8	; 0x08
    4806:	90 93 96 01 	sts	0x0196, r25
    480a:	99 85       	ldd	r25, Y+9	; 0x09
    480c:	90 93 6c 01 	sts	0x016C, r25
    4810:	9a 85       	ldd	r25, Y+10	; 0x0a
    4812:	90 93 6b 01 	sts	0x016B, r25
    4816:	9b 85       	ldd	r25, Y+11	; 0x0b
    4818:	90 93 6a 01 	sts	0x016A, r25
    481c:	9c 85       	ldd	r25, Y+12	; 0x0c
    481e:	90 93 69 01 	sts	0x0169, r25
    4822:	20 91 6b 01 	lds	r18, 0x016B
    4826:	30 91 6c 01 	lds	r19, 0x016C
    482a:	21 15       	cp	r18, r1
    482c:	31 05       	cpc	r19, r1
    482e:	39 f4       	brne	.+14     	; 0x483e <mpl115a_open+0xca>
    4830:	20 91 69 01 	lds	r18, 0x0169
    4834:	30 91 6a 01 	lds	r19, 0x016A
    4838:	21 15       	cp	r18, r1
    483a:	31 05       	cpc	r19, r1
    483c:	31 f0       	breq	.+12     	; 0x484a <mpl115a_open+0xd6>
    483e:	84 e6       	ldi	r24, 0x64	; 100
    4840:	11 50       	subi	r17, 0x01	; 1
    4842:	09 f0       	breq	.+2      	; 0x4846 <mpl115a_open+0xd2>
    4844:	ac cf       	rjmp	.-168    	; 0x479e <mpl115a_open+0x2a>
    4846:	01 c0       	rjmp	.+2      	; 0x484a <mpl115a_open+0xd6>
    4848:	80 e0       	ldi	r24, 0x00	; 0
    484a:	2c 96       	adiw	r28, 0x0c	; 12
    484c:	0f b6       	in	r0, 0x3f	; 63
    484e:	f8 94       	cli
    4850:	de bf       	out	0x3e, r29	; 62
    4852:	0f be       	out	0x3f, r0	; 63
    4854:	cd bf       	out	0x3d, r28	; 61
    4856:	df 91       	pop	r29
    4858:	cf 91       	pop	r28
    485a:	1f 91       	pop	r17
    485c:	0f 91       	pop	r16
    485e:	08 95       	ret

00004860 <mpl115a_get>:
    4860:	2f 92       	push	r2
    4862:	3f 92       	push	r3
    4864:	4f 92       	push	r4
    4866:	5f 92       	push	r5
    4868:	6f 92       	push	r6
    486a:	7f 92       	push	r7
    486c:	8f 92       	push	r8
    486e:	9f 92       	push	r9
    4870:	af 92       	push	r10
    4872:	bf 92       	push	r11
    4874:	cf 92       	push	r12
    4876:	df 92       	push	r13
    4878:	ef 92       	push	r14
    487a:	ff 92       	push	r15
    487c:	0f 93       	push	r16
    487e:	1f 93       	push	r17
    4880:	cf 93       	push	r28
    4882:	df 93       	push	r29
    4884:	cd b7       	in	r28, 0x3d	; 61
    4886:	de b7       	in	r29, 0x3e	; 62
    4888:	2e 97       	sbiw	r28, 0x0e	; 14
    488a:	0f b6       	in	r0, 0x3f	; 63
    488c:	f8 94       	cli
    488e:	de bf       	out	0x3e, r29	; 62
    4890:	0f be       	out	0x3f, r0	; 63
    4892:	cd bf       	out	0x3d, r28	; 61
    4894:	1c 01       	movw	r2, r24
    4896:	7e 87       	std	Y+14, r23	; 0x0e
    4898:	6d 87       	std	Y+13, r22	; 0x0d
    489a:	03 e0       	ldi	r16, 0x03	; 3
    489c:	22 e1       	ldi	r18, 0x12	; 18
    489e:	82 2e       	mov	r8, r18
    48a0:	cc 24       	eor	r12, r12
    48a2:	c3 94       	inc	r12
    48a4:	8d 82       	std	Y+5, r8	; 0x05
    48a6:	ce 82       	std	Y+6, r12	; 0x06
    48a8:	80 e6       	ldi	r24, 0x60	; 96
    48aa:	62 e0       	ldi	r22, 0x02	; 2
    48ac:	70 e0       	ldi	r23, 0x00	; 0
    48ae:	40 e0       	ldi	r20, 0x00	; 0
    48b0:	9e 01       	movw	r18, r28
    48b2:	2b 5f       	subi	r18, 0xFB	; 251
    48b4:	3f 4f       	sbci	r19, 0xFF	; 255
    48b6:	0e 94 6c 28 	call	0x50d8	; 0x50d8 <twi_i2cWrite>
    48ba:	18 2f       	mov	r17, r24
    48bc:	88 23       	and	r24, r24
    48be:	09 f0       	breq	.+2      	; 0x48c2 <mpl115a_get+0x62>
    48c0:	14 c1       	rjmp	.+552    	; 0x4aea <mpl115a_get+0x28a>
    48c2:	89 ef       	ldi	r24, 0xF9	; 249
    48c4:	90 e0       	ldi	r25, 0x00	; 0
    48c6:	01 97       	sbiw	r24, 0x01	; 1
    48c8:	f1 f7       	brne	.-4      	; 0x48c6 <mpl115a_get+0x66>
    48ca:	00 c0       	rjmp	.+0      	; 0x48cc <mpl115a_get+0x6c>
    48cc:	00 00       	nop
    48ce:	1d 82       	std	Y+5, r1	; 0x05
    48d0:	80 e6       	ldi	r24, 0x60	; 96
    48d2:	61 e0       	ldi	r22, 0x01	; 1
    48d4:	70 e0       	ldi	r23, 0x00	; 0
    48d6:	41 e0       	ldi	r20, 0x01	; 1
    48d8:	9e 01       	movw	r18, r28
    48da:	2b 5f       	subi	r18, 0xFB	; 251
    48dc:	3f 4f       	sbci	r19, 0xFF	; 255
    48de:	0e 94 6c 28 	call	0x50d8	; 0x50d8 <twi_i2cWrite>
    48e2:	88 23       	and	r24, r24
    48e4:	19 f0       	breq	.+6      	; 0x48ec <mpl115a_get+0x8c>
    48e6:	18 2f       	mov	r17, r24
    48e8:	1c 59       	subi	r17, 0x9C	; 156
    48ea:	ff c0       	rjmp	.+510    	; 0x4aea <mpl115a_get+0x28a>
    48ec:	80 e6       	ldi	r24, 0x60	; 96
    48ee:	64 e0       	ldi	r22, 0x04	; 4
    48f0:	70 e0       	ldi	r23, 0x00	; 0
    48f2:	40 e0       	ldi	r20, 0x00	; 0
    48f4:	9e 01       	movw	r18, r28
    48f6:	2b 5f       	subi	r18, 0xFB	; 251
    48f8:	3f 4f       	sbci	r19, 0xFF	; 255
    48fa:	0e 94 10 28 	call	0x5020	; 0x5020 <twi_i2cRead>
    48fe:	18 2f       	mov	r17, r24
    4900:	88 23       	and	r24, r24
    4902:	11 f0       	breq	.+4      	; 0x4908 <mpl115a_get+0xa8>
    4904:	18 53       	subi	r17, 0x38	; 56
    4906:	f1 c0       	rjmp	.+482    	; 0x4aea <mpl115a_get+0x28a>
    4908:	8d 81       	ldd	r24, Y+5	; 0x05
    490a:	8c 83       	std	Y+4, r24	; 0x04
    490c:	8e 81       	ldd	r24, Y+6	; 0x06
    490e:	8b 83       	std	Y+3, r24	; 0x03
    4910:	8f 81       	ldd	r24, Y+7	; 0x07
    4912:	8a 83       	std	Y+2, r24	; 0x02
    4914:	88 85       	ldd	r24, Y+8	; 0x08
    4916:	89 83       	std	Y+1, r24	; 0x01
    4918:	8b 81       	ldd	r24, Y+3	; 0x03
    491a:	9c 81       	ldd	r25, Y+4	; 0x04
    491c:	26 e0       	ldi	r18, 0x06	; 6
    491e:	96 95       	lsr	r25
    4920:	87 95       	ror	r24
    4922:	2a 95       	dec	r18
    4924:	e1 f7       	brne	.-8      	; 0x491e <mpl115a_get+0xbe>
    4926:	9c 01       	movw	r18, r24
    4928:	40 e0       	ldi	r20, 0x00	; 0
    492a:	50 e0       	ldi	r21, 0x00	; 0
    492c:	29 87       	std	Y+9, r18	; 0x09
    492e:	3a 87       	std	Y+10, r19	; 0x0a
    4930:	4b 87       	std	Y+11, r20	; 0x0b
    4932:	5c 87       	std	Y+12, r21	; 0x0c
    4934:	60 91 6b 01 	lds	r22, 0x016B
    4938:	70 91 6c 01 	lds	r23, 0x016C
    493c:	88 27       	eor	r24, r24
    493e:	77 fd       	sbrc	r23, 7
    4940:	80 95       	com	r24
    4942:	98 2f       	mov	r25, r24
    4944:	0e 94 e9 2e 	call	0x5dd2	; 0x5dd2 <__mulsi3>
    4948:	dc 01       	movw	r26, r24
    494a:	cb 01       	movw	r24, r22
    494c:	c0 90 9a 01 	lds	r12, 0x019A
    4950:	d0 90 9b 01 	lds	r13, 0x019B
    4954:	ee 24       	eor	r14, r14
    4956:	d7 fc       	sbrc	r13, 7
    4958:	e0 94       	com	r14
    495a:	fe 2c       	mov	r15, r14
    495c:	ee e0       	ldi	r30, 0x0E	; 14
    495e:	cc 0c       	add	r12, r12
    4960:	dd 1c       	adc	r13, r13
    4962:	ee 1c       	adc	r14, r14
    4964:	ff 1c       	adc	r15, r15
    4966:	ea 95       	dec	r30
    4968:	d1 f7       	brne	.-12     	; 0x495e <mpl115a_get+0xfe>
    496a:	c8 0e       	add	r12, r24
    496c:	d9 1e       	adc	r13, r25
    496e:	ea 1e       	adc	r14, r26
    4970:	fb 1e       	adc	r15, r27
    4972:	fe e0       	ldi	r31, 0x0E	; 14
    4974:	f5 94       	asr	r15
    4976:	e7 94       	ror	r14
    4978:	d7 94       	ror	r13
    497a:	c7 94       	ror	r12
    497c:	fa 95       	dec	r31
    497e:	d1 f7       	brne	.-12     	; 0x4974 <mpl115a_get+0x114>
    4980:	89 81       	ldd	r24, Y+1	; 0x01
    4982:	9a 81       	ldd	r25, Y+2	; 0x02
    4984:	06 e0       	ldi	r16, 0x06	; 6
    4986:	96 95       	lsr	r25
    4988:	87 95       	ror	r24
    498a:	0a 95       	dec	r16
    498c:	e1 f7       	brne	.-8      	; 0x4986 <mpl115a_get+0x126>
    498e:	4c 01       	movw	r8, r24
    4990:	aa 24       	eor	r10, r10
    4992:	bb 24       	eor	r11, r11
    4994:	60 91 96 01 	lds	r22, 0x0196
    4998:	70 91 97 01 	lds	r23, 0x0197
    499c:	88 27       	eor	r24, r24
    499e:	77 fd       	sbrc	r23, 7
    49a0:	80 95       	com	r24
    49a2:	98 2f       	mov	r25, r24
    49a4:	a5 01       	movw	r20, r10
    49a6:	94 01       	movw	r18, r8
    49a8:	0e 94 e9 2e 	call	0x5dd2	; 0x5dd2 <__mulsi3>
    49ac:	dc 01       	movw	r26, r24
    49ae:	cb 01       	movw	r24, r22
    49b0:	eb e0       	ldi	r30, 0x0B	; 11
    49b2:	cc 0c       	add	r12, r12
    49b4:	dd 1c       	adc	r13, r13
    49b6:	ee 1c       	adc	r14, r14
    49b8:	ff 1c       	adc	r15, r15
    49ba:	ea 95       	dec	r30
    49bc:	d1 f7       	brne	.-12     	; 0x49b2 <mpl115a_get+0x152>
    49be:	c8 0e       	add	r12, r24
    49c0:	d9 1e       	adc	r13, r25
    49c2:	ea 1e       	adc	r14, r26
    49c4:	fb 1e       	adc	r15, r27
    49c6:	fb e0       	ldi	r31, 0x0B	; 11
    49c8:	f5 94       	asr	r15
    49ca:	e7 94       	ror	r14
    49cc:	d7 94       	ror	r13
    49ce:	c7 94       	ror	r12
    49d0:	fa 95       	dec	r31
    49d2:	d1 f7       	brne	.-12     	; 0x49c8 <mpl115a_get+0x168>
    49d4:	60 91 69 01 	lds	r22, 0x0169
    49d8:	70 91 6a 01 	lds	r23, 0x016A
    49dc:	88 27       	eor	r24, r24
    49de:	77 fd       	sbrc	r23, 7
    49e0:	80 95       	com	r24
    49e2:	98 2f       	mov	r25, r24
    49e4:	0e 94 e9 2e 	call	0x5dd2	; 0x5dd2 <__mulsi3>
    49e8:	ab 01       	movw	r20, r22
    49ea:	bc 01       	movw	r22, r24
    49ec:	75 95       	asr	r23
    49ee:	67 95       	ror	r22
    49f0:	57 95       	ror	r21
    49f2:	47 95       	ror	r20
    49f4:	80 91 98 01 	lds	r24, 0x0198
    49f8:	90 91 99 01 	lds	r25, 0x0199
    49fc:	aa 27       	eor	r26, r26
    49fe:	97 fd       	sbrc	r25, 7
    4a00:	a0 95       	com	r26
    4a02:	ba 2f       	mov	r27, r26
    4a04:	0f e0       	ldi	r16, 0x0F	; 15
    4a06:	88 0f       	add	r24, r24
    4a08:	99 1f       	adc	r25, r25
    4a0a:	aa 1f       	adc	r26, r26
    4a0c:	bb 1f       	adc	r27, r27
    4a0e:	0a 95       	dec	r16
    4a10:	d1 f7       	brne	.-12     	; 0x4a06 <mpl115a_get+0x1a6>
    4a12:	84 0f       	add	r24, r20
    4a14:	95 1f       	adc	r25, r21
    4a16:	a6 1f       	adc	r26, r22
    4a18:	b7 1f       	adc	r27, r23
    4a1a:	2d 01       	movw	r4, r26
    4a1c:	77 24       	eor	r7, r7
    4a1e:	57 fc       	sbrc	r5, 7
    4a20:	70 94       	com	r7
    4a22:	67 2c       	mov	r6, r7
    4a24:	c7 01       	movw	r24, r14
    4a26:	b6 01       	movw	r22, r12
    4a28:	29 85       	ldd	r18, Y+9	; 0x09
    4a2a:	3a 85       	ldd	r19, Y+10	; 0x0a
    4a2c:	4b 85       	ldd	r20, Y+11	; 0x0b
    4a2e:	5c 85       	ldd	r21, Y+12	; 0x0c
    4a30:	0e 94 e9 2e 	call	0x5dd2	; 0x5dd2 <__mulsi3>
    4a34:	dc 01       	movw	r26, r24
    4a36:	cb 01       	movw	r24, r22
    4a38:	c0 90 9c 01 	lds	r12, 0x019C
    4a3c:	d0 90 9d 01 	lds	r13, 0x019D
    4a40:	ee 24       	eor	r14, r14
    4a42:	d7 fc       	sbrc	r13, 7
    4a44:	e0 94       	com	r14
    4a46:	fe 2c       	mov	r15, r14
    4a48:	fa e0       	ldi	r31, 0x0A	; 10
    4a4a:	cc 0c       	add	r12, r12
    4a4c:	dd 1c       	adc	r13, r13
    4a4e:	ee 1c       	adc	r14, r14
    4a50:	ff 1c       	adc	r15, r15
    4a52:	fa 95       	dec	r31
    4a54:	d1 f7       	brne	.-12     	; 0x4a4a <mpl115a_get+0x1ea>
    4a56:	c8 0e       	add	r12, r24
    4a58:	d9 1e       	adc	r13, r25
    4a5a:	ea 1e       	adc	r14, r26
    4a5c:	fb 1e       	adc	r15, r27
    4a5e:	c3 01       	movw	r24, r6
    4a60:	b2 01       	movw	r22, r4
    4a62:	a5 01       	movw	r20, r10
    4a64:	94 01       	movw	r18, r8
    4a66:	0e 94 e9 2e 	call	0x5dd2	; 0x5dd2 <__mulsi3>
    4a6a:	dc 01       	movw	r26, r24
    4a6c:	cb 01       	movw	r24, r22
    4a6e:	20 e0       	ldi	r18, 0x00	; 0
    4a70:	3c ef       	ldi	r19, 0xFC	; 252
    4a72:	4f ef       	ldi	r20, 0xFF	; 255
    4a74:	5f ef       	ldi	r21, 0xFF	; 255
    4a76:	c2 22       	and	r12, r18
    4a78:	d3 22       	and	r13, r19
    4a7a:	e4 22       	and	r14, r20
    4a7c:	f5 22       	and	r15, r21
    4a7e:	c8 0e       	add	r12, r24
    4a80:	d9 1e       	adc	r13, r25
    4a82:	ea 1e       	adc	r14, r26
    4a84:	fb 1e       	adc	r15, r27
    4a86:	0d e0       	ldi	r16, 0x0D	; 13
    4a88:	f5 94       	asr	r15
    4a8a:	e7 94       	ror	r14
    4a8c:	d7 94       	ror	r13
    4a8e:	c7 94       	ror	r12
    4a90:	0a 95       	dec	r16
    4a92:	d1 f7       	brne	.-12     	; 0x4a88 <mpl115a_get+0x228>
    4a94:	b6 01       	movw	r22, r12
    4a96:	88 27       	eor	r24, r24
    4a98:	77 fd       	sbrc	r23, 7
    4a9a:	80 95       	com	r24
    4a9c:	98 2f       	mov	r25, r24
    4a9e:	2a e8       	ldi	r18, 0x8A	; 138
    4aa0:	32 e0       	ldi	r19, 0x02	; 2
    4aa2:	40 e0       	ldi	r20, 0x00	; 0
    4aa4:	50 e0       	ldi	r21, 0x00	; 0
    4aa6:	0e 94 e9 2e 	call	0x5dd2	; 0x5dd2 <__mulsi3>
    4aaa:	2f ef       	ldi	r18, 0xFF	; 255
    4aac:	33 e0       	ldi	r19, 0x03	; 3
    4aae:	40 e0       	ldi	r20, 0x00	; 0
    4ab0:	50 e0       	ldi	r21, 0x00	; 0
    4ab2:	0e 94 5d 2f 	call	0x5eba	; 0x5eba <__divmodsi4>
    4ab6:	2c 50       	subi	r18, 0x0C	; 12
    4ab8:	3e 4f       	sbci	r19, 0xFE	; 254
    4aba:	f1 01       	movw	r30, r2
    4abc:	31 83       	std	Z+1, r19	; 0x01
    4abe:	20 83       	st	Z, r18
    4ac0:	c5 01       	movw	r24, r10
    4ac2:	b4 01       	movw	r22, r8
    4ac4:	25 e4       	ldi	r18, 0x45	; 69
    4ac6:	3f ef       	ldi	r19, 0xFF	; 255
    4ac8:	4f ef       	ldi	r20, 0xFF	; 255
    4aca:	5f ef       	ldi	r21, 0xFF	; 255
    4acc:	0e 94 e9 2e 	call	0x5dd2	; 0x5dd2 <__mulsi3>
    4ad0:	24 e6       	ldi	r18, 0x64	; 100
    4ad2:	30 e0       	ldi	r19, 0x00	; 0
    4ad4:	40 e0       	ldi	r20, 0x00	; 0
    4ad6:	50 e0       	ldi	r21, 0x00	; 0
    4ad8:	0e 94 5d 2f 	call	0x5eba	; 0x5eba <__divmodsi4>
    4adc:	2a 55       	subi	r18, 0x5A	; 90
    4ade:	3b 4f       	sbci	r19, 0xFB	; 251
    4ae0:	ed 85       	ldd	r30, Y+13	; 0x0d
    4ae2:	fe 85       	ldd	r31, Y+14	; 0x0e
    4ae4:	31 83       	std	Z+1, r19	; 0x01
    4ae6:	20 83       	st	Z, r18
    4ae8:	03 c0       	rjmp	.+6      	; 0x4af0 <mpl115a_get+0x290>
    4aea:	01 50       	subi	r16, 0x01	; 1
    4aec:	09 f0       	breq	.+2      	; 0x4af0 <mpl115a_get+0x290>
    4aee:	da ce       	rjmp	.-588    	; 0x48a4 <mpl115a_get+0x44>
    4af0:	81 2f       	mov	r24, r17
    4af2:	2e 96       	adiw	r28, 0x0e	; 14
    4af4:	0f b6       	in	r0, 0x3f	; 63
    4af6:	f8 94       	cli
    4af8:	de bf       	out	0x3e, r29	; 62
    4afa:	0f be       	out	0x3f, r0	; 63
    4afc:	cd bf       	out	0x3d, r28	; 61
    4afe:	df 91       	pop	r29
    4b00:	cf 91       	pop	r28
    4b02:	1f 91       	pop	r17
    4b04:	0f 91       	pop	r16
    4b06:	ff 90       	pop	r15
    4b08:	ef 90       	pop	r14
    4b0a:	df 90       	pop	r13
    4b0c:	cf 90       	pop	r12
    4b0e:	bf 90       	pop	r11
    4b10:	af 90       	pop	r10
    4b12:	9f 90       	pop	r9
    4b14:	8f 90       	pop	r8
    4b16:	7f 90       	pop	r7
    4b18:	6f 90       	pop	r6
    4b1a:	5f 90       	pop	r5
    4b1c:	4f 90       	pop	r4
    4b1e:	3f 90       	pop	r3
    4b20:	2f 90       	pop	r2
    4b22:	08 95       	ret

00004b24 <mpl115a_close>:
    4b24:	0e 94 c0 28 	call	0x5180	; 0x5180 <twi_i2cStop>
    4b28:	08 95       	ret

00004b2a <ST7032i_Write>:
    4b2a:	ff 92       	push	r15
    4b2c:	0f 93       	push	r16
    4b2e:	1f 93       	push	r17
    4b30:	cf 93       	push	r28
    4b32:	df 93       	push	r29
    4b34:	00 d0       	rcall	.+0      	; 0x4b36 <ST7032i_Write+0xc>
    4b36:	cd b7       	in	r28, 0x3d	; 61
    4b38:	de b7       	in	r29, 0x3e	; 62
    4b3a:	f8 2e       	mov	r15, r24
    4b3c:	06 2f       	mov	r16, r22
    4b3e:	13 e0       	ldi	r17, 0x03	; 3
    4b40:	09 83       	std	Y+1, r16	; 0x01
    4b42:	fa 82       	std	Y+2, r15	; 0x02
    4b44:	8e e3       	ldi	r24, 0x3E	; 62
    4b46:	62 e0       	ldi	r22, 0x02	; 2
    4b48:	70 e0       	ldi	r23, 0x00	; 0
    4b4a:	40 e0       	ldi	r20, 0x00	; 0
    4b4c:	9e 01       	movw	r18, r28
    4b4e:	2f 5f       	subi	r18, 0xFF	; 255
    4b50:	3f 4f       	sbci	r19, 0xFF	; 255
    4b52:	0e 94 6c 28 	call	0x50d8	; 0x50d8 <twi_i2cWrite>
    4b56:	88 23       	and	r24, r24
    4b58:	11 f0       	breq	.+4      	; 0x4b5e <ST7032i_Write+0x34>
    4b5a:	11 50       	subi	r17, 0x01	; 1
    4b5c:	89 f7       	brne	.-30     	; 0x4b40 <ST7032i_Write+0x16>
    4b5e:	0f 90       	pop	r0
    4b60:	0f 90       	pop	r0
    4b62:	df 91       	pop	r29
    4b64:	cf 91       	pop	r28
    4b66:	1f 91       	pop	r17
    4b68:	0f 91       	pop	r16
    4b6a:	ff 90       	pop	r15
    4b6c:	08 95       	ret

00004b6e <ST7032i_Init>:
    4b6e:	cf 93       	push	r28
    4b70:	c4 e0       	ldi	r28, 0x04	; 4
    4b72:	c0 93 24 05 	sts	0x0524, r28
    4b76:	88 e1       	ldi	r24, 0x18	; 24
    4b78:	80 93 28 05 	sts	0x0528, r24
    4b7c:	89 e1       	ldi	r24, 0x19	; 25
    4b7e:	80 93 27 05 	sts	0x0527, r24
    4b82:	88 e2       	ldi	r24, 0x28	; 40
    4b84:	90 e0       	ldi	r25, 0x00	; 0
    4b86:	0e 94 2e 01 	call	0x25c	; 0x25c <wait_ms>
    4b8a:	80 91 28 05 	lds	r24, 0x0528
    4b8e:	80 62       	ori	r24, 0x20	; 32
    4b90:	60 e0       	ldi	r22, 0x00	; 0
    4b92:	0e 94 95 25 	call	0x4b2a	; 0x4b2a <ST7032i_Write>
    4b96:	8e e1       	ldi	r24, 0x1E	; 30
    4b98:	90 e0       	ldi	r25, 0x00	; 0
    4b9a:	0e 94 2e 01 	call	0x25c	; 0x25c <wait_ms>
    4b9e:	80 91 27 05 	lds	r24, 0x0527
    4ba2:	80 62       	ori	r24, 0x20	; 32
    4ba4:	60 e0       	ldi	r22, 0x00	; 0
    4ba6:	0e 94 95 25 	call	0x4b2a	; 0x4b2a <ST7032i_Write>
    4baa:	8e e1       	ldi	r24, 0x1E	; 30
    4bac:	90 e0       	ldi	r25, 0x00	; 0
    4bae:	0e 94 2e 01 	call	0x25c	; 0x25c <wait_ms>
    4bb2:	84 e1       	ldi	r24, 0x14	; 20
    4bb4:	60 e0       	ldi	r22, 0x00	; 0
    4bb6:	0e 94 95 25 	call	0x4b2a	; 0x4b2a <ST7032i_Write>
    4bba:	8e e1       	ldi	r24, 0x1E	; 30
    4bbc:	90 e0       	ldi	r25, 0x00	; 0
    4bbe:	0e 94 2e 01 	call	0x25c	; 0x25c <wait_ms>
    4bc2:	8d e7       	ldi	r24, 0x7D	; 125
    4bc4:	60 e0       	ldi	r22, 0x00	; 0
    4bc6:	0e 94 95 25 	call	0x4b2a	; 0x4b2a <ST7032i_Write>
    4bca:	8e e1       	ldi	r24, 0x1E	; 30
    4bcc:	90 e0       	ldi	r25, 0x00	; 0
    4bce:	0e 94 2e 01 	call	0x25c	; 0x25c <wait_ms>
    4bd2:	8e e5       	ldi	r24, 0x5E	; 94
    4bd4:	60 e0       	ldi	r22, 0x00	; 0
    4bd6:	0e 94 95 25 	call	0x4b2a	; 0x4b2a <ST7032i_Write>
    4bda:	8e e1       	ldi	r24, 0x1E	; 30
    4bdc:	90 e0       	ldi	r25, 0x00	; 0
    4bde:	0e 94 2e 01 	call	0x25c	; 0x25c <wait_ms>
    4be2:	c0 93 26 05 	sts	0x0526, r28
    4be6:	8c e6       	ldi	r24, 0x6C	; 108
    4be8:	60 e0       	ldi	r22, 0x00	; 0
    4bea:	0e 94 95 25 	call	0x4b2a	; 0x4b2a <ST7032i_Write>
    4bee:	88 ec       	ldi	r24, 0xC8	; 200
    4bf0:	90 e0       	ldi	r25, 0x00	; 0
    4bf2:	0e 94 2e 01 	call	0x25c	; 0x25c <wait_ms>
    4bf6:	80 91 28 05 	lds	r24, 0x0528
    4bfa:	80 62       	ori	r24, 0x20	; 32
    4bfc:	60 e0       	ldi	r22, 0x00	; 0
    4bfe:	0e 94 95 25 	call	0x4b2a	; 0x4b2a <ST7032i_Write>
    4c02:	8e e1       	ldi	r24, 0x1E	; 30
    4c04:	90 e0       	ldi	r25, 0x00	; 0
    4c06:	0e 94 2e 01 	call	0x25c	; 0x25c <wait_ms>
    4c0a:	8c e0       	ldi	r24, 0x0C	; 12
    4c0c:	60 e0       	ldi	r22, 0x00	; 0
    4c0e:	0e 94 95 25 	call	0x4b2a	; 0x4b2a <ST7032i_Write>
    4c12:	8e e1       	ldi	r24, 0x1E	; 30
    4c14:	90 e0       	ldi	r25, 0x00	; 0
    4c16:	0e 94 2e 01 	call	0x25c	; 0x25c <wait_ms>
    4c1a:	82 e0       	ldi	r24, 0x02	; 2
    4c1c:	80 93 25 05 	sts	0x0525, r24
    4c20:	86 e0       	ldi	r24, 0x06	; 6
    4c22:	60 e0       	ldi	r22, 0x00	; 0
    4c24:	0e 94 95 25 	call	0x4b2a	; 0x4b2a <ST7032i_Write>
    4c28:	8e e1       	ldi	r24, 0x1E	; 30
    4c2a:	90 e0       	ldi	r25, 0x00	; 0
    4c2c:	0e 94 2e 01 	call	0x25c	; 0x25c <wait_ms>
    4c30:	cf 91       	pop	r28
    4c32:	08 95       	ret

00004c34 <ST7032i_Clear>:
    4c34:	81 e0       	ldi	r24, 0x01	; 1
    4c36:	60 e0       	ldi	r22, 0x00	; 0
    4c38:	0e 94 95 25 	call	0x4b2a	; 0x4b2a <ST7032i_Write>
    4c3c:	82 e0       	ldi	r24, 0x02	; 2
    4c3e:	90 e0       	ldi	r25, 0x00	; 0
    4c40:	0e 94 2e 01 	call	0x25c	; 0x25c <wait_ms>
    4c44:	08 95       	ret

00004c46 <ST7032i_Home>:
    4c46:	82 e0       	ldi	r24, 0x02	; 2
    4c48:	60 e0       	ldi	r22, 0x00	; 0
    4c4a:	0e 94 95 25 	call	0x4b2a	; 0x4b2a <ST7032i_Write>
    4c4e:	82 e0       	ldi	r24, 0x02	; 2
    4c50:	90 e0       	ldi	r25, 0x00	; 0
    4c52:	0e 94 2e 01 	call	0x25c	; 0x25c <wait_ms>
    4c56:	08 95       	ret

00004c58 <ST7032i_setCursor>:
    4c58:	cf 93       	push	r28
    4c5a:	df 93       	push	r29
    4c5c:	cd b7       	in	r28, 0x3d	; 61
    4c5e:	de b7       	in	r29, 0x3e	; 62
    4c60:	28 97       	sbiw	r28, 0x08	; 8
    4c62:	0f b6       	in	r0, 0x3f	; 63
    4c64:	f8 94       	cli
    4c66:	de bf       	out	0x3e, r29	; 62
    4c68:	0f be       	out	0x3f, r0	; 63
    4c6a:	cd bf       	out	0x3d, r28	; 61
    4c6c:	fe 01       	movw	r30, r28
    4c6e:	31 96       	adiw	r30, 0x01	; 1
    4c70:	ad e6       	ldi	r26, 0x6D	; 109
    4c72:	b1 e0       	ldi	r27, 0x01	; 1
    4c74:	98 e0       	ldi	r25, 0x08	; 8
    4c76:	0d 90       	ld	r0, X+
    4c78:	01 92       	st	Z+, r0
    4c7a:	91 50       	subi	r25, 0x01	; 1
    4c7c:	e1 f7       	brne	.-8      	; 0x4c76 <ST7032i_setCursor+0x1e>
    4c7e:	63 30       	cpi	r22, 0x03	; 3
    4c80:	08 f0       	brcs	.+2      	; 0x4c84 <ST7032i_setCursor+0x2c>
    4c82:	61 e0       	ldi	r22, 0x01	; 1
    4c84:	e6 2f       	mov	r30, r22
    4c86:	f0 e0       	ldi	r31, 0x00	; 0
    4c88:	ee 0f       	add	r30, r30
    4c8a:	ff 1f       	adc	r31, r31
    4c8c:	ec 0f       	add	r30, r28
    4c8e:	fd 1f       	adc	r31, r29
    4c90:	91 81       	ldd	r25, Z+1	; 0x01
    4c92:	98 0f       	add	r25, r24
    4c94:	89 2f       	mov	r24, r25
    4c96:	80 68       	ori	r24, 0x80	; 128
    4c98:	60 e0       	ldi	r22, 0x00	; 0
    4c9a:	0e 94 95 25 	call	0x4b2a	; 0x4b2a <ST7032i_Write>
    4c9e:	8e e1       	ldi	r24, 0x1E	; 30
    4ca0:	90 e0       	ldi	r25, 0x00	; 0
    4ca2:	0e 94 2e 01 	call	0x25c	; 0x25c <wait_ms>
    4ca6:	28 96       	adiw	r28, 0x08	; 8
    4ca8:	0f b6       	in	r0, 0x3f	; 63
    4caa:	f8 94       	cli
    4cac:	de bf       	out	0x3e, r29	; 62
    4cae:	0f be       	out	0x3f, r0	; 63
    4cb0:	cd bf       	out	0x3d, r28	; 61
    4cb2:	df 91       	pop	r29
    4cb4:	cf 91       	pop	r28
    4cb6:	08 95       	ret

00004cb8 <ST7032i_onDisplay>:
    4cb8:	80 91 24 05 	lds	r24, 0x0524
    4cbc:	98 2f       	mov	r25, r24
    4cbe:	94 60       	ori	r25, 0x04	; 4
    4cc0:	90 93 24 05 	sts	0x0524, r25
    4cc4:	8c 60       	ori	r24, 0x0C	; 12
    4cc6:	60 e0       	ldi	r22, 0x00	; 0
    4cc8:	0e 94 95 25 	call	0x4b2a	; 0x4b2a <ST7032i_Write>
    4ccc:	8e e1       	ldi	r24, 0x1E	; 30
    4cce:	90 e0       	ldi	r25, 0x00	; 0
    4cd0:	0e 94 2e 01 	call	0x25c	; 0x25c <wait_ms>
    4cd4:	08 95       	ret

00004cd6 <ST7032i_offDisplay>:
    4cd6:	80 91 24 05 	lds	r24, 0x0524
    4cda:	8b 7f       	andi	r24, 0xFB	; 251
    4cdc:	80 93 24 05 	sts	0x0524, r24
    4ce0:	88 60       	ori	r24, 0x08	; 8
    4ce2:	60 e0       	ldi	r22, 0x00	; 0
    4ce4:	0e 94 95 25 	call	0x4b2a	; 0x4b2a <ST7032i_Write>
    4ce8:	8e e1       	ldi	r24, 0x1E	; 30
    4cea:	90 e0       	ldi	r25, 0x00	; 0
    4cec:	0e 94 2e 01 	call	0x25c	; 0x25c <wait_ms>
    4cf0:	08 95       	ret

00004cf2 <ST7032i_onCursor>:
    4cf2:	80 91 24 05 	lds	r24, 0x0524
    4cf6:	98 2f       	mov	r25, r24
    4cf8:	92 60       	ori	r25, 0x02	; 2
    4cfa:	90 93 24 05 	sts	0x0524, r25
    4cfe:	8a 60       	ori	r24, 0x0A	; 10
    4d00:	60 e0       	ldi	r22, 0x00	; 0
    4d02:	0e 94 95 25 	call	0x4b2a	; 0x4b2a <ST7032i_Write>
    4d06:	8e e1       	ldi	r24, 0x1E	; 30
    4d08:	90 e0       	ldi	r25, 0x00	; 0
    4d0a:	0e 94 2e 01 	call	0x25c	; 0x25c <wait_ms>
    4d0e:	08 95       	ret

00004d10 <ST7032i_offCursor>:
    4d10:	80 91 24 05 	lds	r24, 0x0524
    4d14:	8d 7f       	andi	r24, 0xFD	; 253
    4d16:	80 93 24 05 	sts	0x0524, r24
    4d1a:	88 60       	ori	r24, 0x08	; 8
    4d1c:	60 e0       	ldi	r22, 0x00	; 0
    4d1e:	0e 94 95 25 	call	0x4b2a	; 0x4b2a <ST7032i_Write>
    4d22:	8e e1       	ldi	r24, 0x1E	; 30
    4d24:	90 e0       	ldi	r25, 0x00	; 0
    4d26:	0e 94 2e 01 	call	0x25c	; 0x25c <wait_ms>
    4d2a:	08 95       	ret

00004d2c <ST7032i_onBlink>:
    4d2c:	80 91 24 05 	lds	r24, 0x0524
    4d30:	98 2f       	mov	r25, r24
    4d32:	91 60       	ori	r25, 0x01	; 1
    4d34:	90 93 24 05 	sts	0x0524, r25
    4d38:	89 60       	ori	r24, 0x09	; 9
    4d3a:	60 e0       	ldi	r22, 0x00	; 0
    4d3c:	0e 94 95 25 	call	0x4b2a	; 0x4b2a <ST7032i_Write>
    4d40:	8e e1       	ldi	r24, 0x1E	; 30
    4d42:	90 e0       	ldi	r25, 0x00	; 0
    4d44:	0e 94 2e 01 	call	0x25c	; 0x25c <wait_ms>
    4d48:	08 95       	ret

00004d4a <ST7032i_offBlink>:
    4d4a:	80 91 24 05 	lds	r24, 0x0524
    4d4e:	8e 7f       	andi	r24, 0xFE	; 254
    4d50:	80 93 24 05 	sts	0x0524, r24
    4d54:	88 60       	ori	r24, 0x08	; 8
    4d56:	60 e0       	ldi	r22, 0x00	; 0
    4d58:	0e 94 95 25 	call	0x4b2a	; 0x4b2a <ST7032i_Write>
    4d5c:	8e e1       	ldi	r24, 0x1E	; 30
    4d5e:	90 e0       	ldi	r25, 0x00	; 0
    4d60:	0e 94 2e 01 	call	0x25c	; 0x25c <wait_ms>
    4d64:	08 95       	ret

00004d66 <ST7032i_scrollDisplayLeft>:
    4d66:	80 91 28 05 	lds	r24, 0x0528
    4d6a:	80 62       	ori	r24, 0x20	; 32
    4d6c:	60 e0       	ldi	r22, 0x00	; 0
    4d6e:	0e 94 95 25 	call	0x4b2a	; 0x4b2a <ST7032i_Write>
    4d72:	8e e1       	ldi	r24, 0x1E	; 30
    4d74:	90 e0       	ldi	r25, 0x00	; 0
    4d76:	0e 94 2e 01 	call	0x25c	; 0x25c <wait_ms>
    4d7a:	88 e1       	ldi	r24, 0x18	; 24
    4d7c:	60 e0       	ldi	r22, 0x00	; 0
    4d7e:	0e 94 95 25 	call	0x4b2a	; 0x4b2a <ST7032i_Write>
    4d82:	8e e1       	ldi	r24, 0x1E	; 30
    4d84:	90 e0       	ldi	r25, 0x00	; 0
    4d86:	0e 94 2e 01 	call	0x25c	; 0x25c <wait_ms>
    4d8a:	08 95       	ret

00004d8c <ST7032i_scrollDisplayRight>:
    4d8c:	80 91 28 05 	lds	r24, 0x0528
    4d90:	80 62       	ori	r24, 0x20	; 32
    4d92:	60 e0       	ldi	r22, 0x00	; 0
    4d94:	0e 94 95 25 	call	0x4b2a	; 0x4b2a <ST7032i_Write>
    4d98:	8e e1       	ldi	r24, 0x1E	; 30
    4d9a:	90 e0       	ldi	r25, 0x00	; 0
    4d9c:	0e 94 2e 01 	call	0x25c	; 0x25c <wait_ms>
    4da0:	8c e1       	ldi	r24, 0x1C	; 28
    4da2:	60 e0       	ldi	r22, 0x00	; 0
    4da4:	0e 94 95 25 	call	0x4b2a	; 0x4b2a <ST7032i_Write>
    4da8:	8e e1       	ldi	r24, 0x1E	; 30
    4daa:	90 e0       	ldi	r25, 0x00	; 0
    4dac:	0e 94 2e 01 	call	0x25c	; 0x25c <wait_ms>
    4db0:	08 95       	ret

00004db2 <ST7032i_leftToRight>:
    4db2:	80 91 25 05 	lds	r24, 0x0525
    4db6:	98 2f       	mov	r25, r24
    4db8:	92 60       	ori	r25, 0x02	; 2
    4dba:	90 93 25 05 	sts	0x0525, r25
    4dbe:	86 60       	ori	r24, 0x06	; 6
    4dc0:	60 e0       	ldi	r22, 0x00	; 0
    4dc2:	0e 94 95 25 	call	0x4b2a	; 0x4b2a <ST7032i_Write>
    4dc6:	8e e1       	ldi	r24, 0x1E	; 30
    4dc8:	90 e0       	ldi	r25, 0x00	; 0
    4dca:	0e 94 2e 01 	call	0x25c	; 0x25c <wait_ms>
    4dce:	08 95       	ret

00004dd0 <ST7032i_rightToLeft>:
    4dd0:	80 91 25 05 	lds	r24, 0x0525
    4dd4:	8d 7f       	andi	r24, 0xFD	; 253
    4dd6:	80 93 25 05 	sts	0x0525, r24
    4dda:	84 60       	ori	r24, 0x04	; 4
    4ddc:	60 e0       	ldi	r22, 0x00	; 0
    4dde:	0e 94 95 25 	call	0x4b2a	; 0x4b2a <ST7032i_Write>
    4de2:	8e e1       	ldi	r24, 0x1E	; 30
    4de4:	90 e0       	ldi	r25, 0x00	; 0
    4de6:	0e 94 2e 01 	call	0x25c	; 0x25c <wait_ms>
    4dea:	08 95       	ret

00004dec <ST7032i_onAutoscroll>:
    4dec:	80 91 25 05 	lds	r24, 0x0525
    4df0:	98 2f       	mov	r25, r24
    4df2:	91 60       	ori	r25, 0x01	; 1
    4df4:	90 93 25 05 	sts	0x0525, r25
    4df8:	85 60       	ori	r24, 0x05	; 5
    4dfa:	60 e0       	ldi	r22, 0x00	; 0
    4dfc:	0e 94 95 25 	call	0x4b2a	; 0x4b2a <ST7032i_Write>
    4e00:	8e e1       	ldi	r24, 0x1E	; 30
    4e02:	90 e0       	ldi	r25, 0x00	; 0
    4e04:	0e 94 2e 01 	call	0x25c	; 0x25c <wait_ms>
    4e08:	08 95       	ret

00004e0a <ST7032i_offAutoscroll>:
    4e0a:	80 91 25 05 	lds	r24, 0x0525
    4e0e:	8e 7f       	andi	r24, 0xFE	; 254
    4e10:	80 93 25 05 	sts	0x0525, r24
    4e14:	84 60       	ori	r24, 0x04	; 4
    4e16:	60 e0       	ldi	r22, 0x00	; 0
    4e18:	0e 94 95 25 	call	0x4b2a	; 0x4b2a <ST7032i_Write>
    4e1c:	8e e1       	ldi	r24, 0x1E	; 30
    4e1e:	90 e0       	ldi	r25, 0x00	; 0
    4e20:	0e 94 2e 01 	call	0x25c	; 0x25c <wait_ms>
    4e24:	08 95       	ret

00004e26 <ST7032i_createChar>:
    4e26:	ef 92       	push	r14
    4e28:	ff 92       	push	r15
    4e2a:	0f 93       	push	r16
    4e2c:	1f 93       	push	r17
    4e2e:	cf 93       	push	r28
    4e30:	df 93       	push	r29
    4e32:	0f 92       	push	r0
    4e34:	cd b7       	in	r28, 0x3d	; 61
    4e36:	de b7       	in	r29, 0x3e	; 62
    4e38:	e6 2e       	mov	r14, r22
    4e3a:	87 70       	andi	r24, 0x07	; 7
    4e3c:	88 0f       	add	r24, r24
    4e3e:	88 0f       	add	r24, r24
    4e40:	88 0f       	add	r24, r24
    4e42:	80 64       	ori	r24, 0x40	; 64
    4e44:	60 e0       	ldi	r22, 0x00	; 0
    4e46:	79 83       	std	Y+1, r23	; 0x01
    4e48:	0e 94 95 25 	call	0x4b2a	; 0x4b2a <ST7032i_Write>
    4e4c:	8e e1       	ldi	r24, 0x1E	; 30
    4e4e:	90 e0       	ldi	r25, 0x00	; 0
    4e50:	0e 94 2e 01 	call	0x25c	; 0x25c <wait_ms>
    4e54:	0e 2d       	mov	r16, r14
    4e56:	79 81       	ldd	r23, Y+1	; 0x01
    4e58:	17 2f       	mov	r17, r23
    4e5a:	ee 24       	eor	r14, r14
    4e5c:	ff 24       	eor	r15, r15
    4e5e:	f8 01       	movw	r30, r16
    4e60:	81 91       	ld	r24, Z+
    4e62:	8f 01       	movw	r16, r30
    4e64:	60 e4       	ldi	r22, 0x40	; 64
    4e66:	0e 94 95 25 	call	0x4b2a	; 0x4b2a <ST7032i_Write>
    4e6a:	8e e1       	ldi	r24, 0x1E	; 30
    4e6c:	90 e0       	ldi	r25, 0x00	; 0
    4e6e:	0e 94 2e 01 	call	0x25c	; 0x25c <wait_ms>
    4e72:	08 94       	sec
    4e74:	e1 1c       	adc	r14, r1
    4e76:	f1 1c       	adc	r15, r1
    4e78:	f8 e0       	ldi	r31, 0x08	; 8
    4e7a:	ef 16       	cp	r14, r31
    4e7c:	f1 04       	cpc	r15, r1
    4e7e:	79 f7       	brne	.-34     	; 0x4e5e <ST7032i_createChar+0x38>
    4e80:	0f 90       	pop	r0
    4e82:	df 91       	pop	r29
    4e84:	cf 91       	pop	r28
    4e86:	1f 91       	pop	r17
    4e88:	0f 91       	pop	r16
    4e8a:	ff 90       	pop	r15
    4e8c:	ef 90       	pop	r14
    4e8e:	08 95       	ret

00004e90 <ST7032i_setContrast>:
    4e90:	cf 93       	push	r28
    4e92:	c8 2f       	mov	r28, r24
    4e94:	80 91 27 05 	lds	r24, 0x0527
    4e98:	80 62       	ori	r24, 0x20	; 32
    4e9a:	60 e0       	ldi	r22, 0x00	; 0
    4e9c:	0e 94 95 25 	call	0x4b2a	; 0x4b2a <ST7032i_Write>
    4ea0:	8e e1       	ldi	r24, 0x1E	; 30
    4ea2:	90 e0       	ldi	r25, 0x00	; 0
    4ea4:	0e 94 2e 01 	call	0x25c	; 0x25c <wait_ms>
    4ea8:	8c 2f       	mov	r24, r28
    4eaa:	82 95       	swap	r24
    4eac:	83 70       	andi	r24, 0x03	; 3
    4eae:	8c 65       	ori	r24, 0x5C	; 92
    4eb0:	60 e0       	ldi	r22, 0x00	; 0
    4eb2:	0e 94 95 25 	call	0x4b2a	; 0x4b2a <ST7032i_Write>
    4eb6:	8e e1       	ldi	r24, 0x1E	; 30
    4eb8:	90 e0       	ldi	r25, 0x00	; 0
    4eba:	0e 94 2e 01 	call	0x25c	; 0x25c <wait_ms>
    4ebe:	8c 2f       	mov	r24, r28
    4ec0:	8f 70       	andi	r24, 0x0F	; 15
    4ec2:	80 67       	ori	r24, 0x70	; 112
    4ec4:	60 e0       	ldi	r22, 0x00	; 0
    4ec6:	0e 94 95 25 	call	0x4b2a	; 0x4b2a <ST7032i_Write>
    4eca:	8e e1       	ldi	r24, 0x1E	; 30
    4ecc:	90 e0       	ldi	r25, 0x00	; 0
    4ece:	0e 94 2e 01 	call	0x25c	; 0x25c <wait_ms>
    4ed2:	cf 91       	pop	r28
    4ed4:	08 95       	ret

00004ed6 <ST7032i_puts>:
    4ed6:	cf 93       	push	r28
    4ed8:	df 93       	push	r29
    4eda:	ec 01       	movw	r28, r24
    4edc:	03 c0       	rjmp	.+6      	; 0x4ee4 <ST7032i_puts+0xe>
    4ede:	60 e4       	ldi	r22, 0x40	; 64
    4ee0:	0e 94 95 25 	call	0x4b2a	; 0x4b2a <ST7032i_Write>
    4ee4:	89 91       	ld	r24, Y+
    4ee6:	88 23       	and	r24, r24
    4ee8:	d1 f7       	brne	.-12     	; 0x4ede <ST7032i_puts+0x8>
    4eea:	df 91       	pop	r29
    4eec:	cf 91       	pop	r28
    4eee:	08 95       	ret

00004ef0 <ST7032i_puts_p>:
    4ef0:	cf 93       	push	r28
    4ef2:	df 93       	push	r29
    4ef4:	ec 01       	movw	r28, r24
    4ef6:	03 c0       	rjmp	.+6      	; 0x4efe <ST7032i_puts_p+0xe>
    4ef8:	60 e4       	ldi	r22, 0x40	; 64
    4efa:	0e 94 95 25 	call	0x4b2a	; 0x4b2a <ST7032i_Write>
    4efe:	fe 01       	movw	r30, r28
    4f00:	21 96       	adiw	r28, 0x01	; 1
    4f02:	84 91       	lpm	r24, Z
    4f04:	88 23       	and	r24, r24
    4f06:	c1 f7       	brne	.-16     	; 0x4ef8 <ST7032i_puts_p+0x8>
    4f08:	df 91       	pop	r29
    4f0a:	cf 91       	pop	r28
    4f0c:	08 95       	ret

00004f0e <ST7032i_Icon>:
    4f0e:	1f 93       	push	r17
    4f10:	cf 93       	push	r28
    4f12:	df 93       	push	r29
    4f14:	c8 2f       	mov	r28, r24
    4f16:	16 2f       	mov	r17, r22
    4f18:	89 e3       	ldi	r24, 0x39	; 57
    4f1a:	60 e0       	ldi	r22, 0x00	; 0
    4f1c:	0e 94 95 25 	call	0x4b2a	; 0x4b2a <ST7032i_Write>
    4f20:	d0 e0       	ldi	r29, 0x00	; 0
    4f22:	cc 0f       	add	r28, r28
    4f24:	dd 1f       	adc	r29, r29
    4f26:	cb 58       	subi	r28, 0x8B	; 139
    4f28:	de 4f       	sbci	r29, 0xFE	; 254
    4f2a:	88 81       	ld	r24, Y
    4f2c:	80 64       	ori	r24, 0x40	; 64
    4f2e:	60 e0       	ldi	r22, 0x00	; 0
    4f30:	0e 94 95 25 	call	0x4b2a	; 0x4b2a <ST7032i_Write>
    4f34:	11 23       	and	r17, r17
    4f36:	11 f0       	breq	.+4      	; 0x4f3c <ST7032i_Icon+0x2e>
    4f38:	89 81       	ldd	r24, Y+1	; 0x01
    4f3a:	01 c0       	rjmp	.+2      	; 0x4f3e <ST7032i_Icon+0x30>
    4f3c:	80 e0       	ldi	r24, 0x00	; 0
    4f3e:	60 e4       	ldi	r22, 0x40	; 64
    4f40:	0e 94 95 25 	call	0x4b2a	; 0x4b2a <ST7032i_Write>
    4f44:	88 e3       	ldi	r24, 0x38	; 56
    4f46:	60 e0       	ldi	r22, 0x00	; 0
    4f48:	0e 94 95 25 	call	0x4b2a	; 0x4b2a <ST7032i_Write>
    4f4c:	df 91       	pop	r29
    4f4e:	cf 91       	pop	r28
    4f50:	1f 91       	pop	r17
    4f52:	08 95       	ret

00004f54 <ST7032i_Power_Icon>:
    4f54:	cf 93       	push	r28
    4f56:	df 93       	push	r29
    4f58:	d6 2f       	mov	r29, r22
    4f5a:	81 50       	subi	r24, 0x01	; 1
    4f5c:	83 30       	cpi	r24, 0x03	; 3
    4f5e:	30 f4       	brcc	.+12     	; 0x4f6c <ST7032i_Power_Icon+0x18>
    4f60:	e8 2f       	mov	r30, r24
    4f62:	f0 e0       	ldi	r31, 0x00	; 0
    4f64:	e9 57       	subi	r30, 0x79	; 121
    4f66:	fe 4f       	sbci	r31, 0xFE	; 254
    4f68:	c0 81       	ld	r28, Z
    4f6a:	01 c0       	rjmp	.+2      	; 0x4f6e <ST7032i_Power_Icon+0x1a>
    4f6c:	c2 e0       	ldi	r28, 0x02	; 2
    4f6e:	89 e3       	ldi	r24, 0x39	; 57
    4f70:	60 e0       	ldi	r22, 0x00	; 0
    4f72:	0e 94 95 25 	call	0x4b2a	; 0x4b2a <ST7032i_Write>
    4f76:	8d e4       	ldi	r24, 0x4D	; 77
    4f78:	60 e0       	ldi	r22, 0x00	; 0
    4f7a:	0e 94 95 25 	call	0x4b2a	; 0x4b2a <ST7032i_Write>
    4f7e:	dd 23       	and	r29, r29
    4f80:	11 f0       	breq	.+4      	; 0x4f86 <ST7032i_Power_Icon+0x32>
    4f82:	8c 2f       	mov	r24, r28
    4f84:	01 c0       	rjmp	.+2      	; 0x4f88 <ST7032i_Power_Icon+0x34>
    4f86:	80 e0       	ldi	r24, 0x00	; 0
    4f88:	60 e4       	ldi	r22, 0x40	; 64
    4f8a:	0e 94 95 25 	call	0x4b2a	; 0x4b2a <ST7032i_Write>
    4f8e:	88 e3       	ldi	r24, 0x38	; 56
    4f90:	60 e0       	ldi	r22, 0x00	; 0
    4f92:	0e 94 95 25 	call	0x4b2a	; 0x4b2a <ST7032i_Write>
    4f96:	df 91       	pop	r29
    4f98:	cf 91       	pop	r28
    4f9a:	08 95       	ret

00004f9c <twi_i2c_MasterInit>:
    4f9c:	10 92 b9 00 	sts	0x00B9, r1
    4fa0:	8a e0       	ldi	r24, 0x0A	; 10
    4fa2:	80 93 b8 00 	sts	0x00B8, r24
    4fa6:	8f ef       	ldi	r24, 0xFF	; 255
    4fa8:	80 93 bb 00 	sts	0x00BB, r24
    4fac:	84 e0       	ldi	r24, 0x04	; 4
    4fae:	80 93 bc 00 	sts	0x00BC, r24
    4fb2:	08 95       	ret

00004fb4 <twi_i2cSelect>:
    4fb4:	94 ea       	ldi	r25, 0xA4	; 164
    4fb6:	90 93 bc 00 	sts	0x00BC, r25
    4fba:	90 91 bc 00 	lds	r25, 0x00BC
    4fbe:	97 ff       	sbrs	r25, 7
    4fc0:	fc cf       	rjmp	.-8      	; 0x4fba <twi_i2cSelect+0x6>
    4fc2:	90 91 b9 00 	lds	r25, 0x00B9
    4fc6:	98 7f       	andi	r25, 0xF8	; 248
    4fc8:	98 33       	cpi	r25, 0x38	; 56
    4fca:	c9 f0       	breq	.+50     	; 0x4ffe <twi_i2cSelect+0x4a>
    4fcc:	90 31       	cpi	r25, 0x10	; 16
    4fce:	11 f0       	breq	.+4      	; 0x4fd4 <twi_i2cSelect+0x20>
    4fd0:	98 30       	cpi	r25, 0x08	; 8
    4fd2:	b9 f4       	brne	.+46     	; 0x5002 <twi_i2cSelect+0x4e>
    4fd4:	88 0f       	add	r24, r24
    4fd6:	80 93 bb 00 	sts	0x00BB, r24
    4fda:	84 e8       	ldi	r24, 0x84	; 132
    4fdc:	80 93 bc 00 	sts	0x00BC, r24
    4fe0:	80 91 bc 00 	lds	r24, 0x00BC
    4fe4:	87 ff       	sbrs	r24, 7
    4fe6:	fc cf       	rjmp	.-8      	; 0x4fe0 <twi_i2cSelect+0x2c>
    4fe8:	80 91 b9 00 	lds	r24, 0x00B9
    4fec:	88 7f       	andi	r24, 0xF8	; 248
    4fee:	80 32       	cpi	r24, 0x20	; 32
    4ff0:	51 f0       	breq	.+20     	; 0x5006 <twi_i2cSelect+0x52>
    4ff2:	88 33       	cpi	r24, 0x38	; 56
    4ff4:	51 f0       	breq	.+20     	; 0x500a <twi_i2cSelect+0x56>
    4ff6:	88 31       	cpi	r24, 0x18	; 24
    4ff8:	51 f0       	breq	.+20     	; 0x500e <twi_i2cSelect+0x5a>
    4ffa:	87 e1       	ldi	r24, 0x17	; 23
    4ffc:	09 c0       	rjmp	.+18     	; 0x5010 <twi_i2cSelect+0x5c>
    4ffe:	8b e0       	ldi	r24, 0x0B	; 11
    5000:	07 c0       	rjmp	.+14     	; 0x5010 <twi_i2cSelect+0x5c>
    5002:	8c e0       	ldi	r24, 0x0C	; 12
    5004:	05 c0       	rjmp	.+10     	; 0x5010 <twi_i2cSelect+0x5c>
    5006:	85 e1       	ldi	r24, 0x15	; 21
    5008:	03 c0       	rjmp	.+6      	; 0x5010 <twi_i2cSelect+0x5c>
    500a:	86 e1       	ldi	r24, 0x16	; 22
    500c:	01 c0       	rjmp	.+2      	; 0x5010 <twi_i2cSelect+0x5c>
    500e:	80 e0       	ldi	r24, 0x00	; 0
    5010:	94 e9       	ldi	r25, 0x94	; 148
    5012:	90 93 bc 00 	sts	0x00BC, r25
    5016:	90 91 bc 00 	lds	r25, 0x00BC
    501a:	94 fd       	sbrc	r25, 4
    501c:	fc cf       	rjmp	.-8      	; 0x5016 <twi_i2cSelect+0x62>
    501e:	08 95       	ret

00005020 <twi_i2cRead>:
    5020:	58 2f       	mov	r21, r24
    5022:	55 0f       	add	r21, r21
    5024:	51 60       	ori	r21, 0x01	; 1
    5026:	f9 01       	movw	r30, r18
    5028:	23 e0       	ldi	r18, 0x03	; 3
    502a:	81 e0       	ldi	r24, 0x01	; 1
    502c:	a4 ea       	ldi	r26, 0xA4	; 164
    502e:	34 e8       	ldi	r19, 0x84	; 132
    5030:	a0 93 bc 00 	sts	0x00BC, r26
    5034:	90 91 bc 00 	lds	r25, 0x00BC
    5038:	97 ff       	sbrs	r25, 7
    503a:	fc cf       	rjmp	.-8      	; 0x5034 <twi_i2cRead+0x14>
    503c:	90 91 b9 00 	lds	r25, 0x00B9
    5040:	98 7f       	andi	r25, 0xF8	; 248
    5042:	98 33       	cpi	r25, 0x38	; 56
    5044:	b1 f1       	breq	.+108    	; 0x50b2 <twi_i2cRead+0x92>
    5046:	90 31       	cpi	r25, 0x10	; 16
    5048:	11 f0       	breq	.+4      	; 0x504e <twi_i2cRead+0x2e>
    504a:	98 30       	cpi	r25, 0x08	; 8
    504c:	b1 f5       	brne	.+108    	; 0x50ba <twi_i2cRead+0x9a>
    504e:	50 93 bb 00 	sts	0x00BB, r21
    5052:	30 93 bc 00 	sts	0x00BC, r19
    5056:	90 91 bc 00 	lds	r25, 0x00BC
    505a:	97 ff       	sbrs	r25, 7
    505c:	fc cf       	rjmp	.-8      	; 0x5056 <twi_i2cRead+0x36>
    505e:	90 91 b9 00 	lds	r25, 0x00B9
    5062:	98 7f       	andi	r25, 0xF8	; 248
    5064:	98 34       	cpi	r25, 0x48	; 72
    5066:	29 f1       	breq	.+74     	; 0x50b2 <twi_i2cRead+0x92>
    5068:	98 33       	cpi	r25, 0x38	; 56
    506a:	19 f1       	breq	.+70     	; 0x50b2 <twi_i2cRead+0x92>
    506c:	90 34       	cpi	r25, 0x40	; 64
    506e:	39 f5       	brne	.+78     	; 0x50be <twi_i2cRead+0x9e>
    5070:	84 ec       	ldi	r24, 0xC4	; 196
    5072:	19 c0       	rjmp	.+50     	; 0x50a6 <twi_i2cRead+0x86>
    5074:	61 30       	cpi	r22, 0x01	; 1
    5076:	71 05       	cpc	r23, r1
    5078:	09 f4       	brne	.+2      	; 0x507c <twi_i2cRead+0x5c>
    507a:	84 e8       	ldi	r24, 0x84	; 132
    507c:	80 93 bc 00 	sts	0x00BC, r24
    5080:	90 91 bc 00 	lds	r25, 0x00BC
    5084:	97 ff       	sbrs	r25, 7
    5086:	fc cf       	rjmp	.-8      	; 0x5080 <twi_i2cRead+0x60>
    5088:	90 91 b9 00 	lds	r25, 0x00B9
    508c:	98 7f       	andi	r25, 0xF8	; 248
    508e:	98 35       	cpi	r25, 0x58	; 88
    5090:	19 f0       	breq	.+6      	; 0x5098 <twi_i2cRead+0x78>
    5092:	90 35       	cpi	r25, 0x50	; 80
    5094:	19 f0       	breq	.+6      	; 0x509c <twi_i2cRead+0x7c>
    5096:	15 c0       	rjmp	.+42     	; 0x50c2 <twi_i2cRead+0xa2>
    5098:	61 e0       	ldi	r22, 0x01	; 1
    509a:	70 e0       	ldi	r23, 0x00	; 0
    509c:	b0 91 bb 00 	lds	r27, 0x00BB
    50a0:	b1 93       	st	Z+, r27
    50a2:	61 50       	subi	r22, 0x01	; 1
    50a4:	70 40       	sbci	r23, 0x00	; 0
    50a6:	61 15       	cp	r22, r1
    50a8:	71 05       	cpc	r23, r1
    50aa:	21 f7       	brne	.-56     	; 0x5074 <twi_i2cRead+0x54>
    50ac:	90 35       	cpi	r25, 0x50	; 80
    50ae:	49 f4       	brne	.+18     	; 0x50c2 <twi_i2cRead+0xa2>
    50b0:	8f e1       	ldi	r24, 0x1F	; 31
    50b2:	21 50       	subi	r18, 0x01	; 1
    50b4:	09 f0       	breq	.+2      	; 0x50b8 <twi_i2cRead+0x98>
    50b6:	bc cf       	rjmp	.-136    	; 0x5030 <twi_i2cRead+0x10>
    50b8:	05 c0       	rjmp	.+10     	; 0x50c4 <twi_i2cRead+0xa4>
    50ba:	8b e0       	ldi	r24, 0x0B	; 11
    50bc:	03 c0       	rjmp	.+6      	; 0x50c4 <twi_i2cRead+0xa4>
    50be:	85 e1       	ldi	r24, 0x15	; 21
    50c0:	01 c0       	rjmp	.+2      	; 0x50c4 <twi_i2cRead+0xa4>
    50c2:	80 e0       	ldi	r24, 0x00	; 0
    50c4:	44 23       	and	r20, r20
    50c6:	39 f4       	brne	.+14     	; 0x50d6 <twi_i2cRead+0xb6>
    50c8:	94 e9       	ldi	r25, 0x94	; 148
    50ca:	90 93 bc 00 	sts	0x00BC, r25
    50ce:	90 91 bc 00 	lds	r25, 0x00BC
    50d2:	94 fd       	sbrc	r25, 4
    50d4:	fc cf       	rjmp	.-8      	; 0x50ce <twi_i2cRead+0xae>
    50d6:	08 95       	ret

000050d8 <twi_i2cWrite>:
    50d8:	88 0f       	add	r24, r24
    50da:	a2 2f       	mov	r26, r18
    50dc:	53 2f       	mov	r21, r19
    50de:	23 e0       	ldi	r18, 0x03	; 3
    50e0:	b4 ea       	ldi	r27, 0xA4	; 164
    50e2:	34 e8       	ldi	r19, 0x84	; 132
    50e4:	b0 93 bc 00 	sts	0x00BC, r27
    50e8:	90 91 bc 00 	lds	r25, 0x00BC
    50ec:	97 ff       	sbrs	r25, 7
    50ee:	fc cf       	rjmp	.-8      	; 0x50e8 <twi_i2cWrite+0x10>
    50f0:	90 91 b9 00 	lds	r25, 0x00B9
    50f4:	98 7f       	andi	r25, 0xF8	; 248
    50f6:	98 33       	cpi	r25, 0x38	; 56
    50f8:	99 f1       	breq	.+102    	; 0x5160 <twi_i2cWrite+0x88>
    50fa:	90 31       	cpi	r25, 0x10	; 16
    50fc:	11 f0       	breq	.+4      	; 0x5102 <twi_i2cWrite+0x2a>
    50fe:	98 30       	cpi	r25, 0x08	; 8
    5100:	91 f5       	brne	.+100    	; 0x5166 <twi_i2cWrite+0x8e>
    5102:	80 93 bb 00 	sts	0x00BB, r24
    5106:	30 93 bc 00 	sts	0x00BC, r19
    510a:	90 91 bc 00 	lds	r25, 0x00BC
    510e:	97 ff       	sbrs	r25, 7
    5110:	fc cf       	rjmp	.-8      	; 0x510a <twi_i2cWrite+0x32>
    5112:	90 91 b9 00 	lds	r25, 0x00B9
    5116:	98 7f       	andi	r25, 0xF8	; 248
    5118:	90 32       	cpi	r25, 0x20	; 32
    511a:	11 f1       	breq	.+68     	; 0x5160 <twi_i2cWrite+0x88>
    511c:	98 33       	cpi	r25, 0x38	; 56
    511e:	01 f1       	breq	.+64     	; 0x5160 <twi_i2cWrite+0x88>
    5120:	98 31       	cpi	r25, 0x18	; 24
    5122:	09 f5       	brne	.+66     	; 0x5166 <twi_i2cWrite+0x8e>
    5124:	ea 2f       	mov	r30, r26
    5126:	f5 2f       	mov	r31, r21
    5128:	14 c0       	rjmp	.+40     	; 0x5152 <twi_i2cWrite+0x7a>
    512a:	91 91       	ld	r25, Z+
    512c:	90 93 bb 00 	sts	0x00BB, r25
    5130:	ae 2f       	mov	r26, r30
    5132:	5f 2f       	mov	r21, r31
    5134:	30 93 bc 00 	sts	0x00BC, r19
    5138:	90 91 bc 00 	lds	r25, 0x00BC
    513c:	97 ff       	sbrs	r25, 7
    513e:	fc cf       	rjmp	.-8      	; 0x5138 <twi_i2cWrite+0x60>
    5140:	90 91 b9 00 	lds	r25, 0x00B9
    5144:	98 7f       	andi	r25, 0xF8	; 248
    5146:	90 33       	cpi	r25, 0x30	; 48
    5148:	59 f0       	breq	.+22     	; 0x5160 <twi_i2cWrite+0x88>
    514a:	98 32       	cpi	r25, 0x28	; 40
    514c:	49 f4       	brne	.+18     	; 0x5160 <twi_i2cWrite+0x88>
    514e:	61 50       	subi	r22, 0x01	; 1
    5150:	70 40       	sbci	r23, 0x00	; 0
    5152:	ae 2f       	mov	r26, r30
    5154:	5f 2f       	mov	r21, r31
    5156:	61 15       	cp	r22, r1
    5158:	71 05       	cpc	r23, r1
    515a:	39 f7       	brne	.-50     	; 0x512a <twi_i2cWrite+0x52>
    515c:	98 32       	cpi	r25, 0x28	; 40
    515e:	29 f0       	breq	.+10     	; 0x516a <twi_i2cWrite+0x92>
    5160:	21 50       	subi	r18, 0x01	; 1
    5162:	09 f0       	breq	.+2      	; 0x5166 <twi_i2cWrite+0x8e>
    5164:	bf cf       	rjmp	.-130    	; 0x50e4 <twi_i2cWrite+0xc>
    5166:	81 e0       	ldi	r24, 0x01	; 1
    5168:	01 c0       	rjmp	.+2      	; 0x516c <twi_i2cWrite+0x94>
    516a:	80 e0       	ldi	r24, 0x00	; 0
    516c:	44 23       	and	r20, r20
    516e:	39 f4       	brne	.+14     	; 0x517e <twi_i2cWrite+0xa6>
    5170:	94 e9       	ldi	r25, 0x94	; 148
    5172:	90 93 bc 00 	sts	0x00BC, r25
    5176:	90 91 bc 00 	lds	r25, 0x00BC
    517a:	94 fd       	sbrc	r25, 4
    517c:	fc cf       	rjmp	.-8      	; 0x5176 <twi_i2cWrite+0x9e>
    517e:	08 95       	ret

00005180 <twi_i2cStop>:
    5180:	10 92 bc 00 	sts	0x00BC, r1
    5184:	08 95       	ret

00005186 <storeData>:
    5186:	9c 01       	movw	r18, r24
    5188:	fb 01       	movw	r30, r22
    518a:	60 e0       	ldi	r22, 0x00	; 0
    518c:	50 e0       	ldi	r21, 0x00	; 0
    518e:	41 50       	subi	r20, 0x01	; 1
    5190:	50 40       	sbci	r21, 0x00	; 0
    5192:	05 c0       	rjmp	.+10     	; 0x519e <storeData+0x18>
    5194:	82 81       	ldd	r24, Z+2	; 0x02
    5196:	93 81       	ldd	r25, Z+3	; 0x03
    5198:	81 93       	st	Z+, r24
    519a:	91 93       	st	Z+, r25
    519c:	6f 5f       	subi	r22, 0xFF	; 255
    519e:	86 2f       	mov	r24, r22
    51a0:	90 e0       	ldi	r25, 0x00	; 0
    51a2:	84 17       	cp	r24, r20
    51a4:	95 07       	cpc	r25, r21
    51a6:	b4 f3       	brlt	.-20     	; 0x5194 <storeData+0xe>
    51a8:	31 83       	std	Z+1, r19	; 0x01
    51aa:	20 83       	st	Z, r18
    51ac:	08 95       	ret

000051ae <sumData>:
    51ae:	0f 93       	push	r16
    51b0:	1f 93       	push	r17
    51b2:	fc 01       	movw	r30, r24
    51b4:	00 e0       	ldi	r16, 0x00	; 0
    51b6:	10 e0       	ldi	r17, 0x00	; 0
    51b8:	98 01       	movw	r18, r16
    51ba:	40 e0       	ldi	r20, 0x00	; 0
    51bc:	0b c0       	rjmp	.+22     	; 0x51d4 <sumData+0x26>
    51be:	81 91       	ld	r24, Z+
    51c0:	91 91       	ld	r25, Z+
    51c2:	aa 27       	eor	r26, r26
    51c4:	97 fd       	sbrc	r25, 7
    51c6:	a0 95       	com	r26
    51c8:	ba 2f       	mov	r27, r26
    51ca:	08 0f       	add	r16, r24
    51cc:	19 1f       	adc	r17, r25
    51ce:	2a 1f       	adc	r18, r26
    51d0:	3b 1f       	adc	r19, r27
    51d2:	4f 5f       	subi	r20, 0xFF	; 255
    51d4:	46 17       	cp	r20, r22
    51d6:	99 f7       	brne	.-26     	; 0x51be <sumData+0x10>
    51d8:	b8 01       	movw	r22, r16
    51da:	c9 01       	movw	r24, r18
    51dc:	1f 91       	pop	r17
    51de:	0f 91       	pop	r16
    51e0:	08 95       	ret

000051e2 <getWeekday>:
    51e2:	0f 93       	push	r16
    51e4:	1f 93       	push	r17
    51e6:	cf 93       	push	r28
    51e8:	df 93       	push	r29
    51ea:	9c 01       	movw	r18, r24
    51ec:	eb 01       	movw	r28, r22
    51ee:	8a 01       	movw	r16, r20
    51f0:	cb 01       	movw	r24, r22
    51f2:	01 97       	sbiw	r24, 0x01	; 1
    51f4:	82 30       	cpi	r24, 0x02	; 2
    51f6:	91 05       	cpc	r25, r1
    51f8:	18 f4       	brcc	.+6      	; 0x5200 <getWeekday+0x1e>
    51fa:	21 50       	subi	r18, 0x01	; 1
    51fc:	30 40       	sbci	r19, 0x00	; 0
    51fe:	2c 96       	adiw	r28, 0x0c	; 12
    5200:	c9 01       	movw	r24, r18
    5202:	64 e6       	ldi	r22, 0x64	; 100
    5204:	70 e0       	ldi	r23, 0x00	; 0
    5206:	0e 94 28 2f 	call	0x5e50	; 0x5e50 <__divmodhi4>
    520a:	f9 01       	movw	r30, r18
    520c:	f5 95       	asr	r31
    520e:	e7 95       	ror	r30
    5210:	f5 95       	asr	r31
    5212:	e7 95       	ror	r30
    5214:	e2 0f       	add	r30, r18
    5216:	f3 1f       	adc	r31, r19
    5218:	e6 1b       	sub	r30, r22
    521a:	f7 0b       	sbc	r31, r23
    521c:	75 95       	asr	r23
    521e:	67 95       	ror	r22
    5220:	75 95       	asr	r23
    5222:	67 95       	ror	r22
    5224:	e6 0f       	add	r30, r22
    5226:	f7 1f       	adc	r31, r23
    5228:	2d e0       	ldi	r18, 0x0D	; 13
    522a:	30 e0       	ldi	r19, 0x00	; 0
    522c:	c2 9f       	mul	r28, r18
    522e:	c0 01       	movw	r24, r0
    5230:	c3 9f       	mul	r28, r19
    5232:	90 0d       	add	r25, r0
    5234:	d2 9f       	mul	r29, r18
    5236:	90 0d       	add	r25, r0
    5238:	11 24       	eor	r1, r1
    523a:	08 96       	adiw	r24, 0x08	; 8
    523c:	65 e0       	ldi	r22, 0x05	; 5
    523e:	70 e0       	ldi	r23, 0x00	; 0
    5240:	0e 94 28 2f 	call	0x5e50	; 0x5e50 <__divmodhi4>
    5244:	e6 0f       	add	r30, r22
    5246:	f7 1f       	adc	r31, r23
    5248:	e0 0f       	add	r30, r16
    524a:	f1 1f       	adc	r31, r17
    524c:	cf 01       	movw	r24, r30
    524e:	67 e0       	ldi	r22, 0x07	; 7
    5250:	70 e0       	ldi	r23, 0x00	; 0
    5252:	0e 94 28 2f 	call	0x5e50	; 0x5e50 <__divmodhi4>
    5256:	01 96       	adiw	r24, 0x01	; 1
    5258:	df 91       	pop	r29
    525a:	cf 91       	pop	r28
    525c:	1f 91       	pop	r17
    525e:	0f 91       	pop	r16
    5260:	08 95       	ret

00005262 <strcmp_ignorecase>:
    5262:	df 92       	push	r13
    5264:	ef 92       	push	r14
    5266:	ff 92       	push	r15
    5268:	0f 93       	push	r16
    526a:	1f 93       	push	r17
    526c:	cf 93       	push	r28
    526e:	df 93       	push	r29
    5270:	8c 01       	movw	r16, r24
    5272:	7b 01       	movw	r14, r22
    5274:	02 c0       	rjmp	.+4      	; 0x527a <strcmp_ignorecase+0x18>
    5276:	dd 20       	and	r13, r13
    5278:	b1 f0       	breq	.+44     	; 0x52a6 <strcmp_ignorecase+0x44>
    527a:	f8 01       	movw	r30, r16
    527c:	d1 90       	ld	r13, Z+
    527e:	8f 01       	movw	r16, r30
    5280:	8d 2d       	mov	r24, r13
    5282:	90 e0       	ldi	r25, 0x00	; 0
    5284:	0e 94 78 2f 	call	0x5ef0	; 0x5ef0 <toupper>
    5288:	ec 01       	movw	r28, r24
    528a:	f7 01       	movw	r30, r14
    528c:	81 91       	ld	r24, Z+
    528e:	7f 01       	movw	r14, r30
    5290:	90 e0       	ldi	r25, 0x00	; 0
    5292:	0e 94 78 2f 	call	0x5ef0	; 0x5ef0 <toupper>
    5296:	9c 01       	movw	r18, r24
    5298:	c8 17       	cp	r28, r24
    529a:	d9 07       	cpc	r29, r25
    529c:	61 f3       	breq	.-40     	; 0x5276 <strcmp_ignorecase+0x14>
    529e:	ce 01       	movw	r24, r28
    52a0:	82 1b       	sub	r24, r18
    52a2:	93 0b       	sbc	r25, r19
    52a4:	02 c0       	rjmp	.+4      	; 0x52aa <strcmp_ignorecase+0x48>
    52a6:	80 e0       	ldi	r24, 0x00	; 0
    52a8:	90 e0       	ldi	r25, 0x00	; 0
    52aa:	df 91       	pop	r29
    52ac:	cf 91       	pop	r28
    52ae:	1f 91       	pop	r17
    52b0:	0f 91       	pop	r16
    52b2:	ff 90       	pop	r15
    52b4:	ef 90       	pop	r14
    52b6:	df 90       	pop	r13
    52b8:	08 95       	ret

000052ba <xputc>:

.func xputc
.global xputc
xputc:
#if CR_CRLF
	cpi	r24, 10		;LF --> CRLF
    52ba:	8a 30       	cpi	r24, 0x0A	; 10
	brne	1f		;
    52bc:	19 f4       	brne	.+6      	; 0x52c4 <xputc+0xa>
	ldi	r24, 13		;
    52be:	8d e0       	ldi	r24, 0x0D	; 13
	rcall	1f		;
    52c0:	01 d0       	rcall	.+2      	; 0x52c4 <xputc+0xa>
	ldi	r24, 10		;/
    52c2:	8a e0       	ldi	r24, 0x0A	; 10
1:
#endif
	push	ZH
    52c4:	ff 93       	push	r31
	push	ZL
    52c6:	ef 93       	push	r30
	lds	ZL, xfunc_out+0	;Pointer to the registered output function.
    52c8:	e0 91 9e 01 	lds	r30, 0x019E
	lds	ZH, xfunc_out+1	;/
    52cc:	f0 91 9f 01 	lds	r31, 0x019F
	sbiw	ZL, 0		;Skip if null
    52d0:	30 97       	sbiw	r30, 0x00	; 0
	breq	2f		;/
    52d2:	09 f0       	breq	.+2      	; 0x52d6 <xputc+0x1c>
	icall
    52d4:	09 95       	icall
2:	pop	ZL
    52d6:	ef 91       	pop	r30
	pop	ZH
    52d8:	ff 91       	pop	r31
	ret
    52da:	08 95       	ret

000052dc <xputs_p>:
;			);

.func xputs_p
.global xputs_p
xputs_p:
	_MOVW	ZH,ZL, r25,r24	; Z = pointer to rom string
    52dc:	fc 01       	movw	r30, r24
1:	_LPMI	r24
    52de:	85 91       	lpm	r24, Z+
	cpi	r24, 0
    52e0:	80 30       	cpi	r24, 0x00	; 0
	breq	2f
    52e2:	11 f0       	breq	.+4      	; 0x52e8 <xputs_p+0xc>
	rcall	xputc
    52e4:	ea df       	rcall	.-44     	; 0x52ba <xputc>
	rjmp	1b
    52e6:	fb cf       	rjmp	.-10     	; 0x52de <xputs_p+0x2>
2:	ret
    52e8:	08 95       	ret

000052ea <xitoa>:

.func xitoa
.global xitoa
xitoa:
				;r25:r22 = value, r20 = base, r18 = digits
	clr	r31		;r31 = stack level
    52ea:	ff 27       	eor	r31, r31
	ldi	r30, ' '	;r30 = sign
    52ec:	e0 e2       	ldi	r30, 0x20	; 32
	ldi	r19, ' '	;r19 = filler
    52ee:	30 e2       	ldi	r19, 0x20	; 32
	sbrs	r20, 7		;When base indicates signd format and the value
    52f0:	47 ff       	sbrs	r20, 7
	rjmp	0f		;is minus, add a '-'.
    52f2:	0c c0       	rjmp	.+24     	; 0x530c <xitoa+0x22>
	neg	r20		;
    52f4:	41 95       	neg	r20
	sbrs	r25, 7		;
    52f6:	97 ff       	sbrs	r25, 7
	rjmp	0f		;
    52f8:	09 c0       	rjmp	.+18     	; 0x530c <xitoa+0x22>
	ldi	r30, '-'	;
    52fa:	ed e2       	ldi	r30, 0x2D	; 45
	com	r22		;
    52fc:	60 95       	com	r22
	com	r23		;
    52fe:	70 95       	com	r23
	com	r24		;
    5300:	80 95       	com	r24
	com	r25		;
    5302:	90 95       	com	r25
	adc	r22, r1		;
    5304:	61 1d       	adc	r22, r1
	adc	r23, r1		;
    5306:	71 1d       	adc	r23, r1
	adc	r24, r1		;
    5308:	81 1d       	adc	r24, r1
	adc	r25, r1		;/
    530a:	91 1d       	adc	r25, r1
0:	sbrs	r18, 7		;When digits indicates zero filled,
    530c:	27 ff       	sbrs	r18, 7
	rjmp	1f		;filler is '0'.
    530e:	02 c0       	rjmp	.+4      	; 0x5314 <xitoa+0x2a>
	neg	r18		;
    5310:	21 95       	neg	r18
	ldi	r19, '0'	;/
    5312:	30 e3       	ldi	r19, 0x30	; 48
				;----- string conversion loop
1:	ldi	r21, 32		;r26 = r25:r22 % r20
    5314:	50 e2       	ldi	r21, 0x20	; 32
	clr	r26		;r25:r22 /= r20
    5316:	aa 27       	eor	r26, r26
2:	lsl	r22		;
    5318:	66 0f       	add	r22, r22
	rol	r23		;
    531a:	77 1f       	adc	r23, r23
	rol	r24		;
    531c:	88 1f       	adc	r24, r24
	rol	r25		;
    531e:	99 1f       	adc	r25, r25
	rol	r26		;
    5320:	aa 1f       	adc	r26, r26
	cp	r26, r20	;
    5322:	a4 17       	cp	r26, r20
	brcs	3f		;
    5324:	10 f0       	brcs	.+4      	; 0x532a <xitoa+0x40>
	sub	r26, r20	;
    5326:	a4 1b       	sub	r26, r20
	inc	r22		;
    5328:	63 95       	inc	r22
3:	dec	r21		;
    532a:	5a 95       	dec	r21
	brne	2b		;/
    532c:	a9 f7       	brne	.-22     	; 0x5318 <xitoa+0x2e>
	cpi	r26, 10		;r26 is a numeral digit '0'-'F'
    532e:	aa 30       	cpi	r26, 0x0A	; 10
	brcs	4f		;
    5330:	08 f0       	brcs	.+2      	; 0x5334 <xitoa+0x4a>
	subi	r26, -7		;
    5332:	a9 5f       	subi	r26, 0xF9	; 249
4:	subi	r26, -'0'	;/
    5334:	a0 5d       	subi	r26, 0xD0	; 208
	push	r26		;Stack it
    5336:	af 93       	push	r26
	inc	r31		;/
    5338:	f3 95       	inc	r31
	cp	r22, r1		;Repeat until r25:r22 gets zero
    533a:	61 15       	cp	r22, r1
	cpc	r23, r1		;
    533c:	71 05       	cpc	r23, r1
	cpc	r24, r1		;
    533e:	81 05       	cpc	r24, r1
	cpc	r25, r1		;
    5340:	91 05       	cpc	r25, r1
	brne	1b		;/
    5342:	41 f7       	brne	.-48     	; 0x5314 <xitoa+0x2a>

	cpi	r30, '-'	;Minus sign if needed
    5344:	ed 32       	cpi	r30, 0x2D	; 45
	brne	5f		;
    5346:	11 f4       	brne	.+4      	; 0x534c <xitoa+0x62>
	push	r30		;
    5348:	ef 93       	push	r30
	inc	r31		;/
    534a:	f3 95       	inc	r31
5:	cp	r31, r18	;Filler
    534c:	f2 17       	cp	r31, r18
	brcc	6f		;
    534e:	18 f4       	brcc	.+6      	; 0x5356 <xitoa+0x6c>
	push	r19		;
    5350:	3f 93       	push	r19
	inc	r31		;
    5352:	f3 95       	inc	r31
	rjmp	5b		;/
    5354:	fb cf       	rjmp	.-10     	; 0x534c <xitoa+0x62>

6:	pop	r24		;Flush stacked digits and exit
    5356:	8f 91       	pop	r24
	rcall	xputc		;
    5358:	b0 df       	rcall	.-160    	; 0x52ba <xputc>
	dec	r31		;
    535a:	fa 95       	dec	r31
	brne	6b		;/
    535c:	e1 f7       	brne	.-8      	; 0x5356 <xitoa+0x6c>

	ret
    535e:	08 95       	ret

00005360 <xvprintf>:

#if USE_XPRINTF

.func xvprintf
xvprintf:
	ld	ZL, Y+		;Z = pointer to format string
    5360:	e9 91       	ld	r30, Y+
	ld	ZH, Y+		;/
    5362:	f9 91       	ld	r31, Y+

0:	_LPMI	r24		;Get a format char
    5364:	85 91       	lpm	r24, Z+
	cpi	r24, 0		;End of format string?
    5366:	80 30       	cpi	r24, 0x00	; 0
	breq	90f		;/
    5368:	21 f0       	breq	.+8      	; 0x5372 <xvprintf+0x12>
	cpi	r24, '%'	;Is format?
    536a:	85 32       	cpi	r24, 0x25	; 37
	breq	20f		;/
    536c:	19 f0       	breq	.+6      	; 0x5374 <xvprintf+0x14>
1:	rcall	xputc		;Put a normal character
    536e:	a5 df       	rcall	.-182    	; 0x52ba <xputc>
	rjmp	0b		;/
    5370:	f9 cf       	rjmp	.-14     	; 0x5364 <xvprintf+0x4>
90:	ret
    5372:	08 95       	ret

20:	ldi	r18, 0		;r18: digits
    5374:	20 e0       	ldi	r18, 0x00	; 0
	clt			;T: filler
    5376:	e8 94       	clt
	_LPMI	r21		;Get flags
    5378:	55 91       	lpm	r21, Z+
	cpi	r21, '%'	;Is a %?
    537a:	55 32       	cpi	r21, 0x25	; 37
	breq	1b		;/
    537c:	c1 f3       	breq	.-16     	; 0x536e <xvprintf+0xe>
	cpi	r21, '0'	;Zero filled?
    537e:	50 33       	cpi	r21, 0x30	; 48
	brne	23f		;
    5380:	11 f4       	brne	.+4      	; 0x5386 <xvprintf+0x26>
	set			;/
    5382:	68 94       	set
22:	_LPMI	r21		;Get width
    5384:	55 91       	lpm	r21, Z+
23:	cpi	r21, '9'+1	;
    5386:	5a 33       	cpi	r21, 0x3A	; 58
	brcc	24f		;
    5388:	48 f4       	brcc	.+18     	; 0x539c <xvprintf+0x3c>
	subi	r21, '0'	;
    538a:	50 53       	subi	r21, 0x30	; 48
	brcs	90b		;
    538c:	90 f3       	brcs	.-28     	; 0x5372 <xvprintf+0x12>
	lsl	r18		;
    538e:	22 0f       	add	r18, r18
	mov	r0, r18		;
    5390:	02 2e       	mov	r0, r18
	lsl	r18		;
    5392:	22 0f       	add	r18, r18
	lsl	r18		;
    5394:	22 0f       	add	r18, r18
	add	r18, r0		;
    5396:	20 0d       	add	r18, r0
	add	r18, r21	;
    5398:	25 0f       	add	r18, r21
	rjmp	22b		;/
    539a:	f4 cf       	rjmp	.-24     	; 0x5384 <xvprintf+0x24>

24:	brtc	25f		;get value (low word)
    539c:	0e f4       	brtc	.+2      	; 0x53a0 <xvprintf+0x40>
	neg	r18		;
    539e:	21 95       	neg	r18
25:	ld	r24, Y+		;
    53a0:	89 91       	ld	r24, Y+
	ld	r25, Y+		;/
    53a2:	99 91       	ld	r25, Y+
	cpi	r21, 'c'	;Is type character?
    53a4:	53 36       	cpi	r21, 0x63	; 99
	breq	1b		;/
    53a6:	19 f3       	breq	.-58     	; 0x536e <xvprintf+0xe>
	cpi	r21, 's'	;Is type RAM string?
    53a8:	53 37       	cpi	r21, 0x73	; 115
	breq	50f		;/
    53aa:	29 f1       	breq	.+74     	; 0x53f6 <xvprintf+0x96>
	cpi	r21, 'S'	;Is type ROM string?
    53ac:	53 35       	cpi	r21, 0x53	; 83
	breq	60f		;/
    53ae:	59 f1       	breq	.+86     	; 0x5406 <xvprintf+0xa6>
	_MOVW	r23,r22,r25,r24	;r25:r22 = value
    53b0:	bc 01       	movw	r22, r24
	clr	r24		;
    53b2:	88 27       	eor	r24, r24
	clr	r25		;
    53b4:	99 27       	eor	r25, r25
	clt			;/
    53b6:	e8 94       	clt
	cpi	r21, 'l'	;Is long int?
    53b8:	5c 36       	cpi	r21, 0x6C	; 108
	brne	26f		;
    53ba:	21 f4       	brne	.+8      	; 0x53c4 <xvprintf+0x64>
	ld	r24, Y+		;get value (high word)
    53bc:	89 91       	ld	r24, Y+
	ld	r25, Y+		;
    53be:	99 91       	ld	r25, Y+
	set			;
    53c0:	68 94       	set
	_LPMI	r21		;/
    53c2:	55 91       	lpm	r21, Z+
26:	cpi	r21, 'd'	;Is type signed decimal?
    53c4:	54 36       	cpi	r21, 0x64	; 100
	brne	27f		;/
    53c6:	39 f4       	brne	.+14     	; 0x53d6 <xvprintf+0x76>
	ldi	r20, -10	;
    53c8:	46 ef       	ldi	r20, 0xF6	; 246
	brts	40f		;
    53ca:	7e f0       	brts	.+30     	; 0x53ea <xvprintf+0x8a>
	sbrs	r23, 7		;
    53cc:	77 ff       	sbrs	r23, 7
	rjmp	40f		;
    53ce:	0d c0       	rjmp	.+26     	; 0x53ea <xvprintf+0x8a>
	ldi	r24, -1		;
    53d0:	8f ef       	ldi	r24, 0xFF	; 255
	ldi	r25, -1		;
    53d2:	9f ef       	ldi	r25, 0xFF	; 255
	rjmp	40f		;/
    53d4:	0a c0       	rjmp	.+20     	; 0x53ea <xvprintf+0x8a>
27:	cpi	r21, 'u'	;Is type unsigned decimal?
    53d6:	55 37       	cpi	r21, 0x75	; 117
	ldi	r20, 10		;
    53d8:	4a e0       	ldi	r20, 0x0A	; 10
	breq	40f		;/
    53da:	39 f0       	breq	.+14     	; 0x53ea <xvprintf+0x8a>
	cpi	r21, 'X'	;Is type hexdecimal?
    53dc:	58 35       	cpi	r21, 0x58	; 88
	ldi	r20, 16		;
    53de:	40 e1       	ldi	r20, 0x10	; 16
	breq	40f		;/
    53e0:	21 f0       	breq	.+8      	; 0x53ea <xvprintf+0x8a>
	cpi	r21, 'b'	;Is type binary?
    53e2:	52 36       	cpi	r21, 0x62	; 98
	ldi	r20, 2		;
    53e4:	42 e0       	ldi	r20, 0x02	; 2
	breq	40f		;/
    53e6:	09 f0       	breq	.+2      	; 0x53ea <xvprintf+0x8a>
	ret			;abort
    53e8:	08 95       	ret
40:	push	ZH		;Output the value
    53ea:	ff 93       	push	r31
	push	ZL		;
    53ec:	ef 93       	push	r30
	rcall	xitoa		;
    53ee:	7d df       	rcall	.-262    	; 0x52ea <xitoa>
42:	pop	ZL		;
    53f0:	ef 91       	pop	r30
	pop	ZH		;
    53f2:	ff 91       	pop	r31
	rjmp	0b		;/
    53f4:	b7 cf       	rjmp	.-146    	; 0x5364 <xvprintf+0x4>

50:	push	ZH		;Put a string on the RAM
    53f6:	ff 93       	push	r31
	push	ZL
    53f8:	ef 93       	push	r30
	_MOVW	ZH,ZL, r25,r24
    53fa:	fc 01       	movw	r30, r24
51:	ld	r24, Z+
    53fc:	81 91       	ld	r24, Z+
	cpi	r24, 0
    53fe:	80 30       	cpi	r24, 0x00	; 0
	breq	42b
    5400:	b9 f3       	breq	.-18     	; 0x53f0 <xvprintf+0x90>
	rcall	xputc
    5402:	5b df       	rcall	.-330    	; 0x52ba <xputc>
	rjmp	51b
    5404:	fb cf       	rjmp	.-10     	; 0x53fc <xvprintf+0x9c>

60:	push	ZH		;Put a string on the ROM
    5406:	ff 93       	push	r31
	push	ZL
    5408:	ef 93       	push	r30
	rcall	xputs_p
    540a:	68 df       	rcall	.-304    	; 0x52dc <xputs_p>
	rjmp	42b
    540c:	f1 cf       	rjmp	.-30     	; 0x53f0 <xvprintf+0x90>

0000540e <xprintf_p>:


.func xprintf_p
.global xprintf_p
xprintf_p:
	push	YH
    540e:	df 93       	push	r29
	push	YL
    5410:	cf 93       	push	r28
	in	YL, _SFR_IO_ADDR(SPL)
    5412:	cd b7       	in	r28, 0x3d	; 61
#ifdef SPH
	in	YH, _SFR_IO_ADDR(SPH)
    5414:	de b7       	in	r29, 0x3e	; 62
#else
	clr	YH
#endif
	adiw	YL, 5		;Y = pointer to arguments
    5416:	25 96       	adiw	r28, 0x05	; 5
	rcall	xvprintf
    5418:	a3 df       	rcall	.-186    	; 0x5360 <xvprintf>
	pop	YL
    541a:	cf 91       	pop	r28
	pop	YH
    541c:	df 91       	pop	r29
	ret
    541e:	08 95       	ret

00005420 <putram>:

#if USE_XSPRINTF

.func xsprintf_p
putram:
	_MOVW	ZH,ZL, r15,r14
    5420:	f7 01       	movw	r30, r14
	st	Z+, r24
    5422:	81 93       	st	Z+, r24
	_MOVW	r15,r14, ZH,ZL
    5424:	7f 01       	movw	r14, r30
	ret
    5426:	08 95       	ret

00005428 <xsprintf_p>:
.global xsprintf_p
xsprintf_p:
	push	YH
    5428:	df 93       	push	r29
	push	YL
    542a:	cf 93       	push	r28
	in	YL, _SFR_IO_ADDR(SPL)
    542c:	cd b7       	in	r28, 0x3d	; 61
#ifdef SPH
	in	YH, _SFR_IO_ADDR(SPH)
    542e:	de b7       	in	r29, 0x3e	; 62
#else
	clr	YH
#endif
	adiw	YL, 5		;Y = pointer to arguments
    5430:	25 96       	adiw	r28, 0x05	; 5
	lds	ZL, xfunc_out+0	;Save registered output function
    5432:	e0 91 9e 01 	lds	r30, 0x019E
	lds	ZH, xfunc_out+1	;
    5436:	f0 91 9f 01 	lds	r31, 0x019F
	push	ZL		;
    543a:	ef 93       	push	r30
	push	ZH		;/
    543c:	ff 93       	push	r31
	ldi	ZL, lo8(pm(putram));Set local output function
    543e:	e0 e1       	ldi	r30, 0x10	; 16
	ldi	ZH, hi8(pm(putram));
    5440:	fa e2       	ldi	r31, 0x2A	; 42
	sts	xfunc_out+0, ZL	;
    5442:	e0 93 9e 01 	sts	0x019E, r30
	sts	xfunc_out+1, ZH	;/
    5446:	f0 93 9f 01 	sts	0x019F, r31
	push	r15		;Initialize pointer to string buffer
    544a:	ff 92       	push	r15
	push	r14		;
    544c:	ef 92       	push	r14
	ld	r14, Y+		;
    544e:	e9 90       	ld	r14, Y+
	ld	r15, Y+		;/
    5450:	f9 90       	ld	r15, Y+
	rcall	xvprintf
    5452:	86 df       	rcall	.-244    	; 0x5360 <xvprintf>
	_MOVW	ZH,ZL, r15,r14	;Terminate string
    5454:	f7 01       	movw	r30, r14
	st	Z, r1		;
    5456:	10 82       	st	Z, r1
	pop	r14		;
    5458:	ef 90       	pop	r14
	pop	r15		;/
    545a:	ff 90       	pop	r15
	pop	ZH		;Restore registered output function
    545c:	ff 91       	pop	r31
	pop	ZL		;
    545e:	ef 91       	pop	r30
	sts	xfunc_out+0, ZL	;
    5460:	e0 93 9e 01 	sts	0x019E, r30
	sts	xfunc_out+1, ZH	;/
    5464:	f0 93 9f 01 	sts	0x019F, r31
	pop	YL
    5468:	cf 91       	pop	r28
	pop	YH
    546a:	df 91       	pop	r29
	ret
    546c:	08 95       	ret

0000546e <xatoi>:

#if USE_XATOI
.func xatoi
.global xatoi
xatoi:
	_MOVW	r1, r0, r23, r22
    546e:	0b 01       	movw	r0, r22
	_MOVW	XH, XL, r25, r24
    5470:	dc 01       	movw	r26, r24
	ld	ZL, X+
    5472:	ed 91       	ld	r30, X+
	ld	ZH, X+
    5474:	fd 91       	ld	r31, X+
	clr	r18		;r21:r18 = 0;
    5476:	22 27       	eor	r18, r18
	clr	r19		;
    5478:	33 27       	eor	r19, r19
	clr	r20		;
    547a:	44 27       	eor	r20, r20
	clr	r21		;/
    547c:	55 27       	eor	r21, r21
	clt			;T = 0;
    547e:	e8 94       	clt

	ldi	r25, 10		;r25 = 10;
    5480:	9a e0       	ldi	r25, 0x0A	; 10
	rjmp	41f		;/
    5482:	01 c0       	rjmp	.+2      	; 0x5486 <xatoi+0x18>
40:	adiw	ZL, 1		;Z++;
    5484:	31 96       	adiw	r30, 0x01	; 1
41:	ld	r22, Z		;r22 = *Z;
    5486:	60 81       	ld	r22, Z
	cpi	r22, ' '	;if(r22 == ' ') continue
    5488:	60 32       	cpi	r22, 0x20	; 32
	breq	40b		;/
    548a:	e1 f3       	breq	.-8      	; 0x5484 <xatoi+0x16>
	brcs	70f		;if(r22 < ' ') error;
    548c:	a8 f1       	brcs	.+106    	; 0x54f8 <xatoi+0x8a>
	cpi	r22, '-'	;if(r22 == '-') {
    548e:	6d 32       	cpi	r22, 0x2D	; 45
	brne	42f		; T = 1;
    5490:	11 f4       	brne	.+4      	; 0x5496 <xatoi+0x28>
	set			; continue;
    5492:	68 94       	set
	rjmp	40b		;}
    5494:	f7 cf       	rjmp	.-18     	; 0x5484 <xatoi+0x16>
42:	cpi	r22, '9'+1	;if(r22 > '9') error;
    5496:	6a 33       	cpi	r22, 0x3A	; 58
	brcc	70f		;/
    5498:	78 f5       	brcc	.+94     	; 0x54f8 <xatoi+0x8a>
	cpi	r22, '0'	;if(r22 < '0') error;
    549a:	60 33       	cpi	r22, 0x30	; 48
	brcs	70f		;/
    549c:	68 f1       	brcs	.+90     	; 0x54f8 <xatoi+0x8a>
	brne	51f		;if(r22 > '0') cv_start;
    549e:	71 f4       	brne	.+28     	; 0x54bc <xatoi+0x4e>
	ldi	r25, 8		;r25 = 8;
    54a0:	98 e0       	ldi	r25, 0x08	; 8
	adiw	ZL, 1		;r22 = *(++Z);
    54a2:	31 96       	adiw	r30, 0x01	; 1
	ld	r22, Z		;/
    54a4:	60 81       	ld	r22, Z
	cpi	r22, ' '+1	;if(r22 <= ' ') exit;
    54a6:	61 32       	cpi	r22, 0x21	; 33
	brcs	80f		;/
    54a8:	48 f1       	brcs	.+82     	; 0x54fc <xatoi+0x8e>
	cpi	r22, 'b'	;if(r22 == 'b') {
    54aa:	62 36       	cpi	r22, 0x62	; 98
	brne	43f		; r25 = 2;
    54ac:	11 f4       	brne	.+4      	; 0x54b2 <xatoi+0x44>
	ldi	r25, 2		; cv_start;
    54ae:	92 e0       	ldi	r25, 0x02	; 2
	rjmp	50f		;}
    54b0:	03 c0       	rjmp	.+6      	; 0x54b8 <xatoi+0x4a>
43:	cpi	r22, 'x'	;if(r22 != 'x') error;
    54b2:	68 37       	cpi	r22, 0x78	; 120
	brne	51f		;/
    54b4:	19 f4       	brne	.+6      	; 0x54bc <xatoi+0x4e>
	ldi	r25, 16		;r25 = 16;
    54b6:	90 e1       	ldi	r25, 0x10	; 16

50:	adiw	ZL, 1		;Z++;
    54b8:	31 96       	adiw	r30, 0x01	; 1
	ld	r22, Z		;r22 = *Z;
    54ba:	60 81       	ld	r22, Z
51:	cpi	r22, ' '+1	;if(r22 <= ' ') break;
    54bc:	61 32       	cpi	r22, 0x21	; 33
	brcs	80f		;/
    54be:	f0 f0       	brcs	.+60     	; 0x54fc <xatoi+0x8e>
	cpi	r22, 'a'	;if(r22 >= 'a') r22 =- 0x20;
    54c0:	61 36       	cpi	r22, 0x61	; 97
	brcs	52f		;
    54c2:	08 f0       	brcs	.+2      	; 0x54c6 <xatoi+0x58>
	subi	r22, 0x20	;/
    54c4:	60 52       	subi	r22, 0x20	; 32
52:	subi	r22, '0'	;if((r22 -= '0') < 0) error;
    54c6:	60 53       	subi	r22, 0x30	; 48
	brcs	70f		;/
    54c8:	b8 f0       	brcs	.+46     	; 0x54f8 <xatoi+0x8a>
	cpi	r22, 10		;if(r22 >= 10) {
    54ca:	6a 30       	cpi	r22, 0x0A	; 10
	brcs	53f		; r22 -= 7;
    54cc:	18 f0       	brcs	.+6      	; 0x54d4 <xatoi+0x66>
	subi	r22, 7		; if(r22 < 10) 
    54ce:	67 50       	subi	r22, 0x07	; 7
	cpi	r22, 10		;
    54d0:	6a 30       	cpi	r22, 0x0A	; 10
	brcs	70f		;}
    54d2:	90 f0       	brcs	.+36     	; 0x54f8 <xatoi+0x8a>
53:	cp	r22, r25	;if(r22 >= r25) error;
    54d4:	69 17       	cp	r22, r25
	brcc	70f		;/
    54d6:	80 f4       	brcc	.+32     	; 0x54f8 <xatoi+0x8a>
60:	ldi	r24, 33		;r21:r18 *= r25;
    54d8:	81 e2       	ldi	r24, 0x21	; 33
	sub	r23, r23	;
    54da:	77 1b       	sub	r23, r23
61:	brcc	62f		;
    54dc:	08 f4       	brcc	.+2      	; 0x54e0 <xatoi+0x72>
	add	r23, r25	;
    54de:	79 0f       	add	r23, r25
62:	lsr	r23		;
    54e0:	76 95       	lsr	r23
	ror	r21		;
    54e2:	57 95       	ror	r21
	ror	r20		;
    54e4:	47 95       	ror	r20
	ror	r19		;
    54e6:	37 95       	ror	r19
	ror	r18		;
    54e8:	27 95       	ror	r18
	dec	r24		;
    54ea:	8a 95       	dec	r24
	brne	61b		;/
    54ec:	b9 f7       	brne	.-18     	; 0x54dc <xatoi+0x6e>
	add	r18, r22	;r21:r18 += r22;
    54ee:	26 0f       	add	r18, r22
	adc	r19, r24	;
    54f0:	38 1f       	adc	r19, r24
	adc	r20, r24	;
    54f2:	48 1f       	adc	r20, r24
	adc	r21, r24	;/
    54f4:	58 1f       	adc	r21, r24
	rjmp	50b		;repeat
    54f6:	e0 cf       	rjmp	.-64     	; 0x54b8 <xatoi+0x4a>

70:	ldi	r24, 0
    54f8:	80 e0       	ldi	r24, 0x00	; 0
	rjmp	81f
    54fa:	01 c0       	rjmp	.+2      	; 0x54fe <xatoi+0x90>
80:	ldi	r24, 1
    54fc:	81 e0       	ldi	r24, 0x01	; 1
81:	brtc	82f
    54fe:	4e f4       	brtc	.+18     	; 0x5512 <xatoi+0xa4>
	clr	r22
    5500:	66 27       	eor	r22, r22
	com	r18
    5502:	20 95       	com	r18
	com	r19
    5504:	30 95       	com	r19
	com	r20
    5506:	40 95       	com	r20
	com	r21
    5508:	50 95       	com	r21
	adc	r18, r22
    550a:	26 1f       	adc	r18, r22
	adc	r19, r22
    550c:	36 1f       	adc	r19, r22
	adc	r20, r22
    550e:	46 1f       	adc	r20, r22
	adc	r21, r22
    5510:	56 1f       	adc	r21, r22
82:	st	-X, ZH
    5512:	fe 93       	st	-X, r31
	st	-X, ZL
    5514:	ee 93       	st	-X, r30
	_MOVW	XH, XL, r1, r0
    5516:	d0 01       	movw	r26, r0
	st	X+, r18
    5518:	2d 93       	st	X+, r18
	st	X+, r19
    551a:	3d 93       	st	X+, r19
	st	X+, r20
    551c:	4d 93       	st	X+, r20
	st	X+, r21
    551e:	5d 93       	st	X+, r21
	clr	r1
    5520:	11 24       	eor	r1, r1
	ret
    5522:	08 95       	ret

00005524 <main>:
    5524:	cf 93       	push	r28
    5526:	df 93       	push	r29
    5528:	cd b7       	in	r28, 0x3d	; 61
    552a:	de b7       	in	r29, 0x3e	; 62
    552c:	c8 54       	subi	r28, 0x48	; 72
    552e:	d0 40       	sbci	r29, 0x00	; 0
    5530:	0f b6       	in	r0, 0x3f	; 63
    5532:	f8 94       	cli
    5534:	de bf       	out	0x3e, r29	; 62
    5536:	0f be       	out	0x3f, r0	; 63
    5538:	cd bf       	out	0x3d, r28	; 61
    553a:	0e 94 5b 19 	call	0x32b6	; 0x32b6 <IO_Init>
    553e:	0e 94 6b 19 	call	0x32d6	; 0x32d6 <PCINIT_Init>
    5542:	0e 94 97 19 	call	0x332e	; 0x332e <Timer0_Init>
    5546:	0e 94 88 19 	call	0x3310	; 0x3310 <Timer1_Init>
    554a:	0e 94 73 19 	call	0x32e6	; 0x32e6 <AS2_Init>
    554e:	0e 94 9d 19 	call	0x333a	; 0x333a <SPI_Init>
    5552:	80 e8       	ldi	r24, 0x80	; 128
    5554:	80 bf       	out	0x30, r24	; 48
    5556:	88 e2       	ldi	r24, 0x28	; 40
    5558:	0e 94 ce 27 	call	0x4f9c	; 0x4f9c <twi_i2c_MasterInit>
    555c:	83 b7       	in	r24, 0x33	; 51
    555e:	81 7f       	andi	r24, 0xF1	; 241
    5560:	86 60       	ori	r24, 0x06	; 6
    5562:	83 bf       	out	0x33, r24	; 51
    5564:	78 94       	sei
    5566:	8c e3       	ldi	r24, 0x3C	; 60
    5568:	9f e0       	ldi	r25, 0x0F	; 15
    556a:	90 93 91 01 	sts	0x0191, r25
    556e:	80 93 90 01 	sts	0x0190, r24
    5572:	8a e0       	ldi	r24, 0x0A	; 10
    5574:	90 e0       	ldi	r25, 0x00	; 0
    5576:	90 93 93 01 	sts	0x0193, r25
    557a:	80 93 92 01 	sts	0x0192, r24
    557e:	10 92 23 05 	sts	0x0523, r1
    5582:	10 92 04 05 	sts	0x0504, r1
    5586:	20 9a       	sbi	0x04, 0	; 4
    5588:	28 9a       	sbi	0x05, 0	; 5
    558a:	82 e3       	ldi	r24, 0x32	; 50
    558c:	90 e0       	ldi	r25, 0x00	; 0
    558e:	62 e0       	ldi	r22, 0x02	; 2
    5590:	0e 94 cf 19 	call	0x339e	; 0x339e <beep>
    5594:	10 92 05 05 	sts	0x0505, r1
    5598:	63 e6       	ldi	r22, 0x63	; 99
    559a:	e6 2e       	mov	r14, r22
    559c:	73 e6       	ldi	r23, 0x63	; 99
    559e:	f7 2e       	mov	r15, r23
    55a0:	e9 e0       	ldi	r30, 0x09	; 9
    55a2:	ce 2e       	mov	r12, r30
    55a4:	d1 2c       	mov	r13, r1
    55a6:	cc 0e       	add	r12, r28
    55a8:	dd 1e       	adc	r13, r29
    55aa:	f0 ef       	ldi	r31, 0xF0	; 240
    55ac:	af 2e       	mov	r10, r31
    55ae:	f0 e0       	ldi	r31, 0x00	; 0
    55b0:	bf 2e       	mov	r11, r31
    55b2:	ae ef       	ldi	r26, 0xFE	; 254
    55b4:	8a 2e       	mov	r8, r26
    55b6:	a0 e0       	ldi	r26, 0x00	; 0
    55b8:	9a 2e       	mov	r9, r26
    55ba:	b5 e1       	ldi	r27, 0x15	; 21
    55bc:	6b 2e       	mov	r6, r27
    55be:	b1 e0       	ldi	r27, 0x01	; 1
    55c0:	7b 2e       	mov	r7, r27
    55c2:	1e e0       	ldi	r17, 0x0E	; 14
    55c4:	41 2e       	mov	r4, r17
    55c6:	14 e0       	ldi	r17, 0x04	; 4
    55c8:	51 2e       	mov	r5, r17
    55ca:	0f e0       	ldi	r16, 0x0F	; 15
    55cc:	20 2e       	mov	r2, r16
    55ce:	01 e0       	ldi	r16, 0x01	; 1
    55d0:	30 2e       	mov	r3, r16
    55d2:	4d 99       	sbic	0x09, 5	; 9
    55d4:	3e c0       	rjmp	.+124    	; 0x5652 <main+0x12e>
    55d6:	0e 94 1a 26 	call	0x4c34	; 0x4c34 <ST7032i_Clear>
    55da:	09 e0       	ldi	r16, 0x09	; 9
    55dc:	10 e0       	ldi	r17, 0x00	; 0
    55de:	35 c0       	rjmp	.+106    	; 0x564a <main+0x126>
    55e0:	82 e3       	ldi	r24, 0x32	; 50
    55e2:	90 e0       	ldi	r25, 0x00	; 0
    55e4:	61 e0       	ldi	r22, 0x01	; 1
    55e6:	0e 94 cf 19 	call	0x339e	; 0x339e <beep>
    55ea:	84 e6       	ldi	r24, 0x64	; 100
    55ec:	90 e0       	ldi	r25, 0x00	; 0
    55ee:	0e 94 2e 01 	call	0x25c	; 0x25c <wait_ms>
    55f2:	2f ef       	ldi	r18, 0xFF	; 255
    55f4:	0f 3f       	cpi	r16, 0xFF	; 255
    55f6:	12 07       	cpc	r17, r18
    55f8:	21 f4       	brne	.+8      	; 0x5602 <main+0xde>
    55fa:	85 e0       	ldi	r24, 0x05	; 5
    55fc:	80 93 05 05 	sts	0x0505, r24
    5600:	26 c0       	rjmp	.+76     	; 0x564e <main+0x12a>
    5602:	80 e0       	ldi	r24, 0x00	; 0
    5604:	60 e0       	ldi	r22, 0x00	; 0
    5606:	0e 94 2c 26 	call	0x4c58	; 0x4c58 <ST7032i_setCursor>
    560a:	00 d0       	rcall	.+0      	; 0x560c <main+0xe8>
    560c:	00 d0       	rcall	.+0      	; 0x560e <main+0xea>
    560e:	00 d0       	rcall	.+0      	; 0x5610 <main+0xec>
    5610:	ed b7       	in	r30, 0x3d	; 61
    5612:	fe b7       	in	r31, 0x3e	; 62
    5614:	31 96       	adiw	r30, 0x01	; 1
    5616:	ad b7       	in	r26, 0x3d	; 61
    5618:	be b7       	in	r27, 0x3e	; 62
    561a:	12 96       	adiw	r26, 0x02	; 2
    561c:	dc 92       	st	X, r13
    561e:	ce 92       	st	-X, r12
    5620:	11 97       	sbiw	r26, 0x01	; 1
    5622:	b3 82       	std	Z+3, r11	; 0x03
    5624:	a2 82       	std	Z+2, r10	; 0x02
    5626:	15 83       	std	Z+5, r17	; 0x05
    5628:	04 83       	std	Z+4, r16	; 0x04
    562a:	0e 94 14 2a 	call	0x5428	; 0x5428 <xsprintf_p>
    562e:	2d b7       	in	r18, 0x3d	; 61
    5630:	3e b7       	in	r19, 0x3e	; 62
    5632:	2a 5f       	subi	r18, 0xFA	; 250
    5634:	3f 4f       	sbci	r19, 0xFF	; 255
    5636:	0f b6       	in	r0, 0x3f	; 63
    5638:	f8 94       	cli
    563a:	3e bf       	out	0x3e, r19	; 62
    563c:	0f be       	out	0x3f, r0	; 63
    563e:	2d bf       	out	0x3d, r18	; 61
    5640:	c6 01       	movw	r24, r12
    5642:	0e 94 6b 27 	call	0x4ed6	; 0x4ed6 <ST7032i_puts>
    5646:	01 50       	subi	r16, 0x01	; 1
    5648:	10 40       	sbci	r17, 0x00	; 0
    564a:	4d 9b       	sbis	0x09, 5	; 9
    564c:	c9 cf       	rjmp	.-110    	; 0x55e0 <main+0xbc>
    564e:	0e 94 1a 26 	call	0x4c34	; 0x4c34 <ST7032i_Clear>
    5652:	4f 99       	sbic	0x09, 7	; 9
    5654:	6c c0       	rjmp	.+216    	; 0x572e <main+0x20a>
    5656:	0e 94 1a 26 	call	0x4c34	; 0x4c34 <ST7032i_Clear>
    565a:	80 e0       	ldi	r24, 0x00	; 0
    565c:	60 e0       	ldi	r22, 0x00	; 0
    565e:	0e 94 2c 26 	call	0x4c58	; 0x4c58 <ST7032i_setCursor>
    5662:	80 91 90 01 	lds	r24, 0x0190
    5666:	90 91 91 01 	lds	r25, 0x0191
    566a:	ad b7       	in	r26, 0x3d	; 61
    566c:	be b7       	in	r27, 0x3e	; 62
    566e:	18 97       	sbiw	r26, 0x08	; 8
    5670:	0f b6       	in	r0, 0x3f	; 63
    5672:	f8 94       	cli
    5674:	be bf       	out	0x3e, r27	; 62
    5676:	0f be       	out	0x3f, r0	; 63
    5678:	ad bf       	out	0x3d, r26	; 61
    567a:	ed b7       	in	r30, 0x3d	; 61
    567c:	fe b7       	in	r31, 0x3e	; 62
    567e:	31 96       	adiw	r30, 0x01	; 1
    5680:	12 96       	adiw	r26, 0x02	; 2
    5682:	dc 92       	st	X, r13
    5684:	ce 92       	st	-X, r12
    5686:	11 97       	sbiw	r26, 0x01	; 1
    5688:	93 82       	std	Z+3, r9	; 0x03
    568a:	82 82       	std	Z+2, r8	; 0x02
    568c:	68 ee       	ldi	r22, 0xE8	; 232
    568e:	73 e0       	ldi	r23, 0x03	; 3
    5690:	0e 94 28 2f 	call	0x5e50	; 0x5e50 <__divmodhi4>
    5694:	75 83       	std	Z+5, r23	; 0x05
    5696:	64 83       	std	Z+4, r22	; 0x04
    5698:	97 83       	std	Z+7, r25	; 0x07
    569a:	86 83       	std	Z+6, r24	; 0x06
    569c:	0e 94 14 2a 	call	0x5428	; 0x5428 <xsprintf_p>
    56a0:	2d b7       	in	r18, 0x3d	; 61
    56a2:	3e b7       	in	r19, 0x3e	; 62
    56a4:	28 5f       	subi	r18, 0xF8	; 248
    56a6:	3f 4f       	sbci	r19, 0xFF	; 255
    56a8:	0f b6       	in	r0, 0x3f	; 63
    56aa:	f8 94       	cli
    56ac:	3e bf       	out	0x3e, r19	; 62
    56ae:	0f be       	out	0x3f, r0	; 63
    56b0:	2d bf       	out	0x3d, r18	; 61
    56b2:	c6 01       	movw	r24, r12
    56b4:	0e 94 6b 27 	call	0x4ed6	; 0x4ed6 <ST7032i_puts>
    56b8:	80 e0       	ldi	r24, 0x00	; 0
    56ba:	61 e0       	ldi	r22, 0x01	; 1
    56bc:	0e 94 2c 26 	call	0x4c58	; 0x4c58 <ST7032i_setCursor>
    56c0:	00 d0       	rcall	.+0      	; 0x56c2 <main+0x19e>
    56c2:	00 d0       	rcall	.+0      	; 0x56c4 <main+0x1a0>
    56c4:	00 d0       	rcall	.+0      	; 0x56c6 <main+0x1a2>
    56c6:	ed b7       	in	r30, 0x3d	; 61
    56c8:	fe b7       	in	r31, 0x3e	; 62
    56ca:	31 96       	adiw	r30, 0x01	; 1
    56cc:	ad b7       	in	r26, 0x3d	; 61
    56ce:	be b7       	in	r27, 0x3e	; 62
    56d0:	12 96       	adiw	r26, 0x02	; 2
    56d2:	dc 92       	st	X, r13
    56d4:	ce 92       	st	-X, r12
    56d6:	11 97       	sbiw	r26, 0x01	; 1
    56d8:	73 82       	std	Z+3, r7	; 0x03
    56da:	62 82       	std	Z+2, r6	; 0x02
    56dc:	80 91 92 01 	lds	r24, 0x0192
    56e0:	90 91 93 01 	lds	r25, 0x0193
    56e4:	95 83       	std	Z+5, r25	; 0x05
    56e6:	84 83       	std	Z+4, r24	; 0x04
    56e8:	0e 94 14 2a 	call	0x5428	; 0x5428 <xsprintf_p>
    56ec:	2d b7       	in	r18, 0x3d	; 61
    56ee:	3e b7       	in	r19, 0x3e	; 62
    56f0:	2a 5f       	subi	r18, 0xFA	; 250
    56f2:	3f 4f       	sbci	r19, 0xFF	; 255
    56f4:	0f b6       	in	r0, 0x3f	; 63
    56f6:	f8 94       	cli
    56f8:	3e bf       	out	0x3e, r19	; 62
    56fa:	0f be       	out	0x3f, r0	; 63
    56fc:	2d bf       	out	0x3d, r18	; 61
    56fe:	c6 01       	movw	r24, r12
    5700:	0e 94 6b 27 	call	0x4ed6	; 0x4ed6 <ST7032i_puts>
    5704:	1b e0       	ldi	r17, 0x0B	; 11
    5706:	0f c0       	rjmp	.+30     	; 0x5726 <main+0x202>
    5708:	82 e3       	ldi	r24, 0x32	; 50
    570a:	90 e0       	ldi	r25, 0x00	; 0
    570c:	61 e0       	ldi	r22, 0x01	; 1
    570e:	0e 94 cf 19 	call	0x339e	; 0x339e <beep>
    5712:	84 e6       	ldi	r24, 0x64	; 100
    5714:	90 e0       	ldi	r25, 0x00	; 0
    5716:	0e 94 2e 01 	call	0x25c	; 0x25c <wait_ms>
    571a:	11 50       	subi	r17, 0x01	; 1
    571c:	21 f4       	brne	.+8      	; 0x5726 <main+0x202>
    571e:	82 e0       	ldi	r24, 0x02	; 2
    5720:	80 93 05 05 	sts	0x0505, r24
    5724:	02 c0       	rjmp	.+4      	; 0x572a <main+0x206>
    5726:	4f 9b       	sbis	0x09, 7	; 9
    5728:	ef cf       	rjmp	.-34     	; 0x5708 <main+0x1e4>
    572a:	0e 94 1a 26 	call	0x4c34	; 0x4c34 <ST7032i_Clear>
    572e:	4a 99       	sbic	0x09, 2	; 9
    5730:	06 c0       	rjmp	.+12     	; 0x573e <main+0x21a>
    5732:	0e 94 9d 19 	call	0x333a	; 0x333a <SPI_Init>
    5736:	81 e0       	ldi	r24, 0x01	; 1
    5738:	80 93 23 05 	sts	0x0523, r24
    573c:	04 c0       	rjmp	.+8      	; 0x5746 <main+0x222>
    573e:	0e 94 a3 19 	call	0x3346	; 0x3346 <SPI_Stop>
    5742:	10 92 23 05 	sts	0x0523, r1
    5746:	10 91 05 05 	lds	r17, 0x0505
    574a:	12 30       	cpi	r17, 0x02	; 2
    574c:	09 f4       	brne	.+2      	; 0x5750 <main+0x22c>
    574e:	67 c0       	rjmp	.+206    	; 0x581e <main+0x2fa>
    5750:	13 30       	cpi	r17, 0x03	; 3
    5752:	30 f4       	brcc	.+12     	; 0x5760 <main+0x23c>
    5754:	11 23       	and	r17, r17
    5756:	71 f0       	breq	.+28     	; 0x5774 <main+0x250>
    5758:	11 30       	cpi	r17, 0x01	; 1
    575a:	09 f0       	breq	.+2      	; 0x575e <main+0x23a>
    575c:	0c c2       	rjmp	.+1048   	; 0x5b76 <main+0x652>
    575e:	6d c0       	rjmp	.+218    	; 0x583a <main+0x316>
    5760:	15 30       	cpi	r17, 0x05	; 5
    5762:	09 f4       	brne	.+2      	; 0x5766 <main+0x242>
    5764:	ef c1       	rjmp	.+990    	; 0x5b44 <main+0x620>
    5766:	17 30       	cpi	r17, 0x07	; 7
    5768:	09 f4       	brne	.+2      	; 0x576c <main+0x248>
    576a:	04 c2       	rjmp	.+1032   	; 0x5b74 <main+0x650>
    576c:	14 30       	cpi	r17, 0x04	; 4
    576e:	09 f0       	breq	.+2      	; 0x5772 <main+0x24e>
    5770:	02 c2       	rjmp	.+1028   	; 0x5b76 <main+0x652>
    5772:	e3 c0       	rjmp	.+454    	; 0x593a <main+0x416>
    5774:	0e 94 8f 1b 	call	0x371e	; 0x371e <lcdpower_on>
    5778:	88 e2       	ldi	r24, 0x28	; 40
    577a:	91 e0       	ldi	r25, 0x01	; 1
    577c:	66 e3       	ldi	r22, 0x36	; 54
    577e:	71 e0       	ldi	r23, 0x01	; 1
    5780:	0e 94 9f 1c 	call	0x393e	; 0x393e <dispMessage>
    5784:	0e 94 ba 23 	call	0x4774	; 0x4774 <mpl115a_open>
    5788:	88 23       	and	r24, r24
    578a:	71 f0       	breq	.+28     	; 0x57a8 <main+0x284>
    578c:	87 e4       	ldi	r24, 0x47	; 71
    578e:	91 e0       	ldi	r25, 0x01	; 1
    5790:	62 e5       	ldi	r22, 0x52	; 82
    5792:	71 e0       	ldi	r23, 0x01	; 1
    5794:	0e 94 9f 1c 	call	0x393e	; 0x393e <dispMessage>
    5798:	8c e2       	ldi	r24, 0x2C	; 44
    579a:	91 e0       	ldi	r25, 0x01	; 1
    579c:	63 e0       	ldi	r22, 0x03	; 3
    579e:	0e 94 cf 19 	call	0x339e	; 0x339e <beep>
    57a2:	88 e0       	ldi	r24, 0x08	; 8
    57a4:	80 93 05 05 	sts	0x0505, r24
    57a8:	0e 94 96 1a 	call	0x352c	; 0x352c <initMpl115a2Data>
    57ac:	88 23       	and	r24, r24
    57ae:	71 f4       	brne	.+28     	; 0x57cc <main+0x2a8>
    57b0:	8f e5       	ldi	r24, 0x5F	; 95
    57b2:	91 e0       	ldi	r25, 0x01	; 1
    57b4:	6a e6       	ldi	r22, 0x6A	; 106
    57b6:	71 e0       	ldi	r23, 0x01	; 1
    57b8:	0e 94 9f 1c 	call	0x393e	; 0x393e <dispMessage>
    57bc:	8c e2       	ldi	r24, 0x2C	; 44
    57be:	91 e0       	ldi	r25, 0x01	; 1
    57c0:	63 e0       	ldi	r22, 0x03	; 3
    57c2:	0e 94 cf 19 	call	0x339e	; 0x339e <beep>
    57c6:	88 e0       	ldi	r24, 0x08	; 8
    57c8:	80 93 05 05 	sts	0x0505, r24
    57cc:	0e 94 f9 1a 	call	0x35f2	; 0x35f2 <initVoltData>
    57d0:	0e 94 34 1b 	call	0x3668	; 0x3668 <initIlumData>
    57d4:	84 e0       	ldi	r24, 0x04	; 4
    57d6:	80 93 05 05 	sts	0x0505, r24
    57da:	4a 99       	sbic	0x09, 2	; 9
    57dc:	19 c0       	rjmp	.+50     	; 0x5810 <main+0x2ec>
    57de:	0e 94 9d 19 	call	0x333a	; 0x333a <SPI_Init>
    57e2:	84 e6       	ldi	r24, 0x64	; 100
    57e4:	90 e0       	ldi	r25, 0x00	; 0
    57e6:	0e 94 2e 01 	call	0x25c	; 0x25c <wait_ms>
    57ea:	80 e0       	ldi	r24, 0x00	; 0
    57ec:	60 ea       	ldi	r22, 0xA0	; 160
    57ee:	71 e0       	ldi	r23, 0x01	; 1
    57f0:	0e 94 2f 0d 	call	0x1a5e	; 0x1a5e <f_mount>
    57f4:	88 23       	and	r24, r24
    57f6:	31 f0       	breq	.+12     	; 0x5804 <main+0x2e0>
    57f8:	8c e2       	ldi	r24, 0x2C	; 44
    57fa:	91 e0       	ldi	r25, 0x01	; 1
    57fc:	63 e0       	ldi	r22, 0x03	; 3
    57fe:	0e 94 cf 19 	call	0x339e	; 0x339e <beep>
    5802:	08 c0       	rjmp	.+16     	; 0x5814 <main+0x2f0>
    5804:	81 e0       	ldi	r24, 0x01	; 1
    5806:	80 93 05 05 	sts	0x0505, r24
    580a:	80 93 23 05 	sts	0x0523, r24
    580e:	04 c0       	rjmp	.+8      	; 0x5818 <main+0x2f4>
    5810:	0e 94 a3 19 	call	0x3346	; 0x3346 <SPI_Stop>
    5814:	10 92 23 05 	sts	0x0523, r1
    5818:	0e 94 1a 26 	call	0x4c34	; 0x4c34 <ST7032i_Clear>
    581c:	ac c1       	rjmp	.+856    	; 0x5b76 <main+0x652>
    581e:	80 91 23 05 	lds	r24, 0x0523
    5822:	0e 94 d5 1c 	call	0x39aa	; 0x39aa <setConfig>
    5826:	80 91 23 05 	lds	r24, 0x0523
    582a:	88 23       	and	r24, r24
    582c:	11 f0       	breq	.+4      	; 0x5832 <main+0x30e>
    582e:	81 e0       	ldi	r24, 0x01	; 1
    5830:	01 c0       	rjmp	.+2      	; 0x5834 <main+0x310>
    5832:	84 e0       	ldi	r24, 0x04	; 4
    5834:	80 93 05 05 	sts	0x0505, r24
    5838:	9e c1       	rjmp	.+828    	; 0x5b76 <main+0x652>
    583a:	89 e0       	ldi	r24, 0x09	; 9
    583c:	95 e0       	ldi	r25, 0x05	; 5
    583e:	0e 94 a0 01 	call	0x340	; 0x340 <DS3231S_now>
    5842:	f0 90 0a 05 	lds	r15, 0x050A
    5846:	e0 90 0c 05 	lds	r14, 0x050C
    584a:	8d b7       	in	r24, 0x3d	; 61
    584c:	9e b7       	in	r25, 0x3e	; 62
    584e:	0a 97       	sbiw	r24, 0x0a	; 10
    5850:	0f b6       	in	r0, 0x3f	; 63
    5852:	f8 94       	cli
    5854:	9e bf       	out	0x3e, r25	; 62
    5856:	0f be       	out	0x3f, r0	; 63
    5858:	8d bf       	out	0x3d, r24	; 61
    585a:	ed b7       	in	r30, 0x3d	; 61
    585c:	fe b7       	in	r31, 0x3e	; 62
    585e:	31 96       	adiw	r30, 0x01	; 1
    5860:	23 e1       	ldi	r18, 0x13	; 19
    5862:	35 e0       	ldi	r19, 0x05	; 5
    5864:	ad b7       	in	r26, 0x3d	; 61
    5866:	be b7       	in	r27, 0x3e	; 62
    5868:	12 96       	adiw	r26, 0x02	; 2
    586a:	3c 93       	st	X, r19
    586c:	2e 93       	st	-X, r18
    586e:	11 97       	sbiw	r26, 0x01	; 1
    5870:	8b e7       	ldi	r24, 0x7B	; 123
    5872:	91 e0       	ldi	r25, 0x01	; 1
    5874:	93 83       	std	Z+3, r25	; 0x03
    5876:	82 83       	std	Z+2, r24	; 0x02
    5878:	80 91 0e 05 	lds	r24, 0x050E
    587c:	90 91 0f 05 	lds	r25, 0x050F
    5880:	64 e6       	ldi	r22, 0x64	; 100
    5882:	70 e0       	ldi	r23, 0x00	; 0
    5884:	0e 94 14 2f 	call	0x5e28	; 0x5e28 <__udivmodhi4>
    5888:	95 83       	std	Z+5, r25	; 0x05
    588a:	84 83       	std	Z+4, r24	; 0x04
    588c:	80 91 0d 05 	lds	r24, 0x050D
    5890:	86 83       	std	Z+6, r24	; 0x06
    5892:	17 82       	std	Z+7, r1	; 0x07
    5894:	e0 86       	std	Z+8, r14	; 0x08
    5896:	11 86       	std	Z+9, r1	; 0x09
    5898:	0e 94 14 2a 	call	0x5428	; 0x5428 <xsprintf_p>
    589c:	ad b7       	in	r26, 0x3d	; 61
    589e:	be b7       	in	r27, 0x3e	; 62
    58a0:	1a 96       	adiw	r26, 0x0a	; 10
    58a2:	0f b6       	in	r0, 0x3f	; 63
    58a4:	f8 94       	cli
    58a6:	be bf       	out	0x3e, r27	; 62
    58a8:	0f be       	out	0x3f, r0	; 63
    58aa:	ad bf       	out	0x3d, r26	; 61
    58ac:	8e e0       	ldi	r24, 0x0E	; 14
    58ae:	94 e0       	ldi	r25, 0x04	; 4
    58b0:	63 e1       	ldi	r22, 0x13	; 19
    58b2:	75 e0       	ldi	r23, 0x05	; 5
    58b4:	42 e1       	ldi	r20, 0x12	; 18
    58b6:	0e 94 45 0d 	call	0x1a8a	; 0x1a8a <f_open>
    58ba:	88 23       	and	r24, r24
    58bc:	71 f4       	brne	.+28     	; 0x58da <main+0x3b6>
    58be:	40 91 18 04 	lds	r20, 0x0418
    58c2:	50 91 19 04 	lds	r21, 0x0419
    58c6:	60 91 1a 04 	lds	r22, 0x041A
    58ca:	70 91 1b 04 	lds	r23, 0x041B
    58ce:	8e e0       	ldi	r24, 0x0E	; 14
    58d0:	94 e0       	ldi	r25, 0x04	; 4
    58d2:	0e 94 93 13 	call	0x2726	; 0x2726 <f_lseek>
    58d6:	88 23       	and	r24, r24
    58d8:	a1 f0       	breq	.+40     	; 0x5902 <main+0x3de>
    58da:	10 92 23 05 	sts	0x0523, r1
    58de:	8c e8       	ldi	r24, 0x8C	; 140
    58e0:	91 e0       	ldi	r25, 0x01	; 1
    58e2:	63 e1       	ldi	r22, 0x13	; 19
    58e4:	75 e0       	ldi	r23, 0x05	; 5
    58e6:	0e 94 ba 1c 	call	0x3974	; 0x3974 <dispMessage2>
    58ea:	8c e2       	ldi	r24, 0x2C	; 44
    58ec:	91 e0       	ldi	r25, 0x01	; 1
    58ee:	63 e0       	ldi	r22, 0x03	; 3
    58f0:	0e 94 cf 19 	call	0x339e	; 0x339e <beep>
    58f4:	87 e0       	ldi	r24, 0x07	; 7
    58f6:	61 e0       	ldi	r22, 0x01	; 1
    58f8:	0e 94 87 27 	call	0x4f0e	; 0x4f0e <ST7032i_Icon>
    58fc:	86 e0       	ldi	r24, 0x06	; 6
    58fe:	60 e0       	ldi	r22, 0x00	; 0
    5900:	13 c0       	rjmp	.+38     	; 0x5928 <main+0x404>
    5902:	10 93 23 05 	sts	0x0523, r17
    5906:	89 e9       	ldi	r24, 0x99	; 153
    5908:	91 e0       	ldi	r25, 0x01	; 1
    590a:	63 e1       	ldi	r22, 0x13	; 19
    590c:	75 e0       	ldi	r23, 0x05	; 5
    590e:	0e 94 ba 1c 	call	0x3974	; 0x3974 <dispMessage2>
    5912:	82 e3       	ldi	r24, 0x32	; 50
    5914:	90 e0       	ldi	r25, 0x00	; 0
    5916:	62 e0       	ldi	r22, 0x02	; 2
    5918:	0e 94 cf 19 	call	0x339e	; 0x339e <beep>
    591c:	87 e0       	ldi	r24, 0x07	; 7
    591e:	60 e0       	ldi	r22, 0x00	; 0
    5920:	0e 94 87 27 	call	0x4f0e	; 0x4f0e <ST7032i_Icon>
    5924:	86 e0       	ldi	r24, 0x06	; 6
    5926:	61 e0       	ldi	r22, 0x01	; 1
    5928:	0e 94 87 27 	call	0x4f0e	; 0x4f0e <ST7032i_Icon>
    592c:	81 e0       	ldi	r24, 0x01	; 1
    592e:	90 e0       	ldi	r25, 0x00	; 0
    5930:	0e 94 39 01 	call	0x272	; 0x272 <wait_sec>
    5934:	0e 94 1a 26 	call	0x4c34	; 0x4c34 <ST7032i_Clear>
    5938:	7c cf       	rjmp	.-264    	; 0x5832 <main+0x30e>
    593a:	89 e0       	ldi	r24, 0x09	; 9
    593c:	95 e0       	ldi	r25, 0x05	; 5
    593e:	0e 94 a0 01 	call	0x340	; 0x340 <DS3231S_now>
    5942:	0e 94 9c 1b 	call	0x3738	; 0x3738 <dispTime>
    5946:	10 91 0c 05 	lds	r17, 0x050C
    594a:	e1 16       	cp	r14, r17
    594c:	39 f1       	breq	.+78     	; 0x599c <main+0x478>
    594e:	80 91 23 05 	lds	r24, 0x0523
    5952:	88 23       	and	r24, r24
    5954:	19 f1       	breq	.+70     	; 0x599c <main+0x478>
    5956:	8e e0       	ldi	r24, 0x0E	; 14
    5958:	94 e0       	ldi	r25, 0x04	; 4
    595a:	0e 94 d7 12 	call	0x25ae	; 0x25ae <f_sync>
    595e:	88 23       	and	r24, r24
    5960:	79 f0       	breq	.+30     	; 0x5980 <main+0x45c>
    5962:	88 ea       	ldi	r24, 0xA8	; 168
    5964:	91 e0       	ldi	r25, 0x01	; 1
    5966:	6f ea       	ldi	r22, 0xAF	; 175
    5968:	71 e0       	ldi	r23, 0x01	; 1
    596a:	0e 94 9f 1c 	call	0x393e	; 0x393e <dispMessage>
    596e:	8c e2       	ldi	r24, 0x2C	; 44
    5970:	91 e0       	ldi	r25, 0x01	; 1
    5972:	63 e0       	ldi	r22, 0x03	; 3
    5974:	0e 94 cf 19 	call	0x339e	; 0x339e <beep>
    5978:	88 e0       	ldi	r24, 0x08	; 8
    597a:	80 93 05 05 	sts	0x0505, r24
    597e:	05 c0       	rjmp	.+10     	; 0x598a <main+0x466>
    5980:	82 e3       	ldi	r24, 0x32	; 50
    5982:	90 e0       	ldi	r25, 0x00	; 0
    5984:	62 e0       	ldi	r22, 0x02	; 2
    5986:	0e 94 f5 19 	call	0x33ea	; 0x33ea <led_blink>
    598a:	8e e0       	ldi	r24, 0x0E	; 14
    598c:	94 e0       	ldi	r25, 0x04	; 4
    598e:	0e 94 87 13 	call	0x270e	; 0x270e <f_close>
    5992:	81 e0       	ldi	r24, 0x01	; 1
    5994:	80 93 05 05 	sts	0x0505, r24
    5998:	e1 2e       	mov	r14, r17
    599a:	1b ce       	rjmp	.-970    	; 0x55d2 <main+0xae>
    599c:	0e 94 01 1b 	call	0x3602	; 0x3602 <averageVoltData>
    59a0:	ac 01       	movw	r20, r24
    59a2:	90 93 91 01 	sts	0x0191, r25
    59a6:	80 93 90 01 	sts	0x0190, r24
    59aa:	e3 e4       	ldi	r30, 0x43	; 67
    59ac:	f1 e0       	ldi	r31, 0x01	; 1
    59ae:	80 e0       	ldi	r24, 0x00	; 0
    59b0:	21 91       	ld	r18, Z+
    59b2:	31 91       	ld	r19, Z+
    59b4:	42 17       	cp	r20, r18
    59b6:	53 07       	cpc	r21, r19
    59b8:	24 f0       	brlt	.+8      	; 0x59c2 <main+0x49e>
    59ba:	8f 5f       	subi	r24, 0xFF	; 255
    59bc:	84 30       	cpi	r24, 0x04	; 4
    59be:	c1 f7       	brne	.-16     	; 0x59b0 <main+0x48c>
    59c0:	15 c0       	rjmp	.+42     	; 0x59ec <main+0x4c8>
    59c2:	88 23       	and	r24, r24
    59c4:	99 f4       	brne	.+38     	; 0x59ec <main+0x4c8>
    59c6:	8c eb       	ldi	r24, 0xBC	; 188
    59c8:	91 e0       	ldi	r25, 0x01	; 1
    59ca:	68 ec       	ldi	r22, 0xC8	; 200
    59cc:	71 e0       	ldi	r23, 0x01	; 1
    59ce:	0e 94 9f 1c 	call	0x393e	; 0x393e <dispMessage>
    59d2:	8c e2       	ldi	r24, 0x2C	; 44
    59d4:	91 e0       	ldi	r25, 0x01	; 1
    59d6:	63 e0       	ldi	r22, 0x03	; 3
    59d8:	0e 94 cf 19 	call	0x339e	; 0x339e <beep>
    59dc:	81 e0       	ldi	r24, 0x01	; 1
    59de:	90 e0       	ldi	r25, 0x00	; 0
    59e0:	0e 94 39 01 	call	0x272	; 0x272 <wait_sec>
    59e4:	87 e0       	ldi	r24, 0x07	; 7
    59e6:	80 93 05 05 	sts	0x0505, r24
    59ea:	f3 cd       	rjmp	.-1050   	; 0x55d2 <main+0xae>
    59ec:	81 50       	subi	r24, 0x01	; 1
    59ee:	61 e0       	ldi	r22, 0x01	; 1
    59f0:	0e 94 aa 27 	call	0x4f54	; 0x4f54 <ST7032i_Power_Icon>
    59f4:	0e 94 3c 1b 	call	0x3678	; 0x3678 <averageIlumData>
    59f8:	90 93 93 01 	sts	0x0193, r25
    59fc:	80 93 92 01 	sts	0x0192, r24
    5a00:	ce 01       	movw	r24, r28
    5a02:	07 96       	adiw	r24, 0x07	; 7
    5a04:	be 01       	movw	r22, r28
    5a06:	6b 5f       	subi	r22, 0xFB	; 251
    5a08:	7f 4f       	sbci	r23, 0xFF	; 255
    5a0a:	ae 01       	movw	r20, r28
    5a0c:	4d 5f       	subi	r20, 0xFD	; 253
    5a0e:	5f 4f       	sbci	r21, 0xFF	; 255
    5a10:	9e 01       	movw	r18, r28
    5a12:	2f 5f       	subi	r18, 0xFF	; 255
    5a14:	3f 4f       	sbci	r19, 0xFF	; 255
    5a16:	0e 94 a7 1a 	call	0x354e	; 0x354e <averageMpl115a2Data>
    5a1a:	88 23       	and	r24, r24
    5a1c:	09 f4       	brne	.+2      	; 0x5a20 <main+0x4fc>
    5a1e:	ab c0       	rjmp	.+342    	; 0x5b76 <main+0x652>
    5a20:	6d 81       	ldd	r22, Y+5	; 0x05
    5a22:	7e 81       	ldd	r23, Y+6	; 0x06
    5a24:	4b 81       	ldd	r20, Y+3	; 0x03
    5a26:	5c 81       	ldd	r21, Y+4	; 0x04
    5a28:	29 81       	ldd	r18, Y+1	; 0x01
    5a2a:	3a 81       	ldd	r19, Y+2	; 0x02
    5a2c:	8f 81       	ldd	r24, Y+7	; 0x07
    5a2e:	98 85       	ldd	r25, Y+8	; 0x08
    5a30:	0e 94 1c 1c 	call	0x3838	; 0x3838 <dispAtom>
    5a34:	80 91 23 05 	lds	r24, 0x0523
    5a38:	88 23       	and	r24, r24
    5a3a:	09 f4       	brne	.+2      	; 0x5a3e <main+0x51a>
    5a3c:	9c c0       	rjmp	.+312    	; 0x5b76 <main+0x652>
    5a3e:	20 91 0a 05 	lds	r18, 0x050A
    5a42:	f2 16       	cp	r15, r18
    5a44:	09 f4       	brne	.+2      	; 0x5a48 <main+0x524>
    5a46:	5b c0       	rjmp	.+182    	; 0x5afe <main+0x5da>
    5a48:	40 91 90 01 	lds	r20, 0x0190
    5a4c:	50 91 91 01 	lds	r21, 0x0191
    5a50:	8d b7       	in	r24, 0x3d	; 61
    5a52:	9e b7       	in	r25, 0x3e	; 62
    5a54:	4e 97       	sbiw	r24, 0x1e	; 30
    5a56:	0f b6       	in	r0, 0x3f	; 63
    5a58:	f8 94       	cli
    5a5a:	9e bf       	out	0x3e, r25	; 62
    5a5c:	0f be       	out	0x3f, r0	; 63
    5a5e:	8d bf       	out	0x3d, r24	; 61
    5a60:	ed b7       	in	r30, 0x3d	; 61
    5a62:	fe b7       	in	r31, 0x3e	; 62
    5a64:	31 96       	adiw	r30, 0x01	; 1
    5a66:	ad b7       	in	r26, 0x3d	; 61
    5a68:	be b7       	in	r27, 0x3e	; 62
    5a6a:	12 96       	adiw	r26, 0x02	; 2
    5a6c:	5c 92       	st	X, r5
    5a6e:	4e 92       	st	-X, r4
    5a70:	11 97       	sbiw	r26, 0x01	; 1
    5a72:	33 82       	std	Z+3, r3	; 0x03
    5a74:	22 82       	std	Z+2, r2	; 0x02
    5a76:	80 91 0e 05 	lds	r24, 0x050E
    5a7a:	90 91 0f 05 	lds	r25, 0x050F
    5a7e:	95 83       	std	Z+5, r25	; 0x05
    5a80:	84 83       	std	Z+4, r24	; 0x04
    5a82:	80 91 0d 05 	lds	r24, 0x050D
    5a86:	86 83       	std	Z+6, r24	; 0x06
    5a88:	17 82       	std	Z+7, r1	; 0x07
    5a8a:	80 91 0c 05 	lds	r24, 0x050C
    5a8e:	80 87       	std	Z+8, r24	; 0x08
    5a90:	11 86       	std	Z+9, r1	; 0x09
    5a92:	80 91 0b 05 	lds	r24, 0x050B
    5a96:	82 87       	std	Z+10, r24	; 0x0a
    5a98:	13 86       	std	Z+11, r1	; 0x0b
    5a9a:	24 87       	std	Z+12, r18	; 0x0c
    5a9c:	15 86       	std	Z+13, r1	; 0x0d
    5a9e:	80 91 09 05 	lds	r24, 0x0509
    5aa2:	86 87       	std	Z+14, r24	; 0x0e
    5aa4:	17 86       	std	Z+15, r1	; 0x0f
    5aa6:	8f 81       	ldd	r24, Y+7	; 0x07
    5aa8:	98 85       	ldd	r25, Y+8	; 0x08
    5aaa:	91 8b       	std	Z+17, r25	; 0x11
    5aac:	80 8b       	std	Z+16, r24	; 0x10
    5aae:	8d 81       	ldd	r24, Y+5	; 0x05
    5ab0:	9e 81       	ldd	r25, Y+6	; 0x06
    5ab2:	93 8b       	std	Z+19, r25	; 0x13
    5ab4:	82 8b       	std	Z+18, r24	; 0x12
    5ab6:	8b 81       	ldd	r24, Y+3	; 0x03
    5ab8:	9c 81       	ldd	r25, Y+4	; 0x04
    5aba:	95 8b       	std	Z+21, r25	; 0x15
    5abc:	84 8b       	std	Z+20, r24	; 0x14
    5abe:	89 81       	ldd	r24, Y+1	; 0x01
    5ac0:	9a 81       	ldd	r25, Y+2	; 0x02
    5ac2:	97 8b       	std	Z+23, r25	; 0x17
    5ac4:	86 8b       	std	Z+22, r24	; 0x16
    5ac6:	80 91 92 01 	lds	r24, 0x0192
    5aca:	90 91 93 01 	lds	r25, 0x0193
    5ace:	91 8f       	std	Z+25, r25	; 0x19
    5ad0:	80 8f       	std	Z+24, r24	; 0x18
    5ad2:	ca 01       	movw	r24, r20
    5ad4:	68 ee       	ldi	r22, 0xE8	; 232
    5ad6:	73 e0       	ldi	r23, 0x03	; 3
    5ad8:	0e 94 28 2f 	call	0x5e50	; 0x5e50 <__divmodhi4>
    5adc:	73 8f       	std	Z+27, r23	; 0x1b
    5ade:	62 8f       	std	Z+26, r22	; 0x1a
    5ae0:	95 8f       	std	Z+29, r25	; 0x1d
    5ae2:	84 8f       	std	Z+28, r24	; 0x1c
    5ae4:	0e 94 25 17 	call	0x2e4a	; 0x2e4a <f_printf>
    5ae8:	f0 90 0a 05 	lds	r15, 0x050A
    5aec:	2d b7       	in	r18, 0x3d	; 61
    5aee:	3e b7       	in	r19, 0x3e	; 62
    5af0:	22 5e       	subi	r18, 0xE2	; 226
    5af2:	3f 4f       	sbci	r19, 0xFF	; 255
    5af4:	0f b6       	in	r0, 0x3f	; 63
    5af6:	f8 94       	cli
    5af8:	3e bf       	out	0x3e, r19	; 62
    5afa:	0f be       	out	0x3f, r0	; 63
    5afc:	2d bf       	out	0x3d, r18	; 61
    5afe:	80 91 04 05 	lds	r24, 0x0504
    5b02:	88 23       	and	r24, r24
    5b04:	c1 f1       	breq	.+112    	; 0x5b76 <main+0x652>
    5b06:	8e e0       	ldi	r24, 0x0E	; 14
    5b08:	94 e0       	ldi	r25, 0x04	; 4
    5b0a:	0e 94 d7 12 	call	0x25ae	; 0x25ae <f_sync>
    5b0e:	88 23       	and	r24, r24
    5b10:	79 f0       	breq	.+30     	; 0x5b30 <main+0x60c>
    5b12:	87 ed       	ldi	r24, 0xD7	; 215
    5b14:	91 e0       	ldi	r25, 0x01	; 1
    5b16:	6e ed       	ldi	r22, 0xDE	; 222
    5b18:	71 e0       	ldi	r23, 0x01	; 1
    5b1a:	0e 94 9f 1c 	call	0x393e	; 0x393e <dispMessage>
    5b1e:	8c e2       	ldi	r24, 0x2C	; 44
    5b20:	91 e0       	ldi	r25, 0x01	; 1
    5b22:	63 e0       	ldi	r22, 0x03	; 3
    5b24:	0e 94 cf 19 	call	0x339e	; 0x339e <beep>
    5b28:	88 e0       	ldi	r24, 0x08	; 8
    5b2a:	80 93 05 05 	sts	0x0505, r24
    5b2e:	05 c0       	rjmp	.+10     	; 0x5b3a <main+0x616>
    5b30:	82 e3       	ldi	r24, 0x32	; 50
    5b32:	90 e0       	ldi	r25, 0x00	; 0
    5b34:	62 e0       	ldi	r22, 0x02	; 2
    5b36:	0e 94 f5 19 	call	0x33ea	; 0x33ea <led_blink>
    5b3a:	f8 94       	cli
    5b3c:	10 92 04 05 	sts	0x0504, r1
    5b40:	78 94       	sei
    5b42:	19 c0       	rjmp	.+50     	; 0x5b76 <main+0x652>
    5b44:	80 91 23 05 	lds	r24, 0x0523
    5b48:	88 23       	and	r24, r24
    5b4a:	41 f0       	breq	.+16     	; 0x5b5c <main+0x638>
    5b4c:	8e e0       	ldi	r24, 0x0E	; 14
    5b4e:	94 e0       	ldi	r25, 0x04	; 4
    5b50:	0e 94 d7 12 	call	0x25ae	; 0x25ae <f_sync>
    5b54:	8e e0       	ldi	r24, 0x0E	; 14
    5b56:	94 e0       	ldi	r25, 0x04	; 4
    5b58:	0e 94 87 13 	call	0x270e	; 0x270e <f_close>
    5b5c:	0e 94 1a 26 	call	0x4c34	; 0x4c34 <ST7032i_Clear>
    5b60:	80 e0       	ldi	r24, 0x00	; 0
    5b62:	60 e0       	ldi	r22, 0x00	; 0
    5b64:	0e 94 2c 26 	call	0x4c58	; 0x4c58 <ST7032i_setCursor>
    5b68:	8b ee       	ldi	r24, 0xEB	; 235
    5b6a:	91 e0       	ldi	r25, 0x01	; 1
    5b6c:	0e 94 78 27 	call	0x4ef0	; 0x4ef0 <ST7032i_puts_p>
    5b70:	87 e0       	ldi	r24, 0x07	; 7
    5b72:	60 ce       	rjmp	.-832    	; 0x5834 <main+0x310>
    5b74:	5b 98       	cbi	0x0b, 3	; 11
    5b76:	20 98       	cbi	0x04, 0	; 4
    5b78:	28 98       	cbi	0x05, 0	; 5
    5b7a:	83 b7       	in	r24, 0x33	; 51
    5b7c:	81 60       	ori	r24, 0x01	; 1
    5b7e:	83 bf       	out	0x33, r24	; 51
    5b80:	88 95       	sleep
    5b82:	83 b7       	in	r24, 0x33	; 51
    5b84:	8e 7f       	andi	r24, 0xFE	; 254
    5b86:	83 bf       	out	0x33, r24	; 51
    5b88:	20 9a       	sbi	0x04, 0	; 4
    5b8a:	28 9a       	sbi	0x05, 0	; 5
    5b8c:	22 cd       	rjmp	.-1468   	; 0x55d2 <main+0xae>

00005b8e <__fixsfsi>:
    5b8e:	04 d0       	rcall	.+8      	; 0x5b98 <__fixunssfsi>
    5b90:	68 94       	set
    5b92:	b1 11       	cpse	r27, r1
    5b94:	8d c0       	rjmp	.+282    	; 0x5cb0 <__fp_szero>
    5b96:	08 95       	ret

00005b98 <__fixunssfsi>:
    5b98:	70 d0       	rcall	.+224    	; 0x5c7a <__fp_splitA>
    5b9a:	88 f0       	brcs	.+34     	; 0x5bbe <__fixunssfsi+0x26>
    5b9c:	9f 57       	subi	r25, 0x7F	; 127
    5b9e:	90 f0       	brcs	.+36     	; 0x5bc4 <__fixunssfsi+0x2c>
    5ba0:	b9 2f       	mov	r27, r25
    5ba2:	99 27       	eor	r25, r25
    5ba4:	b7 51       	subi	r27, 0x17	; 23
    5ba6:	a0 f0       	brcs	.+40     	; 0x5bd0 <__fixunssfsi+0x38>
    5ba8:	d1 f0       	breq	.+52     	; 0x5bde <__fixunssfsi+0x46>
    5baa:	66 0f       	add	r22, r22
    5bac:	77 1f       	adc	r23, r23
    5bae:	88 1f       	adc	r24, r24
    5bb0:	99 1f       	adc	r25, r25
    5bb2:	1a f0       	brmi	.+6      	; 0x5bba <__fixunssfsi+0x22>
    5bb4:	ba 95       	dec	r27
    5bb6:	c9 f7       	brne	.-14     	; 0x5baa <__fixunssfsi+0x12>
    5bb8:	12 c0       	rjmp	.+36     	; 0x5bde <__fixunssfsi+0x46>
    5bba:	b1 30       	cpi	r27, 0x01	; 1
    5bbc:	81 f0       	breq	.+32     	; 0x5bde <__fixunssfsi+0x46>
    5bbe:	77 d0       	rcall	.+238    	; 0x5cae <__fp_zero>
    5bc0:	b1 e0       	ldi	r27, 0x01	; 1
    5bc2:	08 95       	ret
    5bc4:	74 c0       	rjmp	.+232    	; 0x5cae <__fp_zero>
    5bc6:	67 2f       	mov	r22, r23
    5bc8:	78 2f       	mov	r23, r24
    5bca:	88 27       	eor	r24, r24
    5bcc:	b8 5f       	subi	r27, 0xF8	; 248
    5bce:	39 f0       	breq	.+14     	; 0x5bde <__fixunssfsi+0x46>
    5bd0:	b9 3f       	cpi	r27, 0xF9	; 249
    5bd2:	cc f3       	brlt	.-14     	; 0x5bc6 <__fixunssfsi+0x2e>
    5bd4:	86 95       	lsr	r24
    5bd6:	77 95       	ror	r23
    5bd8:	67 95       	ror	r22
    5bda:	b3 95       	inc	r27
    5bdc:	d9 f7       	brne	.-10     	; 0x5bd4 <__fixunssfsi+0x3c>
    5bde:	3e f4       	brtc	.+14     	; 0x5bee <__fixunssfsi+0x56>
    5be0:	90 95       	com	r25
    5be2:	80 95       	com	r24
    5be4:	70 95       	com	r23
    5be6:	61 95       	neg	r22
    5be8:	7f 4f       	sbci	r23, 0xFF	; 255
    5bea:	8f 4f       	sbci	r24, 0xFF	; 255
    5bec:	9f 4f       	sbci	r25, 0xFF	; 255
    5bee:	08 95       	ret

00005bf0 <__floatunsisf>:
    5bf0:	e8 94       	clt
    5bf2:	09 c0       	rjmp	.+18     	; 0x5c06 <__floatsisf+0x12>

00005bf4 <__floatsisf>:
    5bf4:	97 fb       	bst	r25, 7
    5bf6:	3e f4       	brtc	.+14     	; 0x5c06 <__floatsisf+0x12>
    5bf8:	90 95       	com	r25
    5bfa:	80 95       	com	r24
    5bfc:	70 95       	com	r23
    5bfe:	61 95       	neg	r22
    5c00:	7f 4f       	sbci	r23, 0xFF	; 255
    5c02:	8f 4f       	sbci	r24, 0xFF	; 255
    5c04:	9f 4f       	sbci	r25, 0xFF	; 255
    5c06:	99 23       	and	r25, r25
    5c08:	a9 f0       	breq	.+42     	; 0x5c34 <__floatsisf+0x40>
    5c0a:	f9 2f       	mov	r31, r25
    5c0c:	96 e9       	ldi	r25, 0x96	; 150
    5c0e:	bb 27       	eor	r27, r27
    5c10:	93 95       	inc	r25
    5c12:	f6 95       	lsr	r31
    5c14:	87 95       	ror	r24
    5c16:	77 95       	ror	r23
    5c18:	67 95       	ror	r22
    5c1a:	b7 95       	ror	r27
    5c1c:	f1 11       	cpse	r31, r1
    5c1e:	f8 cf       	rjmp	.-16     	; 0x5c10 <__floatsisf+0x1c>
    5c20:	fa f4       	brpl	.+62     	; 0x5c60 <__floatsisf+0x6c>
    5c22:	bb 0f       	add	r27, r27
    5c24:	11 f4       	brne	.+4      	; 0x5c2a <__floatsisf+0x36>
    5c26:	60 ff       	sbrs	r22, 0
    5c28:	1b c0       	rjmp	.+54     	; 0x5c60 <__floatsisf+0x6c>
    5c2a:	6f 5f       	subi	r22, 0xFF	; 255
    5c2c:	7f 4f       	sbci	r23, 0xFF	; 255
    5c2e:	8f 4f       	sbci	r24, 0xFF	; 255
    5c30:	9f 4f       	sbci	r25, 0xFF	; 255
    5c32:	16 c0       	rjmp	.+44     	; 0x5c60 <__floatsisf+0x6c>
    5c34:	88 23       	and	r24, r24
    5c36:	11 f0       	breq	.+4      	; 0x5c3c <__floatsisf+0x48>
    5c38:	96 e9       	ldi	r25, 0x96	; 150
    5c3a:	11 c0       	rjmp	.+34     	; 0x5c5e <__floatsisf+0x6a>
    5c3c:	77 23       	and	r23, r23
    5c3e:	21 f0       	breq	.+8      	; 0x5c48 <__floatsisf+0x54>
    5c40:	9e e8       	ldi	r25, 0x8E	; 142
    5c42:	87 2f       	mov	r24, r23
    5c44:	76 2f       	mov	r23, r22
    5c46:	05 c0       	rjmp	.+10     	; 0x5c52 <__floatsisf+0x5e>
    5c48:	66 23       	and	r22, r22
    5c4a:	71 f0       	breq	.+28     	; 0x5c68 <__floatsisf+0x74>
    5c4c:	96 e8       	ldi	r25, 0x86	; 134
    5c4e:	86 2f       	mov	r24, r22
    5c50:	70 e0       	ldi	r23, 0x00	; 0
    5c52:	60 e0       	ldi	r22, 0x00	; 0
    5c54:	2a f0       	brmi	.+10     	; 0x5c60 <__floatsisf+0x6c>
    5c56:	9a 95       	dec	r25
    5c58:	66 0f       	add	r22, r22
    5c5a:	77 1f       	adc	r23, r23
    5c5c:	88 1f       	adc	r24, r24
    5c5e:	da f7       	brpl	.-10     	; 0x5c56 <__floatsisf+0x62>
    5c60:	88 0f       	add	r24, r24
    5c62:	96 95       	lsr	r25
    5c64:	87 95       	ror	r24
    5c66:	97 f9       	bld	r25, 7
    5c68:	08 95       	ret

00005c6a <__fp_split3>:
    5c6a:	57 fd       	sbrc	r21, 7
    5c6c:	90 58       	subi	r25, 0x80	; 128
    5c6e:	44 0f       	add	r20, r20
    5c70:	55 1f       	adc	r21, r21
    5c72:	59 f0       	breq	.+22     	; 0x5c8a <__fp_splitA+0x10>
    5c74:	5f 3f       	cpi	r21, 0xFF	; 255
    5c76:	71 f0       	breq	.+28     	; 0x5c94 <__fp_splitA+0x1a>
    5c78:	47 95       	ror	r20

00005c7a <__fp_splitA>:
    5c7a:	88 0f       	add	r24, r24
    5c7c:	97 fb       	bst	r25, 7
    5c7e:	99 1f       	adc	r25, r25
    5c80:	61 f0       	breq	.+24     	; 0x5c9a <__fp_splitA+0x20>
    5c82:	9f 3f       	cpi	r25, 0xFF	; 255
    5c84:	79 f0       	breq	.+30     	; 0x5ca4 <__fp_splitA+0x2a>
    5c86:	87 95       	ror	r24
    5c88:	08 95       	ret
    5c8a:	12 16       	cp	r1, r18
    5c8c:	13 06       	cpc	r1, r19
    5c8e:	14 06       	cpc	r1, r20
    5c90:	55 1f       	adc	r21, r21
    5c92:	f2 cf       	rjmp	.-28     	; 0x5c78 <__fp_split3+0xe>
    5c94:	46 95       	lsr	r20
    5c96:	f1 df       	rcall	.-30     	; 0x5c7a <__fp_splitA>
    5c98:	08 c0       	rjmp	.+16     	; 0x5caa <__fp_splitA+0x30>
    5c9a:	16 16       	cp	r1, r22
    5c9c:	17 06       	cpc	r1, r23
    5c9e:	18 06       	cpc	r1, r24
    5ca0:	99 1f       	adc	r25, r25
    5ca2:	f1 cf       	rjmp	.-30     	; 0x5c86 <__fp_splitA+0xc>
    5ca4:	86 95       	lsr	r24
    5ca6:	71 05       	cpc	r23, r1
    5ca8:	61 05       	cpc	r22, r1
    5caa:	08 94       	sec
    5cac:	08 95       	ret

00005cae <__fp_zero>:
    5cae:	e8 94       	clt

00005cb0 <__fp_szero>:
    5cb0:	bb 27       	eor	r27, r27
    5cb2:	66 27       	eor	r22, r22
    5cb4:	77 27       	eor	r23, r23
    5cb6:	cb 01       	movw	r24, r22
    5cb8:	97 f9       	bld	r25, 7
    5cba:	08 95       	ret

00005cbc <__mulsf3>:
    5cbc:	0b d0       	rcall	.+22     	; 0x5cd4 <__mulsf3x>
    5cbe:	78 c0       	rjmp	.+240    	; 0x5db0 <__fp_round>
    5cc0:	69 d0       	rcall	.+210    	; 0x5d94 <__fp_pscA>
    5cc2:	28 f0       	brcs	.+10     	; 0x5cce <__mulsf3+0x12>
    5cc4:	6e d0       	rcall	.+220    	; 0x5da2 <__fp_pscB>
    5cc6:	18 f0       	brcs	.+6      	; 0x5cce <__mulsf3+0x12>
    5cc8:	95 23       	and	r25, r21
    5cca:	09 f0       	breq	.+2      	; 0x5cce <__mulsf3+0x12>
    5ccc:	5a c0       	rjmp	.+180    	; 0x5d82 <__fp_inf>
    5cce:	5f c0       	rjmp	.+190    	; 0x5d8e <__fp_nan>
    5cd0:	11 24       	eor	r1, r1
    5cd2:	ee cf       	rjmp	.-36     	; 0x5cb0 <__fp_szero>

00005cd4 <__mulsf3x>:
    5cd4:	ca df       	rcall	.-108    	; 0x5c6a <__fp_split3>
    5cd6:	a0 f3       	brcs	.-24     	; 0x5cc0 <__mulsf3+0x4>

00005cd8 <__mulsf3_pse>:
    5cd8:	95 9f       	mul	r25, r21
    5cda:	d1 f3       	breq	.-12     	; 0x5cd0 <__mulsf3+0x14>
    5cdc:	95 0f       	add	r25, r21
    5cde:	50 e0       	ldi	r21, 0x00	; 0
    5ce0:	55 1f       	adc	r21, r21
    5ce2:	62 9f       	mul	r22, r18
    5ce4:	f0 01       	movw	r30, r0
    5ce6:	72 9f       	mul	r23, r18
    5ce8:	bb 27       	eor	r27, r27
    5cea:	f0 0d       	add	r31, r0
    5cec:	b1 1d       	adc	r27, r1
    5cee:	63 9f       	mul	r22, r19
    5cf0:	aa 27       	eor	r26, r26
    5cf2:	f0 0d       	add	r31, r0
    5cf4:	b1 1d       	adc	r27, r1
    5cf6:	aa 1f       	adc	r26, r26
    5cf8:	64 9f       	mul	r22, r20
    5cfa:	66 27       	eor	r22, r22
    5cfc:	b0 0d       	add	r27, r0
    5cfe:	a1 1d       	adc	r26, r1
    5d00:	66 1f       	adc	r22, r22
    5d02:	82 9f       	mul	r24, r18
    5d04:	22 27       	eor	r18, r18
    5d06:	b0 0d       	add	r27, r0
    5d08:	a1 1d       	adc	r26, r1
    5d0a:	62 1f       	adc	r22, r18
    5d0c:	73 9f       	mul	r23, r19
    5d0e:	b0 0d       	add	r27, r0
    5d10:	a1 1d       	adc	r26, r1
    5d12:	62 1f       	adc	r22, r18
    5d14:	83 9f       	mul	r24, r19
    5d16:	a0 0d       	add	r26, r0
    5d18:	61 1d       	adc	r22, r1
    5d1a:	22 1f       	adc	r18, r18
    5d1c:	74 9f       	mul	r23, r20
    5d1e:	33 27       	eor	r19, r19
    5d20:	a0 0d       	add	r26, r0
    5d22:	61 1d       	adc	r22, r1
    5d24:	23 1f       	adc	r18, r19
    5d26:	84 9f       	mul	r24, r20
    5d28:	60 0d       	add	r22, r0
    5d2a:	21 1d       	adc	r18, r1
    5d2c:	82 2f       	mov	r24, r18
    5d2e:	76 2f       	mov	r23, r22
    5d30:	6a 2f       	mov	r22, r26
    5d32:	11 24       	eor	r1, r1
    5d34:	9f 57       	subi	r25, 0x7F	; 127
    5d36:	50 40       	sbci	r21, 0x00	; 0
    5d38:	8a f0       	brmi	.+34     	; 0x5d5c <__mulsf3_pse+0x84>
    5d3a:	e1 f0       	breq	.+56     	; 0x5d74 <__mulsf3_pse+0x9c>
    5d3c:	88 23       	and	r24, r24
    5d3e:	4a f0       	brmi	.+18     	; 0x5d52 <__mulsf3_pse+0x7a>
    5d40:	ee 0f       	add	r30, r30
    5d42:	ff 1f       	adc	r31, r31
    5d44:	bb 1f       	adc	r27, r27
    5d46:	66 1f       	adc	r22, r22
    5d48:	77 1f       	adc	r23, r23
    5d4a:	88 1f       	adc	r24, r24
    5d4c:	91 50       	subi	r25, 0x01	; 1
    5d4e:	50 40       	sbci	r21, 0x00	; 0
    5d50:	a9 f7       	brne	.-22     	; 0x5d3c <__mulsf3_pse+0x64>
    5d52:	9e 3f       	cpi	r25, 0xFE	; 254
    5d54:	51 05       	cpc	r21, r1
    5d56:	70 f0       	brcs	.+28     	; 0x5d74 <__mulsf3_pse+0x9c>
    5d58:	14 c0       	rjmp	.+40     	; 0x5d82 <__fp_inf>
    5d5a:	aa cf       	rjmp	.-172    	; 0x5cb0 <__fp_szero>
    5d5c:	5f 3f       	cpi	r21, 0xFF	; 255
    5d5e:	ec f3       	brlt	.-6      	; 0x5d5a <__mulsf3_pse+0x82>
    5d60:	98 3e       	cpi	r25, 0xE8	; 232
    5d62:	dc f3       	brlt	.-10     	; 0x5d5a <__mulsf3_pse+0x82>
    5d64:	86 95       	lsr	r24
    5d66:	77 95       	ror	r23
    5d68:	67 95       	ror	r22
    5d6a:	b7 95       	ror	r27
    5d6c:	f7 95       	ror	r31
    5d6e:	e7 95       	ror	r30
    5d70:	9f 5f       	subi	r25, 0xFF	; 255
    5d72:	c1 f7       	brne	.-16     	; 0x5d64 <__mulsf3_pse+0x8c>
    5d74:	fe 2b       	or	r31, r30
    5d76:	88 0f       	add	r24, r24
    5d78:	91 1d       	adc	r25, r1
    5d7a:	96 95       	lsr	r25
    5d7c:	87 95       	ror	r24
    5d7e:	97 f9       	bld	r25, 7
    5d80:	08 95       	ret

00005d82 <__fp_inf>:
    5d82:	97 f9       	bld	r25, 7
    5d84:	9f 67       	ori	r25, 0x7F	; 127
    5d86:	80 e8       	ldi	r24, 0x80	; 128
    5d88:	70 e0       	ldi	r23, 0x00	; 0
    5d8a:	60 e0       	ldi	r22, 0x00	; 0
    5d8c:	08 95       	ret

00005d8e <__fp_nan>:
    5d8e:	9f ef       	ldi	r25, 0xFF	; 255
    5d90:	80 ec       	ldi	r24, 0xC0	; 192
    5d92:	08 95       	ret

00005d94 <__fp_pscA>:
    5d94:	00 24       	eor	r0, r0
    5d96:	0a 94       	dec	r0
    5d98:	16 16       	cp	r1, r22
    5d9a:	17 06       	cpc	r1, r23
    5d9c:	18 06       	cpc	r1, r24
    5d9e:	09 06       	cpc	r0, r25
    5da0:	08 95       	ret

00005da2 <__fp_pscB>:
    5da2:	00 24       	eor	r0, r0
    5da4:	0a 94       	dec	r0
    5da6:	12 16       	cp	r1, r18
    5da8:	13 06       	cpc	r1, r19
    5daa:	14 06       	cpc	r1, r20
    5dac:	05 06       	cpc	r0, r21
    5dae:	08 95       	ret

00005db0 <__fp_round>:
    5db0:	09 2e       	mov	r0, r25
    5db2:	03 94       	inc	r0
    5db4:	00 0c       	add	r0, r0
    5db6:	11 f4       	brne	.+4      	; 0x5dbc <__fp_round+0xc>
    5db8:	88 23       	and	r24, r24
    5dba:	52 f0       	brmi	.+20     	; 0x5dd0 <__fp_round+0x20>
    5dbc:	bb 0f       	add	r27, r27
    5dbe:	40 f4       	brcc	.+16     	; 0x5dd0 <__fp_round+0x20>
    5dc0:	bf 2b       	or	r27, r31
    5dc2:	11 f4       	brne	.+4      	; 0x5dc8 <__fp_round+0x18>
    5dc4:	60 ff       	sbrs	r22, 0
    5dc6:	04 c0       	rjmp	.+8      	; 0x5dd0 <__fp_round+0x20>
    5dc8:	6f 5f       	subi	r22, 0xFF	; 255
    5dca:	7f 4f       	sbci	r23, 0xFF	; 255
    5dcc:	8f 4f       	sbci	r24, 0xFF	; 255
    5dce:	9f 4f       	sbci	r25, 0xFF	; 255
    5dd0:	08 95       	ret

00005dd2 <__mulsi3>:
    5dd2:	62 9f       	mul	r22, r18
    5dd4:	d0 01       	movw	r26, r0
    5dd6:	73 9f       	mul	r23, r19
    5dd8:	f0 01       	movw	r30, r0
    5dda:	82 9f       	mul	r24, r18
    5ddc:	e0 0d       	add	r30, r0
    5dde:	f1 1d       	adc	r31, r1
    5de0:	64 9f       	mul	r22, r20
    5de2:	e0 0d       	add	r30, r0
    5de4:	f1 1d       	adc	r31, r1
    5de6:	92 9f       	mul	r25, r18
    5de8:	f0 0d       	add	r31, r0
    5dea:	83 9f       	mul	r24, r19
    5dec:	f0 0d       	add	r31, r0
    5dee:	74 9f       	mul	r23, r20
    5df0:	f0 0d       	add	r31, r0
    5df2:	65 9f       	mul	r22, r21
    5df4:	f0 0d       	add	r31, r0
    5df6:	99 27       	eor	r25, r25
    5df8:	72 9f       	mul	r23, r18
    5dfa:	b0 0d       	add	r27, r0
    5dfc:	e1 1d       	adc	r30, r1
    5dfe:	f9 1f       	adc	r31, r25
    5e00:	63 9f       	mul	r22, r19
    5e02:	b0 0d       	add	r27, r0
    5e04:	e1 1d       	adc	r30, r1
    5e06:	f9 1f       	adc	r31, r25
    5e08:	bd 01       	movw	r22, r26
    5e0a:	cf 01       	movw	r24, r30
    5e0c:	11 24       	eor	r1, r1
    5e0e:	08 95       	ret

00005e10 <__udivmodqi4>:
    5e10:	99 1b       	sub	r25, r25
    5e12:	79 e0       	ldi	r23, 0x09	; 9
    5e14:	04 c0       	rjmp	.+8      	; 0x5e1e <__udivmodqi4_ep>

00005e16 <__udivmodqi4_loop>:
    5e16:	99 1f       	adc	r25, r25
    5e18:	96 17       	cp	r25, r22
    5e1a:	08 f0       	brcs	.+2      	; 0x5e1e <__udivmodqi4_ep>
    5e1c:	96 1b       	sub	r25, r22

00005e1e <__udivmodqi4_ep>:
    5e1e:	88 1f       	adc	r24, r24
    5e20:	7a 95       	dec	r23
    5e22:	c9 f7       	brne	.-14     	; 0x5e16 <__udivmodqi4_loop>
    5e24:	80 95       	com	r24
    5e26:	08 95       	ret

00005e28 <__udivmodhi4>:
    5e28:	aa 1b       	sub	r26, r26
    5e2a:	bb 1b       	sub	r27, r27
    5e2c:	51 e1       	ldi	r21, 0x11	; 17
    5e2e:	07 c0       	rjmp	.+14     	; 0x5e3e <__udivmodhi4_ep>

00005e30 <__udivmodhi4_loop>:
    5e30:	aa 1f       	adc	r26, r26
    5e32:	bb 1f       	adc	r27, r27
    5e34:	a6 17       	cp	r26, r22
    5e36:	b7 07       	cpc	r27, r23
    5e38:	10 f0       	brcs	.+4      	; 0x5e3e <__udivmodhi4_ep>
    5e3a:	a6 1b       	sub	r26, r22
    5e3c:	b7 0b       	sbc	r27, r23

00005e3e <__udivmodhi4_ep>:
    5e3e:	88 1f       	adc	r24, r24
    5e40:	99 1f       	adc	r25, r25
    5e42:	5a 95       	dec	r21
    5e44:	a9 f7       	brne	.-22     	; 0x5e30 <__udivmodhi4_loop>
    5e46:	80 95       	com	r24
    5e48:	90 95       	com	r25
    5e4a:	bc 01       	movw	r22, r24
    5e4c:	cd 01       	movw	r24, r26
    5e4e:	08 95       	ret

00005e50 <__divmodhi4>:
    5e50:	97 fb       	bst	r25, 7
    5e52:	09 2e       	mov	r0, r25
    5e54:	07 26       	eor	r0, r23
    5e56:	0a d0       	rcall	.+20     	; 0x5e6c <__divmodhi4_neg1>
    5e58:	77 fd       	sbrc	r23, 7
    5e5a:	04 d0       	rcall	.+8      	; 0x5e64 <__divmodhi4_neg2>
    5e5c:	e5 df       	rcall	.-54     	; 0x5e28 <__udivmodhi4>
    5e5e:	06 d0       	rcall	.+12     	; 0x5e6c <__divmodhi4_neg1>
    5e60:	00 20       	and	r0, r0
    5e62:	1a f4       	brpl	.+6      	; 0x5e6a <__divmodhi4_exit>

00005e64 <__divmodhi4_neg2>:
    5e64:	70 95       	com	r23
    5e66:	61 95       	neg	r22
    5e68:	7f 4f       	sbci	r23, 0xFF	; 255

00005e6a <__divmodhi4_exit>:
    5e6a:	08 95       	ret

00005e6c <__divmodhi4_neg1>:
    5e6c:	f6 f7       	brtc	.-4      	; 0x5e6a <__divmodhi4_exit>
    5e6e:	90 95       	com	r25
    5e70:	81 95       	neg	r24
    5e72:	9f 4f       	sbci	r25, 0xFF	; 255
    5e74:	08 95       	ret

00005e76 <__udivmodsi4>:
    5e76:	a1 e2       	ldi	r26, 0x21	; 33
    5e78:	1a 2e       	mov	r1, r26
    5e7a:	aa 1b       	sub	r26, r26
    5e7c:	bb 1b       	sub	r27, r27
    5e7e:	fd 01       	movw	r30, r26
    5e80:	0d c0       	rjmp	.+26     	; 0x5e9c <__udivmodsi4_ep>

00005e82 <__udivmodsi4_loop>:
    5e82:	aa 1f       	adc	r26, r26
    5e84:	bb 1f       	adc	r27, r27
    5e86:	ee 1f       	adc	r30, r30
    5e88:	ff 1f       	adc	r31, r31
    5e8a:	a2 17       	cp	r26, r18
    5e8c:	b3 07       	cpc	r27, r19
    5e8e:	e4 07       	cpc	r30, r20
    5e90:	f5 07       	cpc	r31, r21
    5e92:	20 f0       	brcs	.+8      	; 0x5e9c <__udivmodsi4_ep>
    5e94:	a2 1b       	sub	r26, r18
    5e96:	b3 0b       	sbc	r27, r19
    5e98:	e4 0b       	sbc	r30, r20
    5e9a:	f5 0b       	sbc	r31, r21

00005e9c <__udivmodsi4_ep>:
    5e9c:	66 1f       	adc	r22, r22
    5e9e:	77 1f       	adc	r23, r23
    5ea0:	88 1f       	adc	r24, r24
    5ea2:	99 1f       	adc	r25, r25
    5ea4:	1a 94       	dec	r1
    5ea6:	69 f7       	brne	.-38     	; 0x5e82 <__udivmodsi4_loop>
    5ea8:	60 95       	com	r22
    5eaa:	70 95       	com	r23
    5eac:	80 95       	com	r24
    5eae:	90 95       	com	r25
    5eb0:	9b 01       	movw	r18, r22
    5eb2:	ac 01       	movw	r20, r24
    5eb4:	bd 01       	movw	r22, r26
    5eb6:	cf 01       	movw	r24, r30
    5eb8:	08 95       	ret

00005eba <__divmodsi4>:
    5eba:	97 fb       	bst	r25, 7
    5ebc:	09 2e       	mov	r0, r25
    5ebe:	05 26       	eor	r0, r21
    5ec0:	0e d0       	rcall	.+28     	; 0x5ede <__divmodsi4_neg1>
    5ec2:	57 fd       	sbrc	r21, 7
    5ec4:	04 d0       	rcall	.+8      	; 0x5ece <__divmodsi4_neg2>
    5ec6:	d7 df       	rcall	.-82     	; 0x5e76 <__udivmodsi4>
    5ec8:	0a d0       	rcall	.+20     	; 0x5ede <__divmodsi4_neg1>
    5eca:	00 1c       	adc	r0, r0
    5ecc:	38 f4       	brcc	.+14     	; 0x5edc <__divmodsi4_exit>

00005ece <__divmodsi4_neg2>:
    5ece:	50 95       	com	r21
    5ed0:	40 95       	com	r20
    5ed2:	30 95       	com	r19
    5ed4:	21 95       	neg	r18
    5ed6:	3f 4f       	sbci	r19, 0xFF	; 255
    5ed8:	4f 4f       	sbci	r20, 0xFF	; 255
    5eda:	5f 4f       	sbci	r21, 0xFF	; 255

00005edc <__divmodsi4_exit>:
    5edc:	08 95       	ret

00005ede <__divmodsi4_neg1>:
    5ede:	f6 f7       	brtc	.-4      	; 0x5edc <__divmodsi4_exit>
    5ee0:	90 95       	com	r25
    5ee2:	80 95       	com	r24
    5ee4:	70 95       	com	r23
    5ee6:	61 95       	neg	r22
    5ee8:	7f 4f       	sbci	r23, 0xFF	; 255
    5eea:	8f 4f       	sbci	r24, 0xFF	; 255
    5eec:	9f 4f       	sbci	r25, 0xFF	; 255
    5eee:	08 95       	ret

00005ef0 <toupper>:
    5ef0:	91 11       	cpse	r25, r1
    5ef2:	08 95       	ret
    5ef4:	81 56       	subi	r24, 0x61	; 97
    5ef6:	8a 51       	subi	r24, 0x1A	; 26
    5ef8:	08 f4       	brcc	.+2      	; 0x5efc <toupper+0xc>
    5efa:	80 52       	subi	r24, 0x20	; 32
    5efc:	85 58       	subi	r24, 0x85	; 133
    5efe:	08 95       	ret

00005f00 <__eerd_block_m328p>:
    5f00:	dc 01       	movw	r26, r24
    5f02:	cb 01       	movw	r24, r22

00005f04 <__eerd_blraw_m328p>:
    5f04:	fc 01       	movw	r30, r24
    5f06:	f9 99       	sbic	0x1f, 1	; 31
    5f08:	fe cf       	rjmp	.-4      	; 0x5f06 <__eerd_blraw_m328p+0x2>
    5f0a:	06 c0       	rjmp	.+12     	; 0x5f18 <__eerd_blraw_m328p+0x14>
    5f0c:	f2 bd       	out	0x22, r31	; 34
    5f0e:	e1 bd       	out	0x21, r30	; 33
    5f10:	f8 9a       	sbi	0x1f, 0	; 31
    5f12:	31 96       	adiw	r30, 0x01	; 1
    5f14:	00 b4       	in	r0, 0x20	; 32
    5f16:	0d 92       	st	X+, r0
    5f18:	41 50       	subi	r20, 0x01	; 1
    5f1a:	50 40       	sbci	r21, 0x00	; 0
    5f1c:	b8 f7       	brcc	.-18     	; 0x5f0c <__eerd_blraw_m328p+0x8>
    5f1e:	08 95       	ret

00005f20 <_exit>:
    5f20:	f8 94       	cli

00005f22 <__stop_program>:
    5f22:	ff cf       	rjmp	.-2      	; 0x5f22 <__stop_program>
